
mecrisp-stellaris-lm4f120.elf:     file format elf32-littlearm


Disassembly of section .text:

00000000 <CoreDictionaryAnfang-0x1ec>:
       0:	2000035c 	andcs	r0, r0, ip, asr r3
       4:	00004957 	andeq	r4, r0, r7, asr r9
       8:	00004633 	andeq	r4, r0, r3, lsr r6
       c:	00004633 	andeq	r4, r0, r3, lsr r6
      10:	00004633 	andeq	r4, r0, r3, lsr r6
      14:	00004633 	andeq	r4, r0, r3, lsr r6
      18:	00004633 	andeq	r4, r0, r3, lsr r6
	...
      2c:	00004663 	andeq	r4, r0, r3, ror #12
      30:	00004663 	andeq	r4, r0, r3, ror #12
      34:	00000000 	andeq	r0, r0, r0
      38:	00004663 	andeq	r4, r0, r3, ror #12
      3c:	00004609 	andeq	r4, r0, r9, lsl #12
      40:	000046b7 			; <UNDEFINED> instruction: 0x000046b7
      44:	000046df 	ldrdeq	r4, [r0], -pc	; <UNPREDICTABLE>
      48:	00004707 	andeq	r4, r0, r7, lsl #14
      4c:	0000472f 	andeq	r4, r0, pc, lsr #14
      50:	00004757 	andeq	r4, r0, r7, asr r7
      54:	0000468f 	andeq	r4, r0, pc, lsl #13
      58:	00004663 	andeq	r4, r0, r3, ror #12
      5c:	00004663 	andeq	r4, r0, r3, ror #12
      60:	00004663 	andeq	r4, r0, r3, ror #12
	...
      78:	000047ab 	andeq	r4, r0, fp, lsr #15
      7c:	000047d7 	ldrdeq	r4, [r0], -r7
      80:	00004803 	andeq	r4, r0, r3, lsl #16
      84:	0000482f 	andeq	r4, r0, pc, lsr #16
      88:	00004663 	andeq	r4, r0, r3, ror #12
      8c:	00004859 	andeq	r4, r0, r9, asr r8
      90:	00004883 	andeq	r4, r0, r3, lsl #17
      94:	000048ad 	andeq	r4, r0, sp, lsr #17
      98:	000048d7 	ldrdeq	r4, [r0], -r7
      9c:	00004901 	andeq	r4, r0, r1, lsl #18
      a0:	0000492b 	andeq	r4, r0, fp, lsr #18
      a4:	00004663 	andeq	r4, r0, r3, ror #12
      a8:	00004663 	andeq	r4, r0, r3, ror #12
      ac:	00000000 	andeq	r0, r0, r0
      b0:	00004663 	andeq	r4, r0, r3, ror #12
      b4:	00004663 	andeq	r4, r0, r3, ror #12
      b8:	0000477f 	andeq	r4, r0, pc, ror r7
	...
      c4:	00004663 	andeq	r4, r0, r3, ror #12
      c8:	00004663 	andeq	r4, r0, r3, ror #12
      cc:	00004663 	andeq	r4, r0, r3, ror #12
      d0:	00004663 	andeq	r4, r0, r3, ror #12
      d4:	00004663 	andeq	r4, r0, r3, ror #12
      d8:	00000000 	andeq	r0, r0, r0
      dc:	00004663 	andeq	r4, r0, r3, ror #12
	...
      ec:	00004663 	andeq	r4, r0, r3, ror #12
      f0:	00004663 	andeq	r4, r0, r3, ror #12
      f4:	00000000 	andeq	r0, r0, r0
      f8:	00004663 	andeq	r4, r0, r3, ror #12
      fc:	00004663 	andeq	r4, r0, r3, ror #12
     100:	00004663 	andeq	r4, r0, r3, ror #12
     104:	00004663 	andeq	r4, r0, r3, ror #12
     108:	00004663 	andeq	r4, r0, r3, ror #12
     10c:	00004663 	andeq	r4, r0, r3, ror #12
	...
     124:	00004663 	andeq	r4, r0, r3, ror #12
     128:	00004663 	andeq	r4, r0, r3, ror #12
     12c:	00004663 	andeq	r4, r0, r3, ror #12
     130:	00004663 	andeq	r4, r0, r3, ror #12
     134:	00004663 	andeq	r4, r0, r3, ror #12
     138:	00004663 	andeq	r4, r0, r3, ror #12
     13c:	00004663 	andeq	r4, r0, r3, ror #12
	...
     150:	00004663 	andeq	r4, r0, r3, ror #12
     154:	00004663 	andeq	r4, r0, r3, ror #12
     158:	00004663 	andeq	r4, r0, r3, ror #12
     15c:	00004663 	andeq	r4, r0, r3, ror #12
	...
     1b0:	00004663 	andeq	r4, r0, r3, ror #12
     1b4:	00004663 	andeq	r4, r0, r3, ror #12
     1b8:	00004663 	andeq	r4, r0, r3, ror #12
     1bc:	00004663 	andeq	r4, r0, r3, ror #12
     1c0:	00004663 	andeq	r4, r0, r3, ror #12
     1c4:	00004663 	andeq	r4, r0, r3, ror #12
     1c8:	00004663 	andeq	r4, r0, r3, ror #12
     1cc:	00004663 	andeq	r4, r0, r3, ror #12
     1d0:	00004663 	andeq	r4, r0, r3, ror #12
     1d4:	00004663 	andeq	r4, r0, r3, ror #12
     1d8:	00004663 	andeq	r4, r0, r3, ror #12
     1dc:	00004663 	andeq	r4, r0, r3, ror #12
     1e0:	00004663 	andeq	r4, r0, r3, ror #12
     1e4:	00004663 	andeq	r4, r0, r3, ror #12
     1e8:	00004663 	andeq	r4, r0, r3, ror #12

000001ec <CoreDictionaryAnfang>:
     1ec:	0000048c 	andeq	r0, r0, ip, lsl #9
     1f0:	2d1effff 	ldccs	15, cr15, [lr, #-1020]	; 0xfffffc04
     1f4:	4d202d2d 	stcmi	13, cr2, [r0, #-180]!	; 0xffffff4c
     1f8:	69726365 	ldmdbvs	r2!, {r0, r2, r5, r6, r8, r9, sp, lr}^
     1fc:	532d7073 	teqpl	sp, #115	; 0x73
     200:	6c6c6574 	cfstr64vs	mvdx6, [ip], #-464	; 0xfffffe30
     204:	73697261 	cmnvc	r9, #268435462	; 0x10000006
     208:	726f4320 	rsbvc	r4, pc, #-2147483648	; 0x80000000
     20c:	2d2d2065 	stccs	0, cr2, [sp, #-404]!	; 0xfffffe6c
     210:	b507002d 	strlt	r0, [r7, #-45]	; 0x2d

00000212 <Code_27>:
     212:	b507      	push	{r0, r1, r2, lr}
     214:	4852      	ldr	r0, [pc, #328]	; (360 <generiere_konstante_common+0x2a>)
     216:	2b00      	cmp	r3, #0
     218:	d009      	beq.n	22e <Code_27+0x1c>
     21a:	f000 f82e 	bl	27a <free_3os_element>
     21e:	f000 f834 	bl	28a <elemente_einen_weiterrutschen_lassen>
     222:	f000 f81e 	bl	262 <nget_faltkonstante>
     226:	6142      	str	r2, [r0, #20]
     228:	2128      	movs	r1, #40	; 0x28
     22a:	6101      	str	r1, [r0, #16]
     22c:	e7f3      	b.n	216 <Code_27+0x4>
     22e:	bd07      	pop	{r0, r1, r2, pc}

00000230 <nfaltkonstanten_aufschwimmen>:
     230:	b507      	push	{r0, r1, r2, lr}
     232:	484b      	ldr	r0, [pc, #300]	; (360 <generiere_konstante_common+0x2a>)
     234:	6901      	ldr	r1, [r0, #16]
     236:	2928      	cmp	r1, #40	; 0x28
     238:	d105      	bne.n	246 <nfaltkonstanten_aufschwimmen+0x16>
     23a:	6942      	ldr	r2, [r0, #20]
     23c:	f000 f804 	bl	248 <npush_faltkonstante>
     240:	f000 f8f0 	bl	424 <eliminiere_tos>
     244:	e7f6      	b.n	234 <nfaltkonstanten_aufschwimmen+0x4>
     246:	bd07      	pop	{r0, r1, r2, pc}

00000248 <npush_faltkonstante>:
     248:	b503      	push	{r0, r1, lr}
     24a:	f847 6d04 	str.w	r6, [r7, #-4]!
     24e:	0016      	movs	r6, r2
     250:	f847 6d04 	str.w	r6, [r7, #-4]!
     254:	001e      	movs	r6, r3
     256:	b408      	push	{r3}
     258:	f000 ff2c 	bl	10b4 <Code_227>
     25c:	bc08      	pop	{r3}
     25e:	3301      	adds	r3, #1
     260:	bd03      	pop	{r0, r1, pc}

00000262 <nget_faltkonstante>:
     262:	b503      	push	{r0, r1, lr}
     264:	3b01      	subs	r3, #1
     266:	f847 6d04 	str.w	r6, [r7, #-4]!
     26a:	001e      	movs	r6, r3
     26c:	b408      	push	{r3}
     26e:	f000 ff0b 	bl	1088 <Code_225>
     272:	bc08      	pop	{r3}
     274:	0032      	movs	r2, r6
     276:	cf40      	ldmia	r7!, {r6}
     278:	bd03      	pop	{r0, r1, pc}

0000027a <free_3os_element>:
     27a:	b503      	push	{r0, r1, lr}
     27c:	4839      	ldr	r0, [pc, #228]	; (364 <generiere_konstante_common+0x2e>)
     27e:	6801      	ldr	r1, [r0, #0]
     280:	291e      	cmp	r1, #30
     282:	d001      	beq.n	288 <free_3os_element+0xe>
     284:	f000 f816 	bl	2b4 <element_to_stack>
     288:	bd03      	pop	{r0, r1, pc}

0000028a <elemente_einen_weiterrutschen_lassen>:
     28a:	6981      	ldr	r1, [r0, #24]
     28c:	6201      	str	r1, [r0, #32]
     28e:	6901      	ldr	r1, [r0, #16]
     290:	6181      	str	r1, [r0, #24]
     292:	69c1      	ldr	r1, [r0, #28]
     294:	6241      	str	r1, [r0, #36]	; 0x24
     296:	6941      	ldr	r1, [r0, #20]
     298:	61c1      	str	r1, [r0, #28]
     29a:	211e      	movs	r1, #30
     29c:	6101      	str	r1, [r0, #16]
     29e:	4770      	bx	lr

000002a0 <befreie_tos>:
     2a0:	b50f      	push	{r0, r1, r2, r3, lr}
     2a2:	482f      	ldr	r0, [pc, #188]	; (360 <generiere_konstante_common+0x2a>)
     2a4:	6901      	ldr	r1, [r0, #16]
     2a6:	291e      	cmp	r1, #30
     2a8:	d003      	beq.n	2b2 <befreie_tos+0x12>
     2aa:	f7ff ffe6 	bl	27a <free_3os_element>
     2ae:	f7ff ffec 	bl	28a <elemente_einen_weiterrutschen_lassen>
     2b2:	bd0f      	pop	{r0, r1, r2, r3, pc}

000002b4 <element_to_stack>:
     2b4:	b508      	push	{r3, lr}
     2b6:	6801      	ldr	r1, [r0, #0]
     2b8:	221e      	movs	r2, #30
     2ba:	6002      	str	r2, [r0, #0]
     2bc:	2908      	cmp	r1, #8
     2be:	d20d      	bcs.n	2dc <element_to_stack+0x28>
     2c0:	f847 6d04 	str.w	r6, [r7, #-4]!
     2c4:	f643 7604 	movw	r6, #16132	; 0x3f04
     2c8:	f002 ff40 	bl	314c <Code_787>
     2cc:	f847 6d04 	str.w	r6, [r7, #-4]!
     2d0:	f246 0638 	movw	r6, #24632	; 0x6038
     2d4:	430e      	orrs	r6, r1
     2d6:	f002 ff39 	bl	314c <Code_787>
     2da:	bd08      	pop	{r3, pc}
     2dc:	2928      	cmp	r1, #40	; 0x28
     2de:	d10f      	bne.n	300 <element_to_stack+0x4c>
     2e0:	f847 6d04 	str.w	r6, [r7, #-4]!
     2e4:	f643 7604 	movw	r6, #16132	; 0x3f04
     2e8:	f002 ff30 	bl	314c <Code_787>
     2ec:	6843      	ldr	r3, [r0, #4]
     2ee:	f000 f808 	bl	302 <generiere_konstante>
     2f2:	f847 6d04 	str.w	r6, [r7, #-4]!
     2f6:	f246 0638 	movw	r6, #24632	; 0x6038
     2fa:	431e      	orrs	r6, r3
     2fc:	f002 ff26 	bl	314c <Code_787>
     300:	bd08      	pop	{r3, pc}

00000302 <generiere_konstante>:
     302:	b507      	push	{r0, r1, r2, lr}
     304:	f000 f817 	bl	336 <generiere_konstante_common>
     308:	6043      	str	r3, [r0, #4]
     30a:	2128      	movs	r1, #40	; 0x28
     30c:	6001      	str	r1, [r0, #0]
     30e:	2300      	movs	r3, #0
     310:	f847 6d04 	str.w	r6, [r7, #-4]!
     314:	001e      	movs	r6, r3
     316:	f002 fbc3 	bl	2aa0 <Code_659>
     31a:	bd07      	pop	{r0, r1, r2, pc}

0000031c <generiere_adresskonstante>:
     31c:	b507      	push	{r0, r1, r2, lr}
     31e:	f000 f80a 	bl	336 <generiere_konstante_common>
     322:	60c3      	str	r3, [r0, #12]
     324:	2128      	movs	r1, #40	; 0x28
     326:	6081      	str	r1, [r0, #8]
     328:	2301      	movs	r3, #1
     32a:	f847 6d04 	str.w	r6, [r7, #-4]!
     32e:	001e      	movs	r6, r3
     330:	f002 fbb6 	bl	2aa0 <Code_659>
     334:	bd07      	pop	{r0, r1, r2, pc}

00000336 <generiere_konstante_common>:
     336:	480a      	ldr	r0, [pc, #40]	; (360 <generiere_konstante_common+0x2a>)
     338:	6801      	ldr	r1, [r0, #0]
     33a:	291e      	cmp	r1, #30
     33c:	d004      	beq.n	348 <generiere_konstante_common+0x12>
     33e:	6841      	ldr	r1, [r0, #4]
     340:	4299      	cmp	r1, r3
     342:	d101      	bne.n	348 <generiere_konstante_common+0x12>
     344:	2300      	movs	r3, #0
     346:	bd07      	pop	{r0, r1, r2, pc}
     348:	6881      	ldr	r1, [r0, #8]
     34a:	291e      	cmp	r1, #30
     34c:	d004      	beq.n	358 <generiere_konstante_common+0x22>
     34e:	68c1      	ldr	r1, [r0, #12]
     350:	4299      	cmp	r1, r3
     352:	d101      	bne.n	358 <generiere_konstante_common+0x22>
     354:	2301      	movs	r3, #1
     356:	bd07      	pop	{r0, r1, r2, pc}
     358:	f847 6d04 	str.w	r6, [r7, #-4]!
     35c:	001e      	movs	r6, r3
     35e:	4770      	bx	lr
     360:	20000028 	andcs	r0, r0, r8, lsr #32
     364:	20000048 	andcs	r0, r0, r8, asr #32

00000368 <get_free_register>:
     368:	b507      	push	{r0, r1, r2, lr}
     36a:	4821      	ldr	r0, [pc, #132]	; (3f0 <expect_three_elements+0x16>)
     36c:	6901      	ldr	r1, [r0, #16]
     36e:	6982      	ldr	r2, [r0, #24]
     370:	6a03      	ldr	r3, [r0, #32]
     372:	2906      	cmp	r1, #6
     374:	d005      	beq.n	382 <get_free_register+0x1a>
     376:	2a06      	cmp	r2, #6
     378:	d003      	beq.n	382 <get_free_register+0x1a>
     37a:	2b06      	cmp	r3, #6
     37c:	d001      	beq.n	382 <get_free_register+0x1a>
     37e:	2306      	movs	r3, #6
     380:	bd07      	pop	{r0, r1, r2, pc}
     382:	2903      	cmp	r1, #3
     384:	d005      	beq.n	392 <get_free_register+0x2a>
     386:	2a03      	cmp	r2, #3
     388:	d003      	beq.n	392 <get_free_register+0x2a>
     38a:	2b03      	cmp	r3, #3
     38c:	d001      	beq.n	392 <get_free_register+0x2a>
     38e:	2303      	movs	r3, #3
     390:	bd07      	pop	{r0, r1, r2, pc}
     392:	2302      	movs	r3, #2
     394:	bd07      	pop	{r0, r1, r2, pc}

00000396 <fill_element_from_stack>:
     396:	b500      	push	{lr}
     398:	f7ff ffe6 	bl	368 <get_free_register>
     39c:	6003      	str	r3, [r0, #0]
     39e:	2101      	movs	r1, #1
     3a0:	4099      	lsls	r1, r3
     3a2:	f847 6d04 	str.w	r6, [r7, #-4]!
     3a6:	f64c 7600 	movw	r6, #52992	; 0xcf00
     3aa:	430e      	orrs	r6, r1
     3ac:	f002 fece 	bl	314c <Code_787>
     3b0:	bd00      	pop	{pc}

000003b2 <expect_one_element>:
     3b2:	b50f      	push	{r0, r1, r2, r3, lr}
     3b4:	480e      	ldr	r0, [pc, #56]	; (3f0 <expect_three_elements+0x16>)
     3b6:	6901      	ldr	r1, [r0, #16]
     3b8:	291e      	cmp	r1, #30
     3ba:	d102      	bne.n	3c2 <expect_one_element+0x10>
     3bc:	480d      	ldr	r0, [pc, #52]	; (3f4 <expect_three_elements+0x1a>)
     3be:	f7ff ffea 	bl	396 <fill_element_from_stack>
     3c2:	bd0f      	pop	{r0, r1, r2, r3, pc}

000003c4 <expect_two_elements>:
     3c4:	b50f      	push	{r0, r1, r2, r3, lr}
     3c6:	480a      	ldr	r0, [pc, #40]	; (3f0 <expect_three_elements+0x16>)
     3c8:	6981      	ldr	r1, [r0, #24]
     3ca:	291e      	cmp	r1, #30
     3cc:	d104      	bne.n	3d8 <expect_two_elements+0x14>
     3ce:	f7ff fff0 	bl	3b2 <expect_one_element>
     3d2:	4809      	ldr	r0, [pc, #36]	; (3f8 <expect_three_elements+0x1e>)
     3d4:	f7ff ffdf 	bl	396 <fill_element_from_stack>
     3d8:	bd0f      	pop	{r0, r1, r2, r3, pc}

000003da <expect_three_elements>:
     3da:	b50f      	push	{r0, r1, r2, r3, lr}
     3dc:	4804      	ldr	r0, [pc, #16]	; (3f0 <expect_three_elements+0x16>)
     3de:	6a01      	ldr	r1, [r0, #32]
     3e0:	291e      	cmp	r1, #30
     3e2:	d104      	bne.n	3ee <expect_three_elements+0x14>
     3e4:	f7ff ffee 	bl	3c4 <expect_two_elements>
     3e8:	4804      	ldr	r0, [pc, #16]	; (3fc <expect_three_elements+0x22>)
     3ea:	f7ff ffd4 	bl	396 <fill_element_from_stack>
     3ee:	bd0f      	pop	{r0, r1, r2, r3, pc}
     3f0:	20000028 	andcs	r0, r0, r8, lsr #32
     3f4:	20000038 	andcs	r0, r0, r8, lsr r0
     3f8:	20000040 	andcs	r0, r0, r0, asr #32
     3fc:	20000048 	andcs	r0, r0, r8, asr #32

00000400 <expect_tos_in_register>:
     400:	b500      	push	{lr}
     402:	6901      	ldr	r1, [r0, #16]
     404:	2928      	cmp	r1, #40	; 0x28
     406:	d103      	bne.n	410 <expect_tos_in_register+0x10>
     408:	6943      	ldr	r3, [r0, #20]
     40a:	f7ff ff7a 	bl	302 <generiere_konstante>
     40e:	0019      	movs	r1, r3
     410:	bd00      	pop	{pc}

00000412 <expect_nos_in_register>:
     412:	b500      	push	{lr}
     414:	6981      	ldr	r1, [r0, #24]
     416:	2928      	cmp	r1, #40	; 0x28
     418:	d103      	bne.n	422 <expect_nos_in_register+0x10>
     41a:	69c3      	ldr	r3, [r0, #28]
     41c:	f7ff ff71 	bl	302 <generiere_konstante>
     420:	0019      	movs	r1, r3
     422:	bd00      	pop	{pc}

00000424 <eliminiere_tos>:
     424:	b503      	push	{r0, r1, lr}
     426:	4863      	ldr	r0, [pc, #396]	; (5b4 <alloc_unkommutativ_ohneregister+0x5e>)
     428:	6981      	ldr	r1, [r0, #24]
     42a:	6101      	str	r1, [r0, #16]
     42c:	69c1      	ldr	r1, [r0, #28]
     42e:	6141      	str	r1, [r0, #20]
     430:	e001      	b.n	436 <eliminiere_nos+0x4>

00000432 <eliminiere_nos>:
     432:	b503      	push	{r0, r1, lr}
     434:	485f      	ldr	r0, [pc, #380]	; (5b4 <alloc_unkommutativ_ohneregister+0x5e>)
     436:	6a01      	ldr	r1, [r0, #32]
     438:	6181      	str	r1, [r0, #24]
     43a:	6a41      	ldr	r1, [r0, #36]	; 0x24
     43c:	61c1      	str	r1, [r0, #28]
     43e:	211e      	movs	r1, #30
     440:	6201      	str	r1, [r0, #32]
     442:	bd03      	pop	{r0, r1, pc}

00000444 <nos_change_tos_away_later>:
     444:	b50e      	push	{r1, r2, r3, lr}
     446:	6982      	ldr	r2, [r0, #24]
     448:	6a03      	ldr	r3, [r0, #32]
     44a:	429a      	cmp	r2, r3
     44c:	d10a      	bne.n	464 <nos_change_tos_away_later+0x20>
     44e:	2a07      	cmp	r2, #7
     450:	d808      	bhi.n	464 <nos_change_tos_away_later+0x20>
     452:	f847 6d04 	str.w	r6, [r7, #-4]!
     456:	00d6      	lsls	r6, r2, #3
     458:	f7ff ff86 	bl	368 <get_free_register>
     45c:	431e      	orrs	r6, r3
     45e:	6183      	str	r3, [r0, #24]
     460:	f002 fe74 	bl	314c <Code_787>
     464:	bd0e      	pop	{r1, r2, r3, pc}

00000466 <make_tos_changeable>:
     466:	b50e      	push	{r1, r2, r3, lr}
     468:	6901      	ldr	r1, [r0, #16]
     46a:	6982      	ldr	r2, [r0, #24]
     46c:	6a03      	ldr	r3, [r0, #32]
     46e:	4291      	cmp	r1, r2
     470:	d002      	beq.n	478 <make_tos_changeable+0x12>
     472:	4299      	cmp	r1, r3
     474:	d000      	beq.n	478 <make_tos_changeable+0x12>
     476:	bd0e      	pop	{r1, r2, r3, pc}
     478:	f847 6d04 	str.w	r6, [r7, #-4]!
     47c:	00ce      	lsls	r6, r1, #3
     47e:	f7ff ff73 	bl	368 <get_free_register>
     482:	431e      	orrs	r6, r3
     484:	6103      	str	r3, [r0, #16]
     486:	f002 fe61 	bl	314c <Code_787>
     48a:	bd0e      	pop	{r1, r2, r3, pc}

0000048c <Dictionary_53>:
     48c:	000005d0 	ldrdeq	r0, [r0], -r0	; <UNPREDICTABLE>
     490:	61090000 	mrsvs	r0, (UNDEF: 9)
     494:	636f6c6c 	cmnvs	pc, #27648	; 0x6c00
     498:	726f7461 	rsbvc	r7, pc, #1627389952	; 0x61000000

0000049c <Code_53>:
     49c:	b50f      	push	{r0, r1, r2, r3, lr}
     49e:	0010      	movs	r0, r2
     4a0:	f002 fc49 	bl	2d36 <suchedefinitionsende>
     4a4:	0002      	movs	r2, r0
     4a6:	f847 6d04 	str.w	r6, [r7, #-4]!
     4aa:	8816      	ldrh	r6, [r2, #0]
     4ac:	0b09      	lsrs	r1, r1, #12
     4ae:	4841      	ldr	r0, [pc, #260]	; (5b4 <alloc_unkommutativ_ohneregister+0x5e>)
     4b0:	2903      	cmp	r1, #3
     4b2:	f000 8008 	beq.w	4c6 <alloc_kommutativ_ohneregister>
     4b6:	2904      	cmp	r1, #4
     4b8:	f000 804d 	beq.w	556 <alloc_unkommutativ_ohneregister>
     4bc:	cf40      	ldmia	r7!, {r6}
     4be:	3201      	adds	r2, #1
     4c0:	4790      	blx	r2
     4c2:	bd0f      	pop	{r0, r1, r2, r3, pc}

000004c4 <alloc_kommutativ>:
     4c4:	b50f      	push	{r0, r1, r2, r3, lr}

000004c6 <alloc_kommutativ_ohneregister>:
     4c6:	f7ff ff7d 	bl	3c4 <expect_two_elements>
     4ca:	6901      	ldr	r1, [r0, #16]
     4cc:	2906      	cmp	r1, #6
     4ce:	d101      	bne.n	4d4 <alloc_kommutativ_ohneregister+0xe>
     4d0:	f000 fcdf 	bl	e92 <swap_allocator>
     4d4:	6982      	ldr	r2, [r0, #24]
     4d6:	2a28      	cmp	r2, #40	; 0x28
     4d8:	d101      	bne.n	4de <alloc_kommutativ_ohneregister+0x18>
     4da:	f000 fcda 	bl	e92 <swap_allocator>
     4de:	6901      	ldr	r1, [r0, #16]
     4e0:	2928      	cmp	r1, #40	; 0x28
     4e2:	d117      	bne.n	514 <alloc_kommutativ_ohneregister+0x4e>
     4e4:	f847 6d04 	str.w	r6, [r7, #-4]!
     4e8:	6946      	ldr	r6, [r0, #20]
     4ea:	f002 fa25 	bl	2938 <Code_650>
     4ee:	cf02      	ldmia	r7!, {r1}
     4f0:	2e00      	cmp	r6, #0
     4f2:	cf40      	ldmia	r7!, {r6}
     4f4:	d00e      	beq.n	514 <alloc_kommutativ_ohneregister+0x4e>
     4f6:	f5b6 4f80 	cmp.w	r6, #16384	; 0x4000
     4fa:	d101      	bne.n	500 <alloc_kommutativ_ohneregister+0x3a>
     4fc:	4e2e      	ldr	r6, [pc, #184]	; (5b8 <alloc_unkommutativ_ohneregister+0x62>)
     4fe:	e017      	b.n	530 <m3_opcodieren>
     500:	4a2e      	ldr	r2, [pc, #184]	; (5bc <alloc_unkommutativ_ohneregister+0x66>)
     502:	4296      	cmp	r6, r2
     504:	d101      	bne.n	50a <alloc_kommutativ_ohneregister+0x44>
     506:	4e2e      	ldr	r6, [pc, #184]	; (5c0 <alloc_unkommutativ_ohneregister+0x6a>)
     508:	e012      	b.n	530 <m3_opcodieren>
     50a:	f5b6 4f86 	cmp.w	r6, #17152	; 0x4300
     50e:	d101      	bne.n	514 <alloc_kommutativ_ohneregister+0x4e>
     510:	4e2c      	ldr	r6, [pc, #176]	; (5c4 <alloc_unkommutativ_ohneregister+0x6e>)
     512:	e00d      	b.n	530 <m3_opcodieren>
     514:	f7ff ff96 	bl	444 <nos_change_tos_away_later>
     518:	f7ff ff72 	bl	400 <expect_tos_in_register>
     51c:	00c9      	lsls	r1, r1, #3
     51e:	6982      	ldr	r2, [r0, #24]
     520:	430e      	orrs	r6, r1
     522:	4316      	orrs	r6, r2
     524:	f002 fe12 	bl	314c <Code_787>
     528:	f7ff ff7c 	bl	424 <eliminiere_tos>
     52c:	bd0f      	pop	{r0, r1, r2, r3, pc}

0000052e <m3_opcodieren_anderswo>:
     52e:	b50f      	push	{r0, r1, r2, r3, lr}

00000530 <m3_opcodieren>:
     530:	430e      	orrs	r6, r1
     532:	6981      	ldr	r1, [r0, #24]
     534:	ea56 4601 	orrs.w	r6, r6, r1, lsl #16
     538:	f7ff ff74 	bl	424 <eliminiere_tos>
     53c:	f7ff ff72 	bl	424 <eliminiere_tos>
     540:	f7ff feae 	bl	2a0 <befreie_tos>
     544:	f7ff ff10 	bl	368 <get_free_register>
     548:	6103      	str	r3, [r0, #16]
     54a:	ea56 2603 	orrs.w	r6, r6, r3, lsl #8
     54e:	f002 fe25 	bl	319c <Code_796>
     552:	bd0f      	pop	{r0, r1, r2, r3, pc}

00000554 <alloc_unkommutativ>:
     554:	b50f      	push	{r0, r1, r2, r3, lr}

00000556 <alloc_unkommutativ_ohneregister>:
     556:	f7ff ff35 	bl	3c4 <expect_two_elements>
     55a:	6901      	ldr	r1, [r0, #16]
     55c:	2928      	cmp	r1, #40	; 0x28
     55e:	d10d      	bne.n	57c <alloc_unkommutativ_ohneregister+0x26>
     560:	f847 6d04 	str.w	r6, [r7, #-4]!
     564:	6946      	ldr	r6, [r0, #20]
     566:	f002 f9e7 	bl	2938 <Code_650>
     56a:	cf02      	ldmia	r7!, {r1}
     56c:	2e00      	cmp	r6, #0
     56e:	cf40      	ldmia	r7!, {r6}
     570:	d004      	beq.n	57c <alloc_unkommutativ_ohneregister+0x26>
     572:	4a15      	ldr	r2, [pc, #84]	; (5c8 <alloc_unkommutativ_ohneregister+0x72>)
     574:	4296      	cmp	r6, r2
     576:	d101      	bne.n	57c <alloc_unkommutativ_ohneregister+0x26>
     578:	4e14      	ldr	r6, [pc, #80]	; (5cc <alloc_unkommutativ_ohneregister+0x76>)
     57a:	e7d9      	b.n	530 <m3_opcodieren>
     57c:	f7ff ff62 	bl	444 <nos_change_tos_away_later>
     580:	f7ff ff3e 	bl	400 <expect_tos_in_register>
     584:	6982      	ldr	r2, [r0, #24]
     586:	2a28      	cmp	r2, #40	; 0x28
     588:	d10b      	bne.n	5a2 <alloc_unkommutativ_ohneregister+0x4c>
     58a:	f847 6d04 	str.w	r6, [r7, #-4]!
     58e:	69c6      	ldr	r6, [r0, #28]
     590:	f7ff feea 	bl	368 <get_free_register>
     594:	6183      	str	r3, [r0, #24]
     596:	f847 6d04 	str.w	r6, [r7, #-4]!
     59a:	001e      	movs	r6, r3
     59c:	001a      	movs	r2, r3
     59e:	f002 fa7f 	bl	2aa0 <Code_659>
     5a2:	00c9      	lsls	r1, r1, #3
     5a4:	430e      	orrs	r6, r1
     5a6:	4316      	orrs	r6, r2
     5a8:	f002 fdd0 	bl	314c <Code_787>
     5ac:	f7ff ff3a 	bl	424 <eliminiere_tos>
     5b0:	bd0f      	pop	{r0, r1, r2, r3, pc}
     5b2:	00280000 	eoreq	r0, r8, r0
     5b6:	00002000 	andeq	r2, r0, r0
     5ba:	4040f010 	submi	pc, r0, r0, lsl r0	; <UNPREDICTABLE>
     5be:	00000000 	andeq	r0, r0, r0
     5c2:	0000f090 	muleq	r0, r0, r0
     5c6:	4380f050 	orrmi	pc, r0, #80	; 0x50
     5ca:	00000000 	andeq	r0, r0, r0
     5ce:	0686f030 			; <UNDEFINED> instruction: 0x0686f030

000005d0 <Dictionary_63>:
     5d0:	00000686 	andeq	r0, r0, r6, lsl #13
     5d4:	74090000 	strvc	r0, [r9], #-0
     5d8:	75796469 	ldrbvc	r6, [r9, #-1129]!	; 0x469
     5dc:	61722d70 	cmnvs	r2, r0, ror sp

000005e0 <Code_63>:
     5e0:	b500      	push	{lr}
     5e2:	f000 f805 	bl	5f0 <tidyup_register_allocator_3os>
     5e6:	f000 f808 	bl	5fa <tidyup_register_allocator_nos>
     5ea:	f000 f80b 	bl	604 <tidyup_register_allocator_tos>
     5ee:	bd00      	pop	{pc}

000005f0 <tidyup_register_allocator_3os>:
     5f0:	b50f      	push	{r0, r1, r2, r3, lr}
     5f2:	4831      	ldr	r0, [pc, #196]	; (6b8 <Code_76+0x16>)
     5f4:	f7ff fe5e 	bl	2b4 <element_to_stack>
     5f8:	bd0f      	pop	{r0, r1, r2, r3, pc}

000005fa <tidyup_register_allocator_nos>:
     5fa:	b50f      	push	{r0, r1, r2, r3, lr}
     5fc:	482f      	ldr	r0, [pc, #188]	; (6bc <Code_76+0x1a>)
     5fe:	f7ff fe59 	bl	2b4 <element_to_stack>
     602:	bd0f      	pop	{r0, r1, r2, r3, pc}

00000604 <tidyup_register_allocator_tos>:
     604:	b50f      	push	{r0, r1, r2, r3, lr}
     606:	482e      	ldr	r0, [pc, #184]	; (6c0 <Code_76+0x1e>)
     608:	6901      	ldr	r1, [r0, #16]
     60a:	2206      	movs	r2, #6
     60c:	6102      	str	r2, [r0, #16]
     60e:	291e      	cmp	r1, #30
     610:	d106      	bne.n	620 <tidyup_register_allocator_tos+0x1c>
     612:	f847 6d04 	str.w	r6, [r7, #-4]!
     616:	f64c 7640 	movw	r6, #53056	; 0xcf40
     61a:	f002 fd97 	bl	314c <Code_787>
     61e:	e02f      	b.n	680 <tidyup_finish>
     620:	2928      	cmp	r1, #40	; 0x28
     622:	d123      	bne.n	66c <tidyup_register_allocator_tos+0x68>
     624:	6943      	ldr	r3, [r0, #20]
     626:	6801      	ldr	r1, [r0, #0]
     628:	291e      	cmp	r1, #30
     62a:	d009      	beq.n	640 <tidyup_register_allocator_tos+0x3c>
     62c:	6841      	ldr	r1, [r0, #4]
     62e:	428b      	cmp	r3, r1
     630:	d106      	bne.n	640 <tidyup_register_allocator_tos+0x3c>
     632:	f847 6d04 	str.w	r6, [r7, #-4]!
     636:	f244 6606 	movw	r6, #17926	; 0x4606
     63a:	f002 fd87 	bl	314c <Code_787>
     63e:	e01f      	b.n	680 <tidyup_finish>
     640:	6881      	ldr	r1, [r0, #8]
     642:	291e      	cmp	r1, #30
     644:	d009      	beq.n	65a <tidyup_register_allocator_tos+0x56>
     646:	68c1      	ldr	r1, [r0, #12]
     648:	428b      	cmp	r3, r1
     64a:	d106      	bne.n	65a <tidyup_register_allocator_tos+0x56>
     64c:	f847 6d04 	str.w	r6, [r7, #-4]!
     650:	f244 660e 	movw	r6, #17934	; 0x460e
     654:	f002 fd7a 	bl	314c <Code_787>
     658:	e012      	b.n	680 <tidyup_finish>
     65a:	f847 6d04 	str.w	r6, [r7, #-4]!
     65e:	001e      	movs	r6, r3
     660:	f847 6d04 	str.w	r6, [r7, #-4]!
     664:	2606      	movs	r6, #6
     666:	f002 fa1b 	bl	2aa0 <Code_659>
     66a:	e009      	b.n	680 <tidyup_finish>
     66c:	2906      	cmp	r1, #6
     66e:	d007      	beq.n	680 <tidyup_finish>
     670:	f847 6d04 	str.w	r6, [r7, #-4]!
     674:	f244 6606 	movw	r6, #17926	; 0x4606
     678:	00c9      	lsls	r1, r1, #3
     67a:	430e      	orrs	r6, r1
     67c:	f002 fd66 	bl	314c <Code_787>

00000680 <tidyup_finish>:
     680:	f000 f80f 	bl	6a2 <Code_76>
     684:	bd0f      	pop	{r0, r1, r2, r3, pc}

00000686 <Dictionary_76>:
     686:	000006c4 	andeq	r0, r0, r4, asr #13
     68a:	69150000 	ldmdbvs	r5, {}	; <UNPREDICTABLE>
     68e:	7274696e 	rsbsvc	r6, r4, #1802240	; 0x1b8000
     692:	73696765 	cmnvc	r9, #26476544	; 0x1940000
     696:	61726574 	cmnvs	r2, r4, ror r5
     69a:	636f6c6c 	cmnvs	pc, #27648	; 0x6c00
     69e:	726f7461 	rsbvc	r7, pc, #1627389952	; 0x61000000

000006a2 <Code_76>:
     6a2:	4807      	ldr	r0, [pc, #28]	; (6c0 <Code_76+0x1e>)
     6a4:	211e      	movs	r1, #30
     6a6:	6001      	str	r1, [r0, #0]
     6a8:	6081      	str	r1, [r0, #8]
     6aa:	6201      	str	r1, [r0, #32]
     6ac:	6181      	str	r1, [r0, #24]
     6ae:	2106      	movs	r1, #6
     6b0:	6101      	str	r1, [r0, #16]
     6b2:	2100      	movs	r1, #0
     6b4:	6281      	str	r1, [r0, #40]	; 0x28
     6b6:	4770      	bx	lr
     6b8:	20000048 	andcs	r0, r0, r8, asr #32
     6bc:	20000040 	andcs	r0, r0, r0, asr #32
     6c0:	20000028 	andcs	r0, r0, r8, lsr #32

000006c4 <Dictionary_77>:
     6c4:	000006e8 	andeq	r0, r0, r8, ror #13
     6c8:	32040242 	andcc	r0, r4, #536870916	; 0x20000004
     6cc:	00707564 	rsbseq	r7, r0, r4, ror #10

000006d0 <Code_77>:
     6d0:	6838      	ldr	r0, [r7, #0]
     6d2:	f847 6d04 	str.w	r6, [r7, #-4]!
     6d6:	3f04      	subs	r7, #4
     6d8:	6038      	str	r0, [r7, #0]
     6da:	4770      	bx	lr
     6dc:	b500      	push	{lr}
     6de:	f000 fc05 	bl	eec <over_allocator>
     6e2:	f000 fc03 	bl	eec <over_allocator>
     6e6:	bd00      	pop	{pc}

000006e8 <Dictionary_79>:
     6e8:	00000706 	andeq	r0, r0, r6, lsl #14
     6ec:	32050262 	andcc	r0, r5, #536870918	; 0x20000006
     6f0:	706f7264 	rsbvc	r7, pc, r4, ror #4

000006f4 <Code_79>:
     6f4:	3704      	adds	r7, #4
     6f6:	cf40      	ldmia	r7!, {r6}
     6f8:	4770      	bx	lr
     6fa:	b500      	push	{lr}
     6fc:	f000 fba6 	bl	e4c <drop_allocator>
     700:	f000 fba4 	bl	e4c <drop_allocator>
     704:	bd00      	pop	{pc}

00000706 <Dictionary_81>:
     706:	00000724 	andeq	r0, r0, r4, lsr #14
     70a:	32050044 	andcc	r0, r5, #68	; 0x44
     70e:	70617773 	rsbvc	r7, r1, r3, ror r7

00000712 <Code_81>:
     712:	cf07      	ldmia	r7!, {r0, r1, r2}
     714:	3f04      	subs	r7, #4
     716:	6038      	str	r0, [r7, #0]
     718:	f847 6d04 	str.w	r6, [r7, #-4]!
     71c:	3f04      	subs	r7, #4
     71e:	603a      	str	r2, [r7, #0]
     720:	000e      	movs	r6, r1
     722:	4770      	bx	lr

00000724 <Dictionary_83>:
     724:	00000738 	andeq	r0, r0, r8, lsr r7
     728:	32040062 	andcc	r0, r4, #98	; 0x62
     72c:	0070696e 	rsbseq	r6, r0, lr, ror #18

00000730 <Code_83>:
     730:	cf07      	ldmia	r7!, {r0, r1, r2}
     732:	3f04      	subs	r7, #4
     734:	6038      	str	r0, [r7, #0]
     736:	4770      	bx	lr

00000738 <Dictionary_84>:
     738:	00000752 	andeq	r0, r0, r2, asr r7
     73c:	32050044 	andcc	r0, r5, #68	; 0x44
     740:	7265766f 	rsbvc	r7, r5, #116391936	; 0x6f00000

00000744 <Code_84>:
     744:	68b8      	ldr	r0, [r7, #8]
     746:	f847 6d04 	str.w	r6, [r7, #-4]!
     74a:	3f04      	subs	r7, #4
     74c:	6038      	str	r0, [r7, #0]
     74e:	68fe      	ldr	r6, [r7, #12]
     750:	4770      	bx	lr

00000752 <Dictionary_86>:
     752:	00000776 	andeq	r0, r0, r6, ror r7
     756:	32050044 	andcc	r0, r5, #68	; 0x44
     75a:	6b637574 	blvs	18ddd32 <BIT24+0x8ddd32>

0000075e <Code_86>:
     75e:	cf07      	ldmia	r7!, {r0, r1, r2}
     760:	3f04      	subs	r7, #4
     762:	6038      	str	r0, [r7, #0]
     764:	f847 6d04 	str.w	r6, [r7, #-4]!
     768:	3f04      	subs	r7, #4
     76a:	603a      	str	r2, [r7, #0]
     76c:	3f04      	subs	r7, #4
     76e:	6039      	str	r1, [r7, #0]
     770:	3f04      	subs	r7, #4
     772:	6038      	str	r0, [r7, #0]
     774:	4770      	bx	lr

00000776 <Dictionary_88>:
     776:	00000798 	muleq	r0, r8, r7
     77a:	32040046 	andcc	r0, r4, #70	; 0x46
     77e:	00746f72 	rsbseq	r6, r4, r2, ror pc

00000782 <Code_88>:
     782:	6838      	ldr	r0, [r7, #0]
     784:	68b9      	ldr	r1, [r7, #8]
     786:	693a      	ldr	r2, [r7, #16]
     788:	60b8      	str	r0, [r7, #8]
     78a:	6139      	str	r1, [r7, #16]
     78c:	603a      	str	r2, [r7, #0]
     78e:	6879      	ldr	r1, [r7, #4]
     790:	607e      	str	r6, [r7, #4]
     792:	68fe      	ldr	r6, [r7, #12]
     794:	60f9      	str	r1, [r7, #12]
     796:	4770      	bx	lr

00000798 <Dictionary_89>:
     798:	000007ba 			; <UNDEFINED> instruction: 0x000007ba
     79c:	32050046 	andcc	r0, r5, #70	; 0x46
     7a0:	746f722d 	strbtvc	r7, [pc], #-557	; 7a8 <Code_89+0x4>

000007a4 <Code_89>:
     7a4:	6838      	ldr	r0, [r7, #0]
     7a6:	68b9      	ldr	r1, [r7, #8]
     7a8:	693a      	ldr	r2, [r7, #16]
     7aa:	6138      	str	r0, [r7, #16]
     7ac:	6039      	str	r1, [r7, #0]
     7ae:	60ba      	str	r2, [r7, #8]
     7b0:	68f9      	ldr	r1, [r7, #12]
     7b2:	60fe      	str	r6, [r7, #12]
     7b4:	687e      	ldr	r6, [r7, #4]
     7b6:	6079      	str	r1, [r7, #4]
     7b8:	4770      	bx	lr

000007ba <Dictionary_90>:
     7ba:	000007de 	ldrdeq	r0, [r0], -lr
     7be:	32030220 	andcc	r0, r3, #2
     7c2:	cf01723e 	svcgt	0x0001723e

000007c4 <Code_90>:
     7c4:	cf01      	ldmia	r7!, {r0}
     7c6:	b401      	push	{r0}
     7c8:	b440      	push	{r6}
     7ca:	cf40      	ldmia	r7!, {r6}
     7cc:	4770      	bx	lr
     7ce:	b500      	push	{lr}
     7d0:	f000 fb5f 	bl	e92 <swap_allocator>
     7d4:	f000 fc01 	bl	fda <allocator_to_r>
     7d8:	f000 fbff 	bl	fda <allocator_to_r>
     7dc:	bd00      	pop	{pc}

000007de <Dictionary_91>:
     7de:	00000806 	andeq	r0, r0, r6, lsl #16
     7e2:	32030220 	andcc	r0, r3, #2
     7e6:	f8473e72 			; <UNDEFINED> instruction: 0xf8473e72

000007e8 <Code_91>:
     7e8:	f847 6d04 	str.w	r6, [r7, #-4]!
     7ec:	bc40      	pop	{r6}
     7ee:	bc01      	pop	{r0}
     7f0:	3f04      	subs	r7, #4
     7f2:	6038      	str	r0, [r7, #0]
     7f4:	4770      	bx	lr
     7f6:	b500      	push	{lr}
     7f8:	f000 fc09 	bl	100e <allocator_r_from>
     7fc:	f000 fc07 	bl	100e <allocator_r_from>
     800:	f000 fb47 	bl	e92 <swap_allocator>
     804:	bd00      	pop	{pc}

00000806 <Dictionary_93>:
     806:	00000832 	andeq	r0, r0, r2, lsr r8
     80a:	32030220 	andcc	r0, r3, #2
     80e:	f8474072 			; <UNDEFINED> instruction: 0xf8474072

00000810 <Code_93>:
     810:	f847 6d04 	str.w	r6, [r7, #-4]!
     814:	9e01      	ldr	r6, [sp, #4]
     816:	f847 6d04 	str.w	r6, [r7, #-4]!
     81a:	9e00      	ldr	r6, [sp, #0]
     81c:	4770      	bx	lr
     81e:	b500      	push	{lr}
     820:	f847 6d04 	str.w	r6, [r7, #-4]!
     824:	f649 0601 	movw	r6, #38913	; 0x9801
     828:	f003 f99f 	bl	3b6a <loop_j_allocator>
     82c:	f003 f999 	bl	3b62 <rfetch_allocator>
     830:	bd00      	pop	{pc}

00000832 <Dictionary_98>:
     832:	00000854 	andeq	r0, r0, r4, asr r8
     836:	32060220 	andcc	r0, r6, #2
     83a:	6f726472 	svcvs	0x00726472
     83e:	b0020070 	andlt	r0, r2, r0, ror r0

00000840 <Code_98>:
     840:	b002      	add	sp, #8
     842:	4770      	bx	lr
     844:	b500      	push	{lr}
     846:	f847 6d04 	str.w	r6, [r7, #-4]!
     84a:	f24b 0602 	movw	r6, #45058	; 0xb002
     84e:	f002 fc7d 	bl	314c <Code_787>
     852:	bd00      	pop	{pc}

00000854 <Dictionary_101>:
     854:	0000086c 	andeq	r0, r0, ip, ror #16
     858:	64030042 	strvs	r0, [r3], #-66	; 0x42
     85c:	68382f32 	ldmdavs	r8!, {r1, r4, r5, r8, r9, sl, fp, sp}

0000085e <Code_101>:
     85e:	6838      	ldr	r0, [r7, #0]
     860:	07f1      	lsls	r1, r6, #31
     862:	1076      	asrs	r6, r6, #1
     864:	0840      	lsrs	r0, r0, #1
     866:	4308      	orrs	r0, r1
     868:	6038      	str	r0, [r7, #0]
     86a:	4770      	bx	lr

0000086c <Dictionary_102>:
     86c:	00000880 	andeq	r0, r0, r0, lsl #17
     870:	64030062 	strvs	r0, [r3], #-98	; 0x62
     874:	68382a32 	ldmdavs	r8!, {r1, r4, r5, r9, fp, sp}

00000876 <Code_102>:
     876:	6838      	ldr	r0, [r7, #0]
     878:	1800      	adds	r0, r0, r0
     87a:	4176      	adcs	r6, r6
     87c:	6038      	str	r0, [r7, #0]
     87e:	4770      	bx	lr

00000880 <Dictionary_103>:
     880:	0000089a 	muleq	r0, sl, r8
     884:	64040042 	strvs	r0, [r4], #-66	; 0x42
     888:	00726873 	rsbseq	r6, r2, r3, ror r8

0000088c <Code_103>:
     88c:	6838      	ldr	r0, [r7, #0]
     88e:	07f1      	lsls	r1, r6, #31
     890:	0876      	lsrs	r6, r6, #1
     892:	0840      	lsrs	r0, r0, #1
     894:	4308      	orrs	r0, r1
     896:	6038      	str	r0, [r7, #0]
     898:	4770      	bx	lr

0000089a <Dictionary_104>:
     89a:	000008b0 			; <UNDEFINED> instruction: 0x000008b0
     89e:	64040062 	strvs	r0, [r4], #-98	; 0x62
     8a2:	006c6873 	rsbeq	r6, ip, r3, ror r8

000008a6 <Code_104>:
     8a6:	6838      	ldr	r0, [r7, #0]
     8a8:	1800      	adds	r0, r0, r0
     8aa:	4176      	adcs	r6, r6
     8ac:	6038      	str	r0, [r7, #0]
     8ae:	4770      	bx	lr

000008b0 <Dictionary_105>:
     8b0:	000008c2 	andeq	r0, r0, r2, asr #17
     8b4:	64040042 	strvs	r0, [r4], #-66	; 0x42
     8b8:	00736261 	rsbseq	r6, r3, r1, ror #4

000008bc <Code_105>:
     8bc:	2e00      	cmp	r6, #0
     8be:	d407      	bmi.n	8d0 <Code_106>
     8c0:	4770      	bx	lr

000008c2 <Dictionary_106>:
     8c2:	000008e0 	andeq	r0, r0, r0, ror #17
     8c6:	64070042 	strvs	r0, [r7], #-66	; 0x42
     8ca:	6167656e 	cmnvs	r7, lr, ror #10
     8ce:	68386574 	ldmdavs	r8!, {r2, r4, r5, r6, r8, sl, sp, lr}

000008d0 <Code_106>:
     8d0:	6838      	ldr	r0, [r7, #0]
     8d2:	2100      	movs	r1, #0
     8d4:	43c0      	mvns	r0, r0
     8d6:	43f6      	mvns	r6, r6
     8d8:	3001      	adds	r0, #1
     8da:	414e      	adcs	r6, r1
     8dc:	6038      	str	r0, [r7, #0]
     8de:	4770      	bx	lr

000008e0 <Dictionary_107>:
     8e0:	000008f8 	strdeq	r0, [r0], -r8
     8e4:	64020064 	strvs	r0, [r2], #-100	; 0x64
     8e8:	cf07002d 	svcgt	0x0007002d

000008ea <Code_107>:
     8ea:	cf07      	ldmia	r7!, {r0, r1, r2}
     8ec:	1a12      	subs	r2, r2, r0
     8ee:	41b1      	sbcs	r1, r6
     8f0:	000e      	movs	r6, r1
     8f2:	3f04      	subs	r7, #4
     8f4:	603a      	str	r2, [r7, #0]
     8f6:	4770      	bx	lr

000008f8 <Dictionary_108>:
     8f8:	0000090e 	andeq	r0, r0, lr, lsl #18
     8fc:	64020064 	strvs	r0, [r2], #-100	; 0x64
     900:	cf07002b 	svcgt	0x0007002b

00000902 <Code_108>:
     902:	cf07      	ldmia	r7!, {r0, r1, r2}
     904:	1812      	adds	r2, r2, r0
     906:	414e      	adcs	r6, r1
     908:	3f04      	subs	r7, #4
     90a:	603a      	str	r2, [r7, #0]
     90c:	4770      	bx	lr

0000090e <Dictionary_109>:
     90e:	0000092c 	andeq	r0, r0, ip, lsr #18
     912:	73030261 	movwvc	r0, #12897	; 0x3261
     916:	f847643e 			; <UNDEFINED> instruction: 0xf847643e

00000918 <Code_109>:
     918:	f847 6d04 	str.w	r6, [r7, #-4]!
     91c:	17f6      	asrs	r6, r6, #31
     91e:	4770      	bx	lr
     920:	b500      	push	{lr}
     922:	f000 fa81 	bl	e28 <dup_allocator>
     926:	f000 fce9 	bl	12fc <alloc_nullkleiner>
     92a:	bd00      	pop	{pc}

0000092c <Dictionary_111>:
     92c:	000009a4 	andeq	r0, r0, r4, lsr #19
     930:	75030262 	strvc	r0, [r3, #-610]	; 0x262
     934:	68382a6d 	ldmdavs	r8!, {r0, r2, r3, r5, r6, r9, fp, sp}

00000936 <Code_111>:
     936:	6838      	ldr	r0, [r7, #0]
     938:	fba0 0606 	umull	r0, r6, r0, r6
     93c:	6038      	str	r0, [r7, #0]
     93e:	4770      	bx	lr
     940:	f847 6d04 	str.w	r6, [r7, #-4]!
     944:	f8df 6788 	ldr.w	r6, [pc, #1928]	; 10d0 <Code_227+0x1c>

00000948 <alloc_multiplikation_m3>:
     948:	b500      	push	{lr}
     94a:	f7ff fd3b 	bl	3c4 <expect_two_elements>
     94e:	f7ff fd57 	bl	400 <expect_tos_in_register>
     952:	6982      	ldr	r2, [r0, #24]
     954:	2a28      	cmp	r2, #40	; 0x28
     956:	d10b      	bne.n	970 <alloc_multiplikation_m3+0x28>
     958:	f847 6d04 	str.w	r6, [r7, #-4]!
     95c:	69c6      	ldr	r6, [r0, #28]
     95e:	f7ff fd03 	bl	368 <get_free_register>
     962:	6183      	str	r3, [r0, #24]
     964:	f847 6d04 	str.w	r6, [r7, #-4]!
     968:	001e      	movs	r6, r3
     96a:	001a      	movs	r2, r3
     96c:	f002 f898 	bl	2aa0 <Code_659>
     970:	6901      	ldr	r1, [r0, #16]
     972:	430e      	orrs	r6, r1
     974:	6981      	ldr	r1, [r0, #24]
     976:	ea56 4601 	orrs.w	r6, r6, r1, lsl #16
     97a:	f7ff fd53 	bl	424 <eliminiere_tos>
     97e:	f7ff fd51 	bl	424 <eliminiere_tos>
     982:	f7ff fc8d 	bl	2a0 <befreie_tos>
     986:	f7ff fcef 	bl	368 <get_free_register>
     98a:	6103      	str	r3, [r0, #16]
     98c:	ea56 3603 	orrs.w	r6, r6, r3, lsl #12
     990:	f7ff fc86 	bl	2a0 <befreie_tos>
     994:	f7ff fce8 	bl	368 <get_free_register>
     998:	6103      	str	r3, [r0, #16]
     99a:	ea56 2603 	orrs.w	r6, r6, r3, lsl #8
     99e:	f002 fbfd 	bl	319c <Code_796>
     9a2:	bd00      	pop	{pc}

000009a4 <Dictionary_116>:
     9a4:	000009c2 	andeq	r0, r0, r2, asr #19
     9a8:	6d020262 	sfmvs	f0, 4, [r2, #-392]	; 0xfffffe78
     9ac:	6838002a 	ldmdavs	r8!, {r1, r3, r5}

000009ae <Code_116>:
     9ae:	6838      	ldr	r0, [r7, #0]
     9b0:	fb80 0606 	smull	r0, r6, r0, r6
     9b4:	6038      	str	r0, [r7, #0]
     9b6:	4770      	bx	lr
     9b8:	f847 6d04 	str.w	r6, [r7, #-4]!
     9bc:	f8df 6714 	ldr.w	r6, [pc, #1812]	; 10d4 <Code_227+0x20>
     9c0:	e7c2      	b.n	948 <alloc_multiplikation_m3>

000009c2 <Dictionary_118>:
     9c2:	00000a00 	andeq	r0, r0, r0, lsl #20
     9c6:	75030044 	strvc	r0, [r3, #-68]	; 0x44
     9ca:	cf072a64 	svcgt	0x00072a64

000009cc <Code_118>:
     9cc:	cf07      	ldmia	r7!, {r0, r1, r2}
     9ce:	4356      	muls	r6, r2
     9d0:	4341      	muls	r1, r0
     9d2:	1876      	adds	r6, r6, r1
     9d4:	0c01      	lsrs	r1, r0, #16
     9d6:	0c13      	lsrs	r3, r2, #16
     9d8:	4359      	muls	r1, r3
     9da:	1876      	adds	r6, r6, r1
     9dc:	0c01      	lsrs	r1, r0, #16
     9de:	b280      	uxth	r0, r0
     9e0:	b292      	uxth	r2, r2
     9e2:	4351      	muls	r1, r2
     9e4:	4343      	muls	r3, r0
     9e6:	4350      	muls	r0, r2
     9e8:	2200      	movs	r2, #0
     9ea:	18c9      	adds	r1, r1, r3
     9ec:	4152      	adcs	r2, r2
     9ee:	0412      	lsls	r2, r2, #16
     9f0:	18b6      	adds	r6, r6, r2
     9f2:	040a      	lsls	r2, r1, #16
     9f4:	0c09      	lsrs	r1, r1, #16
     9f6:	1880      	adds	r0, r0, r2
     9f8:	414e      	adcs	r6, r1
     9fa:	3f04      	subs	r7, #4
     9fc:	6038      	str	r0, [r7, #0]
     9fe:	4770      	bx	lr

00000a00 <Dictionary_119>:
     a00:	00000a92 	muleq	r0, r2, sl
     a04:	75040044 	strvc	r0, [r4, #-68]	; 0x44
     a08:	002a6d64 	eoreq	r6, sl, r4, ror #26

00000a0c <Code_119>:
     a0c:	b510      	push	{r4, lr}
     a0e:	2400      	movs	r4, #0
     a10:	f847 6d04 	str.w	r6, [r7, #-4]!
     a14:	687e      	ldr	r6, [r7, #4]
     a16:	f847 6d04 	str.w	r6, [r7, #-4]!
     a1a:	693e      	ldr	r6, [r7, #16]
     a1c:	f7ff ff8b 	bl	936 <Code_111>
     a20:	0031      	movs	r1, r6
     a22:	cf40      	ldmia	r7!, {r6}
     a24:	0030      	movs	r0, r6
     a26:	cf40      	ldmia	r7!, {r6}
     a28:	f847 6d04 	str.w	r6, [r7, #-4]!
     a2c:	683e      	ldr	r6, [r7, #0]
     a2e:	f847 6d04 	str.w	r6, [r7, #-4]!
     a32:	68fe      	ldr	r6, [r7, #12]
     a34:	b403      	push	{r0, r1}
     a36:	f7ff ff7e 	bl	936 <Code_111>
     a3a:	bc03      	pop	{r0, r1}
     a3c:	0033      	movs	r3, r6
     a3e:	cf40      	ldmia	r7!, {r6}
     a40:	0032      	movs	r2, r6
     a42:	cf40      	ldmia	r7!, {r6}
     a44:	f847 6d04 	str.w	r6, [r7, #-4]!
     a48:	683e      	ldr	r6, [r7, #0]
     a4a:	f847 6d04 	str.w	r6, [r7, #-4]!
     a4e:	693e      	ldr	r6, [r7, #16]
     a50:	b40f      	push	{r0, r1, r2, r3}
     a52:	f7ff ff70 	bl	936 <Code_111>
     a56:	bc0f      	pop	{r0, r1, r2, r3}
     a58:	1992      	adds	r2, r2, r6
     a5a:	4163      	adcs	r3, r4
     a5c:	cf40      	ldmia	r7!, {r6}
     a5e:	1989      	adds	r1, r1, r6
     a60:	4162      	adcs	r2, r4
     a62:	4163      	adcs	r3, r4
     a64:	cf40      	ldmia	r7!, {r6}
     a66:	f847 6d04 	str.w	r6, [r7, #-4]!
     a6a:	687e      	ldr	r6, [r7, #4]
     a6c:	f847 6d04 	str.w	r6, [r7, #-4]!
     a70:	68fe      	ldr	r6, [r7, #12]
     a72:	b40f      	push	{r0, r1, r2, r3}
     a74:	f7ff ff5f 	bl	936 <Code_111>
     a78:	bc0f      	pop	{r0, r1, r2, r3}
     a7a:	1992      	adds	r2, r2, r6
     a7c:	4163      	adcs	r3, r4
     a7e:	cf40      	ldmia	r7!, {r6}
     a80:	1989      	adds	r1, r1, r6
     a82:	4162      	adcs	r2, r4
     a84:	4163      	adcs	r3, r4
     a86:	cf40      	ldmia	r7!, {r6}
     a88:	001e      	movs	r6, r3
     a8a:	603a      	str	r2, [r7, #0]
     a8c:	6079      	str	r1, [r7, #4]
     a8e:	60b8      	str	r0, [r7, #8]
     a90:	bd10      	pop	{r4, pc}

00000a92 <Dictionary_136>:
     a92:	00000ab4 			; <UNDEFINED> instruction: 0x00000ab4
     a96:	2a020043 	bcs	80baa <BIT19+0xbaa>
     a9a:	b500002f 	strlt	r0, [r0, #-47]	; 0x2f

00000a9c <Code_136>:
     a9c:	b500      	push	{lr}
     a9e:	b440      	push	{r6}
     aa0:	cf40      	ldmia	r7!, {r6}
     aa2:	f7ff ff84 	bl	9ae <Code_116>
     aa6:	f847 6d04 	str.w	r6, [r7, #-4]!
     aaa:	bc40      	pop	{r6}
     aac:	f000 f84c 	bl	b48 <Code_159>
     ab0:	3704      	adds	r7, #4
     ab2:	bd00      	pop	{pc}

00000ab4 <Dictionary_141>:
     ab4:	00000ad6 	ldrdeq	r0, [r0], -r6
     ab8:	2a050043 	bcs	140bcc <BIT20+0x40bcc>
     abc:	646f6d2f 	strbtvs	r6, [pc], #-3375	; ac4 <Code_141+0x4>

00000ac0 <Code_141>:
     ac0:	b500      	push	{lr}
     ac2:	b440      	push	{r6}
     ac4:	cf40      	ldmia	r7!, {r6}
     ac6:	f7ff ff72 	bl	9ae <Code_116>
     aca:	f847 6d04 	str.w	r6, [r7, #-4]!
     ace:	bc40      	pop	{r6}
     ad0:	f000 f83a 	bl	b48 <Code_159>
     ad4:	bd00      	pop	{pc}

00000ad6 <Dictionary_145>:
     ad6:	00000af8 	strdeq	r0, [r0], -r8
     ada:	75030043 	strvc	r0, [r3, #-67]	; 0x43
     ade:	b5002f2a 	strlt	r2, [r0, #-3882]	; 0xf2a

00000ae0 <Code_145>:
     ae0:	b500      	push	{lr}
     ae2:	b440      	push	{r6}
     ae4:	cf40      	ldmia	r7!, {r6}
     ae6:	f7ff ff26 	bl	936 <Code_111>
     aea:	f847 6d04 	str.w	r6, [r7, #-4]!
     aee:	bc40      	pop	{r6}
     af0:	f000 f81b 	bl	b2a <Code_154>
     af4:	3704      	adds	r7, #4
     af6:	bd00      	pop	{pc}

00000af8 <Dictionary_150>:
     af8:	00000b1c 	andeq	r0, r0, ip, lsl fp
     afc:	75060043 	strvc	r0, [r6, #-67]	; 0x43
     b00:	6f6d2f2a 	svcvs	0x006d2f2a
     b04:	b5000064 	strlt	r0, [r0, #-100]	; 0x64

00000b06 <Code_150>:
     b06:	b500      	push	{lr}
     b08:	b440      	push	{r6}
     b0a:	cf40      	ldmia	r7!, {r6}
     b0c:	f7ff ff13 	bl	936 <Code_111>
     b10:	f847 6d04 	str.w	r6, [r7, #-4]!
     b14:	bc40      	pop	{r6}
     b16:	f000 f808 	bl	b2a <Code_154>
     b1a:	bd00      	pop	{pc}

00000b1c <Dictionary_154>:
     b1c:	00000b3c 	andeq	r0, r0, ip, lsr fp
     b20:	75060043 	strvc	r0, [r6, #-67]	; 0x43
     b24:	6f6d2f6d 	svcvs	0x006d2f6d
     b28:	b5000064 	strlt	r0, [r0, #-100]	; 0x64

00000b2a <Code_154>:
     b2a:	b500      	push	{lr}
     b2c:	f847 6d04 	str.w	r6, [r7, #-4]!
     b30:	2600      	movs	r6, #0
     b32:	f000 f819 	bl	b68 <Code_163>
     b36:	cf40      	ldmia	r7!, {r6}
     b38:	3704      	adds	r7, #4
     b3a:	bd00      	pop	{pc}

00000b3c <Dictionary_159>:
     b3c:	00000b5a 	andeq	r0, r0, sl, asr fp
     b40:	6d050043 	stcvs	0, cr0, [r5, #-268]	; 0xfffffef4
     b44:	646f6d2f 	strbtvs	r6, [pc], #-3375	; b4c <Code_159+0x4>

00000b48 <Code_159>:
     b48:	b500      	push	{lr}
     b4a:	f847 6d04 	str.w	r6, [r7, #-4]!
     b4e:	17f6      	asrs	r6, r6, #31
     b50:	f000 f832 	bl	bb8 <Code_165>
     b54:	cf40      	ldmia	r7!, {r6}
     b56:	3704      	adds	r7, #4
     b58:	bd00      	pop	{pc}

00000b5a <Dictionary_163>:
     b5a:	00000bac 	andeq	r0, r0, ip, lsr #23
     b5e:	75060044 	strvc	r0, [r6, #-68]	; 0x44
     b62:	6f6d2f64 	svcvs	0x006d2f64
     b66:	b4300064 	ldrtlt	r0, [r0], #-100	; 0x64

00000b68 <Code_163>:
     b68:	b430      	push	{r4, r5}
     b6a:	2300      	movs	r3, #0
     b6c:	2200      	movs	r2, #0
     b6e:	6879      	ldr	r1, [r7, #4]
     b70:	68b8      	ldr	r0, [r7, #8]

00000b72 <ud_slash_mod_internal>:
     b72:	0035      	movs	r5, r6
     b74:	683c      	ldr	r4, [r7, #0]
     b76:	2640      	movs	r6, #64	; 0x40
     b78:	0040      	lsls	r0, r0, #1
     b7a:	4149      	adcs	r1, r1
     b7c:	4152      	adcs	r2, r2
     b7e:	415b      	adcs	r3, r3
     b80:	42ab      	cmp	r3, r5
     b82:	d802      	bhi.n	b8a <ud_slash_mod_internal+0x18>
     b84:	d304      	bcc.n	b90 <ud_slash_mod_internal+0x1e>
     b86:	42a2      	cmp	r2, r4
     b88:	d302      	bcc.n	b90 <ud_slash_mod_internal+0x1e>
     b8a:	1b12      	subs	r2, r2, r4
     b8c:	41ab      	sbcs	r3, r5
     b8e:	3001      	adds	r0, #1
     b90:	3e01      	subs	r6, #1
     b92:	d1f1      	bne.n	b78 <ud_slash_mod_internal+0x6>
     b94:	000e      	movs	r6, r1
     b96:	6038      	str	r0, [r7, #0]
     b98:	607b      	str	r3, [r7, #4]
     b9a:	60ba      	str	r2, [r7, #8]
     b9c:	bc30      	pop	{r4, r5}
     b9e:	4770      	bx	lr

00000ba0 <uf_slash_mod>:
     ba0:	b430      	push	{r4, r5}
     ba2:	2300      	movs	r3, #0
     ba4:	687a      	ldr	r2, [r7, #4]
     ba6:	68b9      	ldr	r1, [r7, #8]
     ba8:	2000      	movs	r0, #0
     baa:	e7e2      	b.n	b72 <ud_slash_mod_internal>

00000bac <Dictionary_165>:
     bac:	00000c22 	andeq	r0, r0, r2, lsr #24
     bb0:	64050044 	strvs	r0, [r5], #-68	; 0x44
     bb4:	646f6d2f 	strbtvs	r6, [pc], #-3375	; bbc <Code_165+0x4>

00000bb8 <Code_165>:
     bb8:	b500      	push	{lr}
     bba:	17f0      	asrs	r0, r6, #31
     bbc:	d019      	beq.n	bf2 <Code_165+0x3a>
     bbe:	f7ff fe87 	bl	8d0 <Code_106>
     bc2:	f7ff fda6 	bl	712 <Code_81>
     bc6:	17f0      	asrs	r0, r6, #31
     bc8:	d00c      	beq.n	be4 <Code_165+0x2c>
     bca:	f7ff fe81 	bl	8d0 <Code_106>
     bce:	f7ff fda0 	bl	712 <Code_81>
     bd2:	f7ff ffc9 	bl	b68 <Code_163>
     bd6:	f7ff fd9c 	bl	712 <Code_81>
     bda:	f7ff fe79 	bl	8d0 <Code_106>
     bde:	f7ff fd98 	bl	712 <Code_81>
     be2:	bd00      	pop	{pc}
     be4:	f7ff fd95 	bl	712 <Code_81>
     be8:	f7ff ffbe 	bl	b68 <Code_163>
     bec:	f7ff fe70 	bl	8d0 <Code_106>
     bf0:	bd00      	pop	{pc}
     bf2:	f7ff fd8e 	bl	712 <Code_81>
     bf6:	17f0      	asrs	r0, r6, #31
     bf8:	d00e      	beq.n	c18 <Code_165+0x60>
     bfa:	f7ff fe69 	bl	8d0 <Code_106>
     bfe:	f7ff fd88 	bl	712 <Code_81>
     c02:	f7ff ffb1 	bl	b68 <Code_163>
     c06:	f7ff fe63 	bl	8d0 <Code_106>
     c0a:	f7ff fd82 	bl	712 <Code_81>
     c0e:	f7ff fe5f 	bl	8d0 <Code_106>
     c12:	f7ff fd7e 	bl	712 <Code_81>
     c16:	bd00      	pop	{pc}
     c18:	f7ff fd7b 	bl	712 <Code_81>
     c1c:	f7ff ffa4 	bl	b68 <Code_163>
     c20:	bd00      	pop	{pc}

00000c22 <Dictionary_166>:
     c22:	00000c38 	andeq	r0, r0, r8, lsr ip
     c26:	64020044 	strvs	r0, [r2], #-68	; 0x44
     c2a:	b500002f 	strlt	r0, [r0, #-47]	; 0x2f

00000c2c <Code_166>:
     c2c:	b500      	push	{lr}
     c2e:	f7ff ffc3 	bl	bb8 <Code_165>
     c32:	f7ff fd7d 	bl	730 <Code_83>
     c36:	bd00      	pop	{pc}

00000c38 <Dictionary_167>:
     c38:	00000c80 	andeq	r0, r0, r0, lsl #25
     c3c:	66020044 	strvs	r0, [r2], -r4, asr #32
     c40:	b500002a 	strlt	r0, [r0, #-42]	; 0x2a

00000c42 <Code_167>:
     c42:	b500      	push	{lr}
     c44:	17f0      	asrs	r0, r6, #31
     c46:	d00d      	beq.n	c64 <Code_167+0x22>
     c48:	f7ff fe42 	bl	8d0 <Code_106>
     c4c:	f7ff fd61 	bl	712 <Code_81>
     c50:	17f0      	asrs	r0, r6, #31
     c52:	d00d      	beq.n	c70 <Code_167+0x2e>
     c54:	f7ff fe3c 	bl	8d0 <Code_106>
     c58:	f7ff fed8 	bl	a0c <Code_119>
     c5c:	cf40      	ldmia	r7!, {r6}
     c5e:	cf01      	ldmia	r7!, {r0}
     c60:	6038      	str	r0, [r7, #0]
     c62:	bd00      	pop	{pc}
     c64:	f7ff fd55 	bl	712 <Code_81>
     c68:	17f0      	asrs	r0, r6, #31
     c6a:	d0f5      	beq.n	c58 <Code_167+0x16>
     c6c:	f7ff fe30 	bl	8d0 <Code_106>
     c70:	f7ff fecc 	bl	a0c <Code_119>
     c74:	cf40      	ldmia	r7!, {r6}
     c76:	cf01      	ldmia	r7!, {r0}
     c78:	6038      	str	r0, [r7, #0]
     c7a:	f7ff fe29 	bl	8d0 <Code_106>
     c7e:	bd00      	pop	{pc}

00000c80 <Dictionary_170>:
     c80:	00000ccc 	andeq	r0, r0, ip, asr #25
     c84:	66020044 	strvs	r0, [r2], -r4, asr #32
     c88:	b500002f 	strlt	r0, [r0, #-47]	; 0x2f

00000c8a <Code_170>:
     c8a:	b500      	push	{lr}
     c8c:	17f0      	asrs	r0, r6, #31
     c8e:	d00e      	beq.n	cae <Code_170+0x24>
     c90:	f7ff fe1e 	bl	8d0 <Code_106>
     c94:	f7ff fd3d 	bl	712 <Code_81>
     c98:	17f0      	asrs	r0, r6, #31
     c9a:	d00e      	beq.n	cba <Code_170+0x30>
     c9c:	f7ff fe18 	bl	8d0 <Code_106>
     ca0:	f7ff fd37 	bl	712 <Code_81>
     ca4:	f7ff ff7c 	bl	ba0 <uf_slash_mod>
     ca8:	f7ff fd42 	bl	730 <Code_83>
     cac:	bd00      	pop	{pc}
     cae:	f7ff fd30 	bl	712 <Code_81>
     cb2:	17f0      	asrs	r0, r6, #31
     cb4:	d0f4      	beq.n	ca0 <Code_170+0x16>
     cb6:	f7ff fe0b 	bl	8d0 <Code_106>
     cba:	f7ff fd2a 	bl	712 <Code_81>
     cbe:	f7ff ff6f 	bl	ba0 <uf_slash_mod>
     cc2:	f7ff fe05 	bl	8d0 <Code_106>
     cc6:	f7ff fd33 	bl	730 <Code_83>
     cca:	bd00      	pop	{pc}

00000ccc <Dictionary_171>:
     ccc:	00000ce0 	andeq	r0, r0, r0, ror #25
     cd0:	32020020 	andcc	r0, r2, #32
     cd4:	cf060021 	svcgt	0x00060021

00000cd6 <Code_171>:
     cd6:	cf06      	ldmia	r7!, {r1, r2}
     cd8:	6031      	str	r1, [r6, #0]
     cda:	6072      	str	r2, [r6, #4]
     cdc:	cf40      	ldmia	r7!, {r6}
     cde:	4770      	bx	lr

00000ce0 <Dictionary_173>:
     ce0:	00000cf4 	strdeq	r0, [r0], -r4
     ce4:	32020020 	andcc	r0, r2, #32
     ce8:	3f040040 	svccc	0x00040040

00000cea <Code_173>:
     cea:	3f04      	subs	r7, #4
     cec:	6870      	ldr	r0, [r6, #4]
     cee:	6038      	str	r0, [r7, #0]
     cf0:	6836      	ldr	r6, [r6, #0]
     cf2:	4770      	bx	lr

00000cf4 <Dictionary_174>:
     cf4:	00000d14 	andeq	r0, r0, r4, lsl sp
     cf8:	64030044 	strvs	r0, [r3], #-68	; 0x44
     cfc:	cf073c75 	svcgt	0x00073c75

00000cfe <Code_174>:
     cfe:	cf07      	ldmia	r7!, {r0, r1, r2}
     d00:	428e      	cmp	r6, r1
     d02:	d804      	bhi.n	d0e <Code_174+0x10>
     d04:	d101      	bne.n	d0a <Code_174+0xc>
     d06:	4290      	cmp	r0, r2
     d08:	d801      	bhi.n	d0e <Code_174+0x10>
     d0a:	2600      	movs	r6, #0
     d0c:	4770      	bx	lr
     d0e:	2600      	movs	r6, #0
     d10:	43f6      	mvns	r6, r6
     d12:	4770      	bx	lr

00000d14 <Dictionary_175>:
     d14:	00000d34 	andeq	r0, r0, r4, lsr sp
     d18:	64030044 	strvs	r0, [r3], #-68	; 0x44
     d1c:	cf073e75 	svcgt	0x00073e75

00000d1e <Code_175>:
     d1e:	cf07      	ldmia	r7!, {r0, r1, r2}
     d20:	42b1      	cmp	r1, r6
     d22:	d804      	bhi.n	d2e <Code_175+0x10>
     d24:	d101      	bne.n	d2a <Code_175+0xc>
     d26:	4282      	cmp	r2, r0
     d28:	d801      	bhi.n	d2e <Code_175+0x10>
     d2a:	2600      	movs	r6, #0
     d2c:	4770      	bx	lr
     d2e:	2600      	movs	r6, #0
     d30:	43f6      	mvns	r6, r6
     d32:	4770      	bx	lr

00000d34 <Dictionary_176>:
     d34:	00000d54 	andeq	r0, r0, r4, asr sp
     d38:	64020044 	strvs	r0, [r2], #-68	; 0x44
     d3c:	cf07003c 	svcgt	0x0007003c

00000d3e <Code_176>:
     d3e:	cf07      	ldmia	r7!, {r0, r1, r2}
     d40:	428e      	cmp	r6, r1
     d42:	dc04      	bgt.n	d4e <Code_176+0x10>
     d44:	d101      	bne.n	d4a <Code_176+0xc>
     d46:	4290      	cmp	r0, r2
     d48:	dc01      	bgt.n	d4e <Code_176+0x10>
     d4a:	2600      	movs	r6, #0
     d4c:	4770      	bx	lr
     d4e:	2600      	movs	r6, #0
     d50:	43f6      	mvns	r6, r6
     d52:	4770      	bx	lr

00000d54 <Dictionary_177>:
     d54:	00000d74 	andeq	r0, r0, r4, ror sp
     d58:	64020044 	strvs	r0, [r2], #-68	; 0x44
     d5c:	cf07003e 	svcgt	0x0007003e

00000d5e <Code_177>:
     d5e:	cf07      	ldmia	r7!, {r0, r1, r2}
     d60:	42b1      	cmp	r1, r6
     d62:	dc04      	bgt.n	d6e <Code_177+0x10>
     d64:	d101      	bne.n	d6a <Code_177+0xc>
     d66:	4282      	cmp	r2, r0
     d68:	dc01      	bgt.n	d6e <Code_177+0x10>
     d6a:	2600      	movs	r6, #0
     d6c:	4770      	bx	lr
     d6e:	2600      	movs	r6, #0
     d70:	43f6      	mvns	r6, r6
     d72:	4770      	bx	lr

00000d74 <Dictionary_178>:
     d74:	00000d84 	andeq	r0, r0, r4, lsl #27
     d78:	64030062 	strvs	r0, [r3], #-98	; 0x62
     d7c:	37043c30 	smladxcc	r4, r0, ip, r3

00000d7e <Code_178>:
     d7e:	3704      	adds	r7, #4
     d80:	17f6      	asrs	r6, r6, #31
     d82:	4770      	bx	lr

00000d84 <Dictionary_179>:
     d84:	00000d9e 	muleq	r0, lr, sp
     d88:	64030042 	strvs	r0, [r3], #-66	; 0x42
     d8c:	cf013d30 	svcgt	0x00013d30

00000d8e <Code_179>:
     d8e:	cf01      	ldmia	r7!, {r0}
     d90:	2800      	cmp	r0, #0
     d92:	d001      	beq.n	d98 <Code_179+0xa>
     d94:	2600      	movs	r6, #0
     d96:	4770      	bx	lr
     d98:	3e01      	subs	r6, #1
     d9a:	41b6      	sbcs	r6, r6
     d9c:	4770      	bx	lr

00000d9e <Dictionary_180>:
     d9e:	00000db8 			; <UNDEFINED> instruction: 0x00000db8
     da2:	64030044 	strvs	r0, [r3], #-68	; 0x44
     da6:	cf073e3c 	svcgt	0x00073e3c

00000da8 <Code_180>:
     da8:	cf07      	ldmia	r7!, {r0, r1, r2}
     daa:	4290      	cmp	r0, r2
     dac:	d101      	bne.n	db2 <Code_180+0xa>
     dae:	1a76      	subs	r6, r6, r1
     db0:	d001      	beq.n	db6 <Code_180+0xe>
     db2:	2600      	movs	r6, #0
     db4:	43f6      	mvns	r6, r6
     db6:	4770      	bx	lr

00000db8 <Dictionary_181>:
     db8:	00000dd4 	ldrdeq	r0, [r0], -r4
     dbc:	64020044 	strvs	r0, [r2], #-68	; 0x44
     dc0:	cf07003d 	svcgt	0x0007003d

00000dc2 <Code_181>:
     dc2:	cf07      	ldmia	r7!, {r0, r1, r2}
     dc4:	4290      	cmp	r0, r2
     dc6:	d001      	beq.n	dcc <Code_181+0xa>
     dc8:	2600      	movs	r6, #0
     dca:	4770      	bx	lr
     dcc:	1a76      	subs	r6, r6, r1
     dce:	3e01      	subs	r6, #1
     dd0:	41b6      	sbcs	r6, r6
     dd2:	4770      	bx	lr

00000dd4 <Dictionary_182>:
     dd4:	00000de6 	andeq	r0, r0, r6, ror #27
     dd8:	73030020 	movwvc	r0, #12320	; 0x3020
     ddc:	f8474070 			; <UNDEFINED> instruction: 0xf8474070

00000dde <Code_182>:
     dde:	f847 6d04 	str.w	r6, [r7, #-4]!
     de2:	003e      	movs	r6, r7
     de4:	4770      	bx	lr

00000de6 <Dictionary_184>:
     de6:	00000df6 	strdeq	r0, [r0], -r6
     dea:	73030020 	movwvc	r0, #12320	; 0x3020
     dee:	00372170 	eorseq	r2, r7, r0, ror r1

00000df0 <Code_184>:
     df0:	0037      	movs	r7, r6
     df2:	cf40      	ldmia	r7!, {r6}
     df4:	4770      	bx	lr

00000df6 <Dictionary_185>:
     df6:	00000e08 	andeq	r0, r0, r8, lsl #28
     dfa:	72030020 	andvc	r0, r3, #32
     dfe:	f8474070 			; <UNDEFINED> instruction: 0xf8474070

00000e00 <Code_185>:
     e00:	f847 6d04 	str.w	r6, [r7, #-4]!
     e04:	466e      	mov	r6, sp
     e06:	4770      	bx	lr

00000e08 <Dictionary_187>:
     e08:	00000e18 	andeq	r0, r0, r8, lsl lr
     e0c:	72030020 	andvc	r0, r3, #32
     e10:	46b52170 			; <UNDEFINED> instruction: 0x46b52170

00000e12 <Code_187>:
     e12:	46b5      	mov	sp, r6
     e14:	cf40      	ldmia	r7!, {r6}
     e16:	4770      	bx	lr

00000e18 <Dictionary_188>:
     e18:	00000e3c 	andeq	r0, r0, ip, lsr lr
     e1c:	64030261 	strvs	r0, [r3], #-609	; 0x261
     e20:	f8477075 			; <UNDEFINED> instruction: 0xf8477075

00000e22 <Code_188>:
     e22:	f847 6d04 	str.w	r6, [r7, #-4]!
     e26:	4770      	bx	lr

00000e28 <dup_allocator>:
     e28:	b506      	push	{r1, r2, lr}
     e2a:	f7ff fac2 	bl	3b2 <expect_one_element>
     e2e:	6901      	ldr	r1, [r0, #16]
     e30:	6942      	ldr	r2, [r0, #20]
     e32:	f7ff fa35 	bl	2a0 <befreie_tos>
     e36:	6101      	str	r1, [r0, #16]
     e38:	6142      	str	r2, [r0, #20]
     e3a:	bd06      	pop	{r1, r2, pc}

00000e3c <Dictionary_191>:
     e3c:	00000e68 	andeq	r0, r0, r8, ror #28
     e40:	64040261 	strvs	r0, [r4], #-609	; 0x261
     e44:	00706f72 	rsbseq	r6, r0, r2, ror pc

00000e48 <Code_191>:
     e48:	cf40      	ldmia	r7!, {r6}
     e4a:	4770      	bx	lr

00000e4c <drop_allocator>:
     e4c:	b500      	push	{lr}
     e4e:	6901      	ldr	r1, [r0, #16]
     e50:	291e      	cmp	r1, #30
     e52:	d106      	bne.n	e62 <drop_allocator+0x16>
     e54:	f847 6d04 	str.w	r6, [r7, #-4]!
     e58:	f243 7604 	movw	r6, #14084	; 0x3704
     e5c:	f002 f976 	bl	314c <Code_787>
     e60:	bd00      	pop	{pc}
     e62:	f7ff fadf 	bl	424 <eliminiere_tos>
     e66:	bd00      	pop	{pc}

00000e68 <Dictionary_195>:
     e68:	00000e7e 	andeq	r0, r0, lr, ror lr
     e6c:	3f040061 	svccc	0x00040061
     e70:	00707564 	rsbseq	r7, r0, r4, ror #10

00000e74 <Code_195>:
     e74:	2e00      	cmp	r6, #0
     e76:	d001      	beq.n	e7c <Code_195+0x8>
     e78:	f847 6d04 	str.w	r6, [r7, #-4]!
     e7c:	4770      	bx	lr

00000e7e <Dictionary_197>:
     e7e:	00000eaa 	andeq	r0, r0, sl, lsr #29
     e82:	73040262 	movwvc	r0, #16994	; 0x4262
     e86:	00706177 	rsbseq	r6, r0, r7, ror r1

00000e8a <Code_197>:
     e8a:	6839      	ldr	r1, [r7, #0]
     e8c:	603e      	str	r6, [r7, #0]
     e8e:	000e      	movs	r6, r1
     e90:	4770      	bx	lr

00000e92 <swap_allocator>:
     e92:	b50c      	push	{r2, r3, lr}
     e94:	f7ff fa96 	bl	3c4 <expect_two_elements>
     e98:	6902      	ldr	r2, [r0, #16]
     e9a:	6983      	ldr	r3, [r0, #24]
     e9c:	6103      	str	r3, [r0, #16]
     e9e:	6182      	str	r2, [r0, #24]
     ea0:	6942      	ldr	r2, [r0, #20]
     ea2:	69c3      	ldr	r3, [r0, #28]
     ea4:	6143      	str	r3, [r0, #20]
     ea6:	61c2      	str	r2, [r0, #28]
     ea8:	bd0c      	pop	{r2, r3, pc}

00000eaa <Dictionary_198>:
     eaa:	00000ed8 	ldrdeq	r0, [r0], -r8
     eae:	6e030262 	cdpvs	2, 0, cr0, cr3, cr2, {3}
     eb2:	37047069 	strcc	r7, [r4, -r9, rrx]

00000eb4 <Code_198>:
     eb4:	3704      	adds	r7, #4
     eb6:	4770      	bx	lr
     eb8:	b500      	push	{lr}
     eba:	f7ff fa7a 	bl	3b2 <expect_one_element>
     ebe:	6981      	ldr	r1, [r0, #24]
     ec0:	291e      	cmp	r1, #30
     ec2:	d002      	beq.n	eca <Code_198+0x16>
     ec4:	f7ff fab5 	bl	432 <eliminiere_nos>
     ec8:	bd00      	pop	{pc}
     eca:	f847 6d04 	str.w	r6, [r7, #-4]!
     ece:	f243 7604 	movw	r6, #14084	; 0x3704
     ed2:	f002 f93b 	bl	314c <Code_787>
     ed6:	bd00      	pop	{pc}

00000ed8 <Dictionary_202>:
     ed8:	00000f00 	andeq	r0, r0, r0, lsl #30
     edc:	6f040262 	svcvs	0x00040262
     ee0:	00726576 	rsbseq	r6, r2, r6, ror r5

00000ee4 <Code_202>:
     ee4:	f847 6d04 	str.w	r6, [r7, #-4]!
     ee8:	687e      	ldr	r6, [r7, #4]
     eea:	4770      	bx	lr

00000eec <over_allocator>:
     eec:	b500      	push	{lr}
     eee:	f7ff fa69 	bl	3c4 <expect_two_elements>
     ef2:	6981      	ldr	r1, [r0, #24]
     ef4:	69c2      	ldr	r2, [r0, #28]
     ef6:	f7ff f9d3 	bl	2a0 <befreie_tos>
     efa:	6101      	str	r1, [r0, #16]
     efc:	6142      	str	r2, [r0, #20]
     efe:	bd00      	pop	{pc}

00000f00 <Dictionary_204>:
     f00:	00000f2a 	andeq	r0, r0, sl, lsr #30
     f04:	74040262 	strvc	r0, [r4], #-610	; 0x262
     f08:	006b6375 	rsbeq	r6, fp, r5, ror r3

00000f0c <Code_204>:
     f0c:	cf01      	ldmia	r7!, {r0}
     f0e:	3f08      	subs	r7, #8
     f10:	607e      	str	r6, [r7, #4]
     f12:	6038      	str	r0, [r7, #0]
     f14:	4770      	bx	lr
     f16:	b500      	push	{lr}
     f18:	f7ff fa54 	bl	3c4 <expect_two_elements>
     f1c:	f7ff f9ad 	bl	27a <free_3os_element>
     f20:	6901      	ldr	r1, [r0, #16]
     f22:	6201      	str	r1, [r0, #32]
     f24:	6941      	ldr	r1, [r0, #20]
     f26:	6241      	str	r1, [r0, #36]	; 0x24
     f28:	bd00      	pop	{pc}

00000f2a <Dictionary_205>:
     f2a:	00000f60 	andeq	r0, r0, r0, ror #30
     f2e:	72030263 	andvc	r0, r3, #805306374	; 0x30000006
     f32:	cf03746f 	svcgt	0x0003746f

00000f34 <Code_205>:
     f34:	cf03      	ldmia	r7!, {r0, r1}
     f36:	3f08      	subs	r7, #8
     f38:	6078      	str	r0, [r7, #4]
     f3a:	603e      	str	r6, [r7, #0]
     f3c:	000e      	movs	r6, r1
     f3e:	4770      	bx	lr

00000f40 <rot_allocator>:
     f40:	b50e      	push	{r1, r2, r3, lr}
     f42:	f7ff fa4a 	bl	3da <expect_three_elements>
     f46:	6901      	ldr	r1, [r0, #16]
     f48:	6982      	ldr	r2, [r0, #24]
     f4a:	6a03      	ldr	r3, [r0, #32]
     f4c:	6181      	str	r1, [r0, #24]
     f4e:	6202      	str	r2, [r0, #32]
     f50:	6103      	str	r3, [r0, #16]
     f52:	6941      	ldr	r1, [r0, #20]
     f54:	69c2      	ldr	r2, [r0, #28]
     f56:	6a43      	ldr	r3, [r0, #36]	; 0x24
     f58:	61c1      	str	r1, [r0, #28]
     f5a:	6242      	str	r2, [r0, #36]	; 0x24
     f5c:	6143      	str	r3, [r0, #20]
     f5e:	bd0e      	pop	{r1, r2, r3, pc}

00000f60 <Dictionary_206>:
     f60:	00000f84 	andeq	r0, r0, r4, lsl #31
     f64:	2d040263 	sfmcs	f0, 4, [r4, #-396]	; 0xfffffe74
     f68:	00746f72 	rsbseq	r6, r4, r2, ror pc

00000f6c <Code_206>:
     f6c:	cf03      	ldmia	r7!, {r0, r1}
     f6e:	3f08      	subs	r7, #8
     f70:	607e      	str	r6, [r7, #4]
     f72:	6039      	str	r1, [r7, #0]
     f74:	0006      	movs	r6, r0
     f76:	4770      	bx	lr
     f78:	b500      	push	{lr}
     f7a:	f7ff ffe1 	bl	f40 <rot_allocator>
     f7e:	f7ff ffdf 	bl	f40 <rot_allocator>
     f82:	bd00      	pop	{pc}

00000f84 <Dictionary_207>:
     f84:	00000f96 	muleq	r0, r6, pc	; <UNPREDICTABLE>
     f88:	70040020 	andvc	r0, r4, r0, lsr #32
     f8c:	006b6369 	rsbeq	r6, fp, r9, ror #6

00000f90 <Code_207>:
     f90:	f857 6026 	ldr.w	r6, [r7, r6, lsl #2]
     f94:	4770      	bx	lr

00000f96 <Dictionary_208>:
     f96:	00000fae 	andeq	r0, r0, lr, lsr #31
     f9a:	64050000 	strvs	r0, [r5], #-0
     f9e:	68747065 	ldmdavs	r4!, {r0, r2, r5, r6, ip, sp, lr}^

00000fa2 <Code_208>:
     fa2:	494d      	ldr	r1, [pc, #308]	; (10d8 <Code_227+0x24>)
     fa4:	1bc9      	subs	r1, r1, r7
     fa6:	f847 6d04 	str.w	r6, [r7, #-4]!
     faa:	088e      	lsrs	r6, r1, #2
     fac:	4770      	bx	lr

00000fae <Dictionary_210>:
     fae:	00000fca 	andeq	r0, r0, sl, asr #31
     fb2:	72060000 	andvc	r0, r6, #0
     fb6:	74706564 	ldrbtvc	r6, [r0], #-1380	; 0x564
     fba:	f8470068 			; <UNDEFINED> instruction: 0xf8470068

00000fbc <Code_210>:
     fbc:	f847 6d04 	str.w	r6, [r7, #-4]!
     fc0:	466e      	mov	r6, sp
     fc2:	4946      	ldr	r1, [pc, #280]	; (10dc <Code_227+0x28>)
     fc4:	1b89      	subs	r1, r1, r6
     fc6:	088e      	lsrs	r6, r1, #2
     fc8:	4770      	bx	lr

00000fca <Dictionary_212>:
     fca:	00000ffc 	strdeq	r0, [r0], -ip
     fce:	3e020220 	cdpcc	2, 0, cr0, cr2, cr0, {1}
     fd2:	b4400072 	strblt	r0, [r0], #-114	; 0x72

00000fd4 <Code_212>:
     fd4:	b440      	push	{r6}
     fd6:	cf40      	ldmia	r7!, {r6}
     fd8:	4770      	bx	lr

00000fda <allocator_to_r>:
     fda:	b500      	push	{lr}
     fdc:	f7ff f9e9 	bl	3b2 <expect_one_element>
     fe0:	f7ff fa0e 	bl	400 <expect_tos_in_register>
     fe4:	f847 6d04 	str.w	r6, [r7, #-4]!
     fe8:	f24b 4600 	movw	r6, #46080	; 0xb400
     fec:	2201      	movs	r2, #1
     fee:	408a      	lsls	r2, r1
     ff0:	4316      	orrs	r6, r2
     ff2:	f002 f8ab 	bl	314c <Code_787>
     ff6:	f7ff fa15 	bl	424 <eliminiere_tos>
     ffa:	bd00      	pop	{pc}

00000ffc <Dictionary_215>:
     ffc:	0000102e 	andeq	r1, r0, lr, lsr #32
    1000:	72020220 	andvc	r0, r2, #2
    1004:	f847003e 			; <UNDEFINED> instruction: 0xf847003e

00001006 <Code_215>:
    1006:	f847 6d04 	str.w	r6, [r7, #-4]!
    100a:	bc40      	pop	{r6}
    100c:	4770      	bx	lr

0000100e <allocator_r_from>:
    100e:	b500      	push	{lr}
    1010:	f7ff f946 	bl	2a0 <befreie_tos>
    1014:	f7ff f9a8 	bl	368 <get_free_register>
    1018:	6103      	str	r3, [r0, #16]
    101a:	f847 6d04 	str.w	r6, [r7, #-4]!
    101e:	f64b 4600 	movw	r6, #48128	; 0xbc00
    1022:	2201      	movs	r2, #1
    1024:	409a      	lsls	r2, r3
    1026:	4316      	orrs	r6, r2
    1028:	f002 f890 	bl	314c <Code_787>
    102c:	bd00      	pop	{pc}

0000102e <Dictionary_219>:
    102e:	00001048 	andeq	r1, r0, r8, asr #32
    1032:	72020220 	andvc	r0, r2, #2
    1036:	f8470040 			; <UNDEFINED> instruction: 0xf8470040

00001038 <Code_219>:
    1038:	f847 6d04 	str.w	r6, [r7, #-4]!
    103c:	9e00      	ldr	r6, [sp, #0]
    103e:	4770      	bx	lr
    1040:	b500      	push	{lr}
    1042:	f002 fd8e 	bl	3b62 <rfetch_allocator>
    1046:	bd00      	pop	{pc}

00001048 <Dictionary_221>:
    1048:	00001068 	andeq	r1, r0, r8, rrx
    104c:	72050220 	andvc	r0, r5, #2
    1050:	706f7264 	rsbvc	r7, pc, r4, ror #4

00001054 <Code_221>:
    1054:	b001      	add	sp, #4
    1056:	4770      	bx	lr
    1058:	b500      	push	{lr}
    105a:	f847 6d04 	str.w	r6, [r7, #-4]!
    105e:	f24b 0601 	movw	r6, #45057	; 0xb001
    1062:	f002 f873 	bl	314c <Code_787>
    1066:	bd00      	pop	{pc}

00001068 <Dictionary_224>:
    1068:	0000107c 	andeq	r1, r0, ip, ror r0
    106c:	72050020 	andvc	r0, r5, #32
    1070:	6b636970 	blvs	18db638 <BIT24+0x8db638>

00001074 <Code_224>:
    1074:	00b6      	lsls	r6, r6, #2
    1076:	446e      	add	r6, sp
    1078:	6836      	ldr	r6, [r6, #0]
    107a:	4770      	bx	lr

0000107c <Dictionary_225>:
    107c:	000010a8 	andeq	r1, r0, r8, lsr #1
    1080:	72040000 	andvc	r0, r4, #0
    1084:	006c6c6f 	rsbeq	r6, ip, pc, ror #24

00001088 <Code_225>:
    1088:	2e00      	cmp	r6, #0
    108a:	d101      	bne.n	1090 <Code_225+0x8>
    108c:	cf40      	ldmia	r7!, {r6}
    108e:	4770      	bx	lr
    1090:	00b0      	lsls	r0, r6, #2
    1092:	5839      	ldr	r1, [r7, r0]
    1094:	19c0      	adds	r0, r0, r7
    1096:	1f03      	subs	r3, r0, #4
    1098:	681a      	ldr	r2, [r3, #0]
    109a:	6002      	str	r2, [r0, #0]
    109c:	3804      	subs	r0, #4
    109e:	3e01      	subs	r6, #1
    10a0:	d1f9      	bne.n	1096 <Code_225+0xe>
    10a2:	3704      	adds	r7, #4
    10a4:	000e      	movs	r6, r1
    10a6:	4770      	bx	lr

000010a8 <Dictionary_227>:
    10a8:	000010e0 	andeq	r1, r0, r0, ror #1
    10ac:	2d050000 	stccs	0, cr0, [r5, #-0]
    10b0:	6c6c6f72 	stclvs	15, cr6, [ip], #-456	; 0xfffffe38

000010b4 <Code_227>:
    10b4:	2e00      	cmp	r6, #0
    10b6:	d101      	bne.n	10bc <Code_227+0x8>
    10b8:	cf40      	ldmia	r7!, {r6}
    10ba:	4770      	bx	lr
    10bc:	6838      	ldr	r0, [r7, #0]
    10be:	4639      	mov	r1, r7
    10c0:	684a      	ldr	r2, [r1, #4]
    10c2:	600a      	str	r2, [r1, #0]
    10c4:	3104      	adds	r1, #4
    10c6:	3e01      	subs	r6, #1
    10c8:	d1fa      	bne.n	10c0 <Code_227+0xc>
    10ca:	6008      	str	r0, [r1, #0]
    10cc:	cf40      	ldmia	r7!, {r6}
    10ce:	4770      	bx	lr
    10d0:	fba00000 	blx	fe8010da <BIT31+0x7e8010da>
    10d4:	fb800000 	blx	fe0010de <BIT31+0x7e0010de>
    10d8:	2000025c 	andcs	r0, r0, ip, asr r2
    10dc:	2000035c 	andcs	r0, r0, ip, asr r3

000010e0 <Dictionary_230>:
    10e0:	000010f6 	strdeq	r1, [r0], -r6
    10e4:	74040060 	strvc	r0, [r4], #-96	; 0x60
    10e8:	00657572 	rsbeq	r7, r5, r2, ror r5

000010ec <Code_230>:
    10ec:	f847 6d04 	str.w	r6, [r7, #-4]!
    10f0:	2600      	movs	r6, #0
    10f2:	43f6      	mvns	r6, r6
    10f4:	4770      	bx	lr

000010f6 <Dictionary_232>:
    10f6:	0000110a 	andeq	r1, r0, sl, lsl #2
    10fa:	66050060 	strvs	r0, [r5], -r0, rrx
    10fe:	65736c61 	ldrbvs	r6, [r3, #-3169]!	; 0xc61

00001102 <Code_232>:
    1102:	f847 6d04 	str.w	r6, [r7, #-4]!
    1106:	2600      	movs	r6, #0
    1108:	4770      	bx	lr

0000110a <Dictionary_234>:
    110a:	0000111c 	andeq	r1, r0, ip, lsl r1
    110e:	61033220 	tstvs	r3, r0, lsr #4
    1112:	cf01646e 	svcgt	0x0001646e

00001114 <Code_234>:
    1114:	cf01      	ldmia	r7!, {r0}
    1116:	4006      	ands	r6, r0
    1118:	4770      	bx	lr
    111a:	4000      	ands	r0, r0

0000111c <Dictionary_235>:
    111c:	00001130 	andeq	r1, r0, r0, lsr r1
    1120:	62034220 	andvs	r4, r3, #2
    1124:	cf016369 	svcgt	0x00016369

00001126 <Code_235>:
    1126:	cf01      	ldmia	r7!, {r0}
    1128:	43b0      	bics	r0, r6
    112a:	0006      	movs	r6, r0
    112c:	4770      	bx	lr
    112e:	4380      	bics	r0, r0

00001130 <Dictionary_236>:
    1130:	00001142 	andeq	r1, r0, r2, asr #2
    1134:	6f023220 	svcvs	0x00023220
    1138:	cf010072 	svcgt	0x00010072

0000113a <Code_236>:
    113a:	cf01      	ldmia	r7!, {r0}
    113c:	4306      	orrs	r6, r0
    113e:	4770      	bx	lr
    1140:	4300      	orrs	r0, r0

00001142 <Dictionary_237>:
    1142:	00001154 	andeq	r1, r0, r4, asr r1
    1146:	78033220 	stmdavc	r3, {r5, r9, ip, sp}
    114a:	cf01726f 	svcgt	0x0001726f

0000114c <Code_237>:
    114c:	cf01      	ldmia	r7!, {r0}
    114e:	4046      	eors	r6, r0
    1150:	4770      	bx	lr
    1152:	4040      	eors	r0, r0

00001154 <Dictionary_238>:
    1154:	00001192 	muleq	r0, r2, r1
    1158:	63030261 	movwvs	r0, #12897	; 0x3261
    115c:	fab67a6c 	blx	fed9fb14 <BIT31+0x7ed9fb14>

0000115e <Code_238>:
    115e:	fab6 f686 	clz	r6, r6
    1162:	4770      	bx	lr
    1164:	b500      	push	{lr}
    1166:	f7ff f924 	bl	3b2 <expect_one_element>
    116a:	f847 6d04 	str.w	r6, [r7, #-4]!
    116e:	4ec8      	ldr	r6, [pc, #800]	; (1490 <Code_313+0x18>)
    1170:	f7ff f946 	bl	400 <expect_tos_in_register>
    1174:	430e      	orrs	r6, r1
    1176:	ea56 4601 	orrs.w	r6, r6, r1, lsl #16
    117a:	f7ff f953 	bl	424 <eliminiere_tos>
    117e:	f7ff f88f 	bl	2a0 <befreie_tos>
    1182:	f7ff f8f1 	bl	368 <get_free_register>
    1186:	6103      	str	r3, [r0, #16]
    1188:	ea56 2603 	orrs.w	r6, r6, r3, lsl #8
    118c:	f002 f806 	bl	319c <Code_796>
    1190:	bd00      	pop	{pc}

00001192 <Dictionary_240>:
    1192:	000011a2 	andeq	r1, r0, r2, lsr #3
    1196:	72030061 	andvc	r0, r3, #97	; 0x61
    119a:	ea5f726f 	b	17ddb5e <BIT24+0x7ddb5e>

0000119c <Code_240>:
    119c:	ea5f 0676 	movs.w	r6, r6, ror #1
    11a0:	4770      	bx	lr

000011a2 <Dictionary_241>:
    11a2:	000011b4 			; <UNDEFINED> instruction: 0x000011b4
    11a6:	72030061 	andvc	r0, r3, #97	; 0x61
    11aa:	19b66c6f 	ldmibne	r6!, {r0, r1, r2, r3, r5, r6, sl, fp, sp, lr}

000011ac <Code_241>:
    11ac:	19b6      	adds	r6, r6, r6
    11ae:	f156 0600 	adcs.w	r6, r6, #0
    11b2:	4770      	bx	lr

000011b4 <Dictionary_242>:
    11b4:	000011ec 	andeq	r1, r0, ip, ror #3
    11b8:	61070262 	tstvs	r7, r2, ror #4
    11bc:	69687372 	stmdbvs	r8!, {r1, r4, r5, r6, r8, r9, ip, sp, lr}^
    11c0:	cf017466 	svcgt	0x00017466

000011c2 <Code_242>:
    11c2:	cf01      	ldmia	r7!, {r0}
    11c4:	4130      	asrs	r0, r6
    11c6:	0006      	movs	r6, r0
    11c8:	4770      	bx	lr
    11ca:	b500      	push	{lr}
    11cc:	f847 6d04 	str.w	r6, [r7, #-4]!
    11d0:	f244 1600 	movw	r6, #16640	; 0x4100
    11d4:	f847 6d04 	str.w	r6, [r7, #-4]!
    11d8:	f241 0600 	movw	r6, #4096	; 0x1000
    11dc:	f7ff f8f2 	bl	3c4 <expect_two_elements>
    11e0:	6941      	ldr	r1, [r0, #20]
    11e2:	291f      	cmp	r1, #31
    11e4:	d92a      	bls.n	123c <Code_252+0x18>
    11e6:	211f      	movs	r1, #31
    11e8:	6141      	str	r1, [r0, #20]
    11ea:	e027      	b.n	123c <Code_252+0x18>

000011ec <Dictionary_247>:
    11ec:	00001216 	andeq	r1, r0, r6, lsl r2
    11f0:	72060262 	andvc	r0, r6, #536870918	; 0x20000006
    11f4:	66696873 			; <UNDEFINED> instruction: 0x66696873
    11f8:	cf010074 	svcgt	0x00010074

000011fa <Code_247>:
    11fa:	cf01      	ldmia	r7!, {r0}
    11fc:	40f0      	lsrs	r0, r6
    11fe:	0006      	movs	r6, r0
    1200:	4770      	bx	lr
    1202:	b500      	push	{lr}
    1204:	f847 6d04 	str.w	r6, [r7, #-4]!
    1208:	f244 06c0 	movw	r6, #16576	; 0x40c0
    120c:	f847 6d04 	str.w	r6, [r7, #-4]!
    1210:	f640 0600 	movw	r6, #2048	; 0x800
    1214:	e012      	b.n	123c <Code_252+0x18>

00001216 <Dictionary_252>:
    1216:	000012a4 	andeq	r1, r0, r4, lsr #5
    121a:	6c060262 	sfmvs	f0, 4, [r6], {98}	; 0x62
    121e:	66696873 			; <UNDEFINED> instruction: 0x66696873
    1222:	cf010074 	svcgt	0x00010074

00001224 <Code_252>:
    1224:	cf01      	ldmia	r7!, {r0}
    1226:	40b0      	lsls	r0, r6
    1228:	0006      	movs	r6, r0
    122a:	4770      	bx	lr
    122c:	b500      	push	{lr}
    122e:	f847 6d04 	str.w	r6, [r7, #-4]!
    1232:	f244 0680 	movw	r6, #16512	; 0x4080
    1236:	f847 6d04 	str.w	r6, [r7, #-4]!
    123a:	2600      	movs	r6, #0
    123c:	f7ff f8c2 	bl	3c4 <expect_two_elements>
    1240:	6901      	ldr	r1, [r0, #16]
    1242:	2928      	cmp	r1, #40	; 0x28
    1244:	d003      	beq.n	124e <Code_252+0x2a>
    1246:	cf40      	ldmia	r7!, {r6}
    1248:	f7ff f984 	bl	554 <alloc_unkommutativ>
    124c:	bd00      	pop	{pc}
    124e:	3704      	adds	r7, #4
    1250:	6941      	ldr	r1, [r0, #20]
    1252:	f7ff f8e7 	bl	424 <eliminiere_tos>
    1256:	2900      	cmp	r1, #0
    1258:	d101      	bne.n	125e <Code_252+0x3a>
    125a:	cf40      	ldmia	r7!, {r6}
    125c:	bd00      	pop	{pc}
    125e:	291f      	cmp	r1, #31
    1260:	d80f      	bhi.n	1282 <Code_252+0x5e>
    1262:	0189      	lsls	r1, r1, #6
    1264:	430e      	orrs	r6, r1
    1266:	6902      	ldr	r2, [r0, #16]
    1268:	00d2      	lsls	r2, r2, #3
    126a:	4316      	orrs	r6, r2
    126c:	f7ff f8da 	bl	424 <eliminiere_tos>
    1270:	f7ff f816 	bl	2a0 <befreie_tos>
    1274:	f7ff f878 	bl	368 <get_free_register>
    1278:	6103      	str	r3, [r0, #16]
    127a:	431e      	orrs	r6, r3
    127c:	f001 ff66 	bl	314c <Code_787>
    1280:	bd00      	pop	{pc}
    1282:	cf40      	ldmia	r7!, {r6}
    1284:	f7ff f8ce 	bl	424 <eliminiere_tos>
    1288:	f7ff f80a 	bl	2a0 <befreie_tos>
    128c:	f7ff f86c 	bl	368 <get_free_register>
    1290:	6103      	str	r3, [r0, #16]
    1292:	f847 6d04 	str.w	r6, [r7, #-4]!
    1296:	f242 0600 	movw	r6, #8192	; 0x2000
    129a:	021b      	lsls	r3, r3, #8
    129c:	431e      	orrs	r6, r3
    129e:	f001 ff55 	bl	314c <Code_787>
    12a2:	bd00      	pop	{pc}

000012a4 <Dictionary_263>:
    12a4:	000012c8 	andeq	r1, r0, r8, asr #5
    12a8:	30020261 	andcc	r0, r2, r1, ror #4
    12ac:	3e01003d 	mcrcc	0, 0, r0, cr1, cr13, {1}

000012ae <Code_263>:
    12ae:	3e01      	subs	r6, #1
    12b0:	41b6      	sbcs	r6, r6
    12b2:	4770      	bx	lr
    12b4:	b500      	push	{lr}
    12b6:	f000 f8f3 	bl	14a0 <prepare_single_compare>
    12ba:	f000 fe5a 	bl	1f72 <allocator_one_minus>
    12be:	f7ff f8b1 	bl	424 <eliminiere_tos>
    12c2:	4974      	ldr	r1, [pc, #464]	; (1494 <Code_313+0x1c>)
    12c4:	6281      	str	r1, [r0, #40]	; 0x28
    12c6:	bd00      	pop	{pc}

000012c8 <Dictionary_264>:
    12c8:	000012ee 	andeq	r1, r0, lr, ror #5
    12cc:	30030261 	andcc	r0, r3, r1, ror #4
    12d0:	3e013e3c 	mcrcc	14, 0, r3, cr1, cr12, {1}

000012d2 <Code_264>:
    12d2:	3e01      	subs	r6, #1
    12d4:	41b6      	sbcs	r6, r6
    12d6:	43f6      	mvns	r6, r6
    12d8:	4770      	bx	lr

000012da <allocator_unequal_zero>:
    12da:	b500      	push	{lr}
    12dc:	f000 f8e0 	bl	14a0 <prepare_single_compare>
    12e0:	f000 fe47 	bl	1f72 <allocator_one_minus>
    12e4:	f7ff f89e 	bl	424 <eliminiere_tos>
    12e8:	496b      	ldr	r1, [pc, #428]	; (1498 <Code_313+0x20>)
    12ea:	6281      	str	r1, [r0, #40]	; 0x28
    12ec:	bd00      	pop	{pc}

000012ee <Dictionary_265>:
    12ee:	00001314 	andeq	r1, r0, r4, lsl r3
    12f2:	30020261 	andcc	r0, r2, r1, ror #4
    12f6:	17f6003c 			; <UNDEFINED> instruction: 0x17f6003c

000012f8 <Code_265>:
    12f8:	17f6      	asrs	r6, r6, #31
    12fa:	4770      	bx	lr

000012fc <alloc_nullkleiner>:
    12fc:	b500      	push	{lr}
    12fe:	f000 f8cf 	bl	14a0 <prepare_single_compare>
    1302:	f847 6d04 	str.w	r6, [r7, #-4]!
    1306:	f241 76c0 	movw	r6, #6080	; 0x17c0
    130a:	f000 fe36 	bl	1f7a <chsmallplusminus>
    130e:	4963      	ldr	r1, [pc, #396]	; (149c <Code_313+0x24>)
    1310:	6281      	str	r1, [r0, #40]	; 0x28
    1312:	bd00      	pop	{pc}

00001314 <Dictionary_268>:
    1314:	0000133e 	andeq	r1, r0, lr, lsr r3
    1318:	3e020242 	cdpcc	2, 0, cr0, cr2, cr2, {2}
    131c:	cf01003d 	svcgt	0x0001003d

0000131e <Code_268>:
    131e:	cf01      	ldmia	r7!, {r0}
    1320:	42b0      	cmp	r0, r6
    1322:	bfb4      	ite	lt
    1324:	2600      	movlt	r6, #0
    1326:	f04f 36ff 	movge.w	r6, #4294967295
    132a:	4770      	bx	lr
    132c:	f847 6d04 	str.w	r6, [r7, #-4]!
    1330:	f64d 3600 	movw	r6, #56064	; 0xdb00
    1334:	f847 6d04 	str.w	r6, [r7, #-4]!
    1338:	f64d 2600 	movw	r6, #55808	; 0xda00
    133c:	e0d0      	b.n	14e0 <prepare_compare>

0000133e <Dictionary_273>:
    133e:	00001368 	andeq	r1, r0, r8, ror #6
    1342:	3c020242 	sfmcc	f0, 4, [r2], {66}	; 0x42
    1346:	cf01003d 	svcgt	0x0001003d

00001348 <Code_273>:
    1348:	cf01      	ldmia	r7!, {r0}
    134a:	42b0      	cmp	r0, r6
    134c:	bfcc      	ite	gt
    134e:	2600      	movgt	r6, #0
    1350:	f04f 36ff 	movle.w	r6, #4294967295
    1354:	4770      	bx	lr
    1356:	f847 6d04 	str.w	r6, [r7, #-4]!
    135a:	f64d 4600 	movw	r6, #56320	; 0xdc00
    135e:	f847 6d04 	str.w	r6, [r7, #-4]!
    1362:	f64d 5600 	movw	r6, #56576	; 0xdd00
    1366:	e0bb      	b.n	14e0 <prepare_compare>

00001368 <Dictionary_278>:
    1368:	00001390 	muleq	r0, r0, r3
    136c:	3c010242 	sfmcc	f0, 4, [r1], {66}	; 0x42

00001370 <Code_278>:
    1370:	cf01      	ldmia	r7!, {r0}
    1372:	42b0      	cmp	r0, r6
    1374:	bfb4      	ite	lt
    1376:	f04f 36ff 	movlt.w	r6, #4294967295
    137a:	2600      	movge	r6, #0
    137c:	4770      	bx	lr
    137e:	f847 6d04 	str.w	r6, [r7, #-4]!
    1382:	f64d 2600 	movw	r6, #55808	; 0xda00
    1386:	f847 6d04 	str.w	r6, [r7, #-4]!
    138a:	f64d 3600 	movw	r6, #56064	; 0xdb00
    138e:	e0a7      	b.n	14e0 <prepare_compare>

00001390 <Dictionary_283>:
    1390:	000013b8 			; <UNDEFINED> instruction: 0x000013b8
    1394:	3e010242 	cdpcc	2, 0, cr0, cr1, cr2, {2}

00001398 <Code_283>:
    1398:	cf01      	ldmia	r7!, {r0}
    139a:	42b0      	cmp	r0, r6
    139c:	bfcc      	ite	gt
    139e:	f04f 36ff 	movgt.w	r6, #4294967295
    13a2:	2600      	movle	r6, #0
    13a4:	4770      	bx	lr
    13a6:	f847 6d04 	str.w	r6, [r7, #-4]!
    13aa:	f64d 5600 	movw	r6, #56576	; 0xdd00
    13ae:	f847 6d04 	str.w	r6, [r7, #-4]!
    13b2:	f64d 4600 	movw	r6, #56320	; 0xdc00
    13b6:	e093      	b.n	14e0 <prepare_compare>

000013b8 <Dictionary_288>:
    13b8:	000013de 	ldrdeq	r1, [r0], -lr
    13bc:	75030262 	strvc	r0, [r3, #-610]	; 0x262
    13c0:	cf013d3e 	svcgt	0x00013d3e

000013c2 <Code_288>:
    13c2:	cf01      	ldmia	r7!, {r0}
    13c4:	1b86      	subs	r6, r0, r6
    13c6:	41b6      	sbcs	r6, r6
    13c8:	43f6      	mvns	r6, r6
    13ca:	4770      	bx	lr
    13cc:	f847 6d04 	str.w	r6, [r7, #-4]!
    13d0:	f24d 3600 	movw	r6, #54016	; 0xd300
    13d4:	f847 6d04 	str.w	r6, [r7, #-4]!
    13d8:	f24d 2600 	movw	r6, #53760	; 0xd200
    13dc:	e080      	b.n	14e0 <prepare_compare>

000013de <Dictionary_293>:
    13de:	00001404 	andeq	r1, r0, r4, lsl #8
    13e2:	75030262 	strvc	r0, [r3, #-610]	; 0x262
    13e6:	cf013d3c 	svcgt	0x00013d3c

000013e8 <Code_293>:
    13e8:	cf01      	ldmia	r7!, {r0}
    13ea:	1a36      	subs	r6, r6, r0
    13ec:	41b6      	sbcs	r6, r6
    13ee:	43f6      	mvns	r6, r6
    13f0:	4770      	bx	lr
    13f2:	f847 6d04 	str.w	r6, [r7, #-4]!
    13f6:	f64d 0600 	movw	r6, #55296	; 0xd800
    13fa:	f847 6d04 	str.w	r6, [r7, #-4]!
    13fe:	f64d 1600 	movw	r6, #55552	; 0xd900
    1402:	e06d      	b.n	14e0 <prepare_compare>

00001404 <Dictionary_298>:
    1404:	00001428 	andeq	r1, r0, r8, lsr #8
    1408:	75020262 	strvc	r0, [r2, #-610]	; 0x262
    140c:	cf01003c 	svcgt	0x0001003c

0000140e <Code_298>:
    140e:	cf01      	ldmia	r7!, {r0}
    1410:	1b86      	subs	r6, r0, r6
    1412:	41b6      	sbcs	r6, r6
    1414:	4770      	bx	lr
    1416:	f847 6d04 	str.w	r6, [r7, #-4]!
    141a:	f24d 2600 	movw	r6, #53760	; 0xd200
    141e:	f847 6d04 	str.w	r6, [r7, #-4]!
    1422:	f24d 3600 	movw	r6, #54016	; 0xd300
    1426:	e05b      	b.n	14e0 <prepare_compare>

00001428 <Dictionary_303>:
    1428:	0000144c 	andeq	r1, r0, ip, asr #8
    142c:	75020262 	strvc	r0, [r2, #-610]	; 0x262
    1430:	cf01003e 	svcgt	0x0001003e

00001432 <Code_303>:
    1432:	cf01      	ldmia	r7!, {r0}
    1434:	1a36      	subs	r6, r6, r0
    1436:	41b6      	sbcs	r6, r6
    1438:	4770      	bx	lr
    143a:	f847 6d04 	str.w	r6, [r7, #-4]!
    143e:	f64d 1600 	movw	r6, #55552	; 0xd900
    1442:	f847 6d04 	str.w	r6, [r7, #-4]!
    1446:	f64d 0600 	movw	r6, #55296	; 0xd800
    144a:	e049      	b.n	14e0 <prepare_compare>

0000144c <Dictionary_308>:
    144c:	00001470 	andeq	r1, r0, r0, ror r4
    1450:	3c020262 	sfmcc	f0, 4, [r2], {98}	; 0x62
    1454:	cf01003e 	svcgt	0x0001003e

00001456 <Code_308>:
    1456:	cf01      	ldmia	r7!, {r0}
    1458:	1a36      	subs	r6, r6, r0
    145a:	bf18      	it	ne
    145c:	f04f 36ff 	movne.w	r6, #4294967295
    1460:	4770      	bx	lr
    1462:	f847 6d04 	str.w	r6, [r7, #-4]!
    1466:	f24d 0600 	movw	r6, #53248	; 0xd000
    146a:	f847 6d04 	str.w	r6, [r7, #-4]!
    146e:	e037      	b.n	14e0 <prepare_compare>

00001470 <Dictionary_313>:
    1470:	00001612 	andeq	r1, r0, r2, lsl r6
    1474:	3d010262 	sfmcc	f0, 4, [r1, #-392]	; 0xfffffe78

00001478 <Code_313>:
    1478:	cf01      	ldmia	r7!, {r0}
    147a:	1a36      	subs	r6, r6, r0
    147c:	3e01      	subs	r6, #1
    147e:	41b6      	sbcs	r6, r6
    1480:	4770      	bx	lr
    1482:	f847 6d04 	str.w	r6, [r7, #-4]!
    1486:	f24d 1600 	movw	r6, #53504	; 0xd100
    148a:	f847 6d04 	str.w	r6, [r7, #-4]!
    148e:	e027      	b.n	14e0 <prepare_compare>
    1490:	fab0f080 	blx	fec3d698 <BIT31+0x7ec3d698>
    1494:	0000d200 	andeq	sp, r0, r0, lsl #4
    1498:	0000d300 	andeq	sp, r0, r0, lsl #6
    149c:	0000d500 	andeq	sp, r0, r0, lsl #10

000014a0 <prepare_single_compare>:
    14a0:	b500      	push	{lr}
    14a2:	f7fe ff86 	bl	3b2 <expect_one_element>
    14a6:	6a03      	ldr	r3, [r0, #32]
    14a8:	2b28      	cmp	r3, #40	; 0x28
    14aa:	d10a      	bne.n	14c2 <prepare_single_compare+0x22>
    14ac:	f7fe ff5c 	bl	368 <get_free_register>
    14b0:	6203      	str	r3, [r0, #32]
    14b2:	f847 6d04 	str.w	r6, [r7, #-4]!
    14b6:	6a46      	ldr	r6, [r0, #36]	; 0x24
    14b8:	f847 6d04 	str.w	r6, [r7, #-4]!
    14bc:	001e      	movs	r6, r3
    14be:	f001 faef 	bl	2aa0 <Code_659>
    14c2:	6983      	ldr	r3, [r0, #24]
    14c4:	2b28      	cmp	r3, #40	; 0x28
    14c6:	d10a      	bne.n	14de <prepare_single_compare+0x3e>
    14c8:	f7fe ff4e 	bl	368 <get_free_register>
    14cc:	6183      	str	r3, [r0, #24]
    14ce:	f847 6d04 	str.w	r6, [r7, #-4]!
    14d2:	69c6      	ldr	r6, [r0, #28]
    14d4:	f847 6d04 	str.w	r6, [r7, #-4]!
    14d8:	001e      	movs	r6, r3
    14da:	f001 fae1 	bl	2aa0 <Code_659>
    14de:	bd00      	pop	{pc}

000014e0 <prepare_compare>:
    14e0:	b500      	push	{lr}
    14e2:	f7fe ff6f 	bl	3c4 <expect_two_elements>
    14e6:	6a03      	ldr	r3, [r0, #32]
    14e8:	2b28      	cmp	r3, #40	; 0x28
    14ea:	d10a      	bne.n	1502 <prepare_compare+0x22>
    14ec:	f7fe ff3c 	bl	368 <get_free_register>
    14f0:	6203      	str	r3, [r0, #32]
    14f2:	f847 6d04 	str.w	r6, [r7, #-4]!
    14f6:	6a46      	ldr	r6, [r0, #36]	; 0x24
    14f8:	f847 6d04 	str.w	r6, [r7, #-4]!
    14fc:	001e      	movs	r6, r3
    14fe:	f001 facf 	bl	2aa0 <Code_659>
    1502:	6982      	ldr	r2, [r0, #24]
    1504:	2a28      	cmp	r2, #40	; 0x28
    1506:	d103      	bne.n	1510 <prepare_compare+0x30>
    1508:	f7ff fcc3 	bl	e92 <swap_allocator>
    150c:	3704      	adds	r7, #4
    150e:	e000      	b.n	1512 <prepare_compare+0x32>
    1510:	cf40      	ldmia	r7!, {r6}
    1512:	6901      	ldr	r1, [r0, #16]
    1514:	2928      	cmp	r1, #40	; 0x28
    1516:	d11d      	bne.n	1554 <prepare_compare+0x74>
    1518:	6941      	ldr	r1, [r0, #20]
    151a:	29ff      	cmp	r1, #255	; 0xff
    151c:	d807      	bhi.n	152e <prepare_compare+0x4e>
    151e:	f847 6d04 	str.w	r6, [r7, #-4]!
    1522:	f642 0600 	movw	r6, #10240	; 0x2800
    1526:	430e      	orrs	r6, r1
    1528:	6981      	ldr	r1, [r0, #24]
    152a:	0209      	lsls	r1, r1, #8
    152c:	e01a      	b.n	1564 <prepare_compare+0x84>
    152e:	f847 6d04 	str.w	r6, [r7, #-4]!
    1532:	6946      	ldr	r6, [r0, #20]
    1534:	f001 fa00 	bl	2938 <Code_650>
    1538:	cf02      	ldmia	r7!, {r1}
    153a:	2e00      	cmp	r6, #0
    153c:	cf40      	ldmia	r7!, {r6}
    153e:	d009      	beq.n	1554 <prepare_compare+0x74>
    1540:	f847 6d04 	str.w	r6, [r7, #-4]!
    1544:	4e48      	ldr	r6, [pc, #288]	; (1668 <Code_348+0xc>)
    1546:	430e      	orrs	r6, r1
    1548:	6981      	ldr	r1, [r0, #24]
    154a:	ea56 4601 	orrs.w	r6, r6, r1, lsl #16
    154e:	f001 fe25 	bl	319c <Code_796>
    1552:	e00a      	b.n	156a <prepare_compare+0x8a>
    1554:	f7fe ff54 	bl	400 <expect_tos_in_register>
    1558:	f847 6d04 	str.w	r6, [r7, #-4]!
    155c:	f244 2680 	movw	r6, #17024	; 0x4280
    1560:	00d2      	lsls	r2, r2, #3
    1562:	4316      	orrs	r6, r2
    1564:	430e      	orrs	r6, r1
    1566:	f001 fdf1 	bl	314c <Code_787>
    156a:	f7fe ff5b 	bl	424 <eliminiere_tos>
    156e:	f7fe ff59 	bl	424 <eliminiere_tos>
    1572:	6286      	str	r6, [r0, #40]	; 0x28
    1574:	cf40      	ldmia	r7!, {r6}
    1576:	bd00      	pop	{pc}

00001578 <sprungschreiber_flaggenerator>:
    1578:	b50f      	push	{r0, r1, r2, r3, lr}
    157a:	483c      	ldr	r0, [pc, #240]	; (166c <Code_348+0x10>)
    157c:	6a81      	ldr	r1, [r0, #40]	; 0x28
    157e:	2900      	cmp	r1, #0
    1580:	d033      	beq.n	15ea <sprungschreiber_flaggenerator+0x72>
    1582:	f847 6d04 	str.w	r6, [r7, #-4]!
    1586:	6a86      	ldr	r6, [r0, #40]	; 0x28
    1588:	2100      	movs	r1, #0
    158a:	6281      	str	r1, [r0, #40]	; 0x28
    158c:	0a31      	lsrs	r1, r6, #8
    158e:	29d5      	cmp	r1, #213	; 0xd5
    1590:	d101      	bne.n	1596 <sprungschreiber_flaggenerator+0x1e>
    1592:	cf40      	ldmia	r7!, {r6}
    1594:	bd0f      	pop	{r0, r1, r2, r3, pc}
    1596:	f7fe fe83 	bl	2a0 <befreie_tos>
    159a:	f7fe fee5 	bl	368 <get_free_register>
    159e:	6103      	str	r3, [r0, #16]
    15a0:	29d2      	cmp	r1, #210	; 0xd2
    15a2:	d103      	bne.n	15ac <sprungschreiber_flaggenerator+0x34>
    15a4:	4e32      	ldr	r6, [pc, #200]	; (1670 <Code_348+0x14>)
    15a6:	f000 fd37 	bl	2018 <smalltworegisters>
    15aa:	bd0f      	pop	{r0, r1, r2, r3, pc}
    15ac:	29d3      	cmp	r1, #211	; 0xd3
    15ae:	d105      	bne.n	15bc <sprungschreiber_flaggenerator+0x44>
    15b0:	4e2f      	ldr	r6, [pc, #188]	; (1670 <Code_348+0x14>)
    15b2:	f000 fd31 	bl	2018 <smalltworegisters>
    15b6:	f000 fd42 	bl	203e <allocator_not>
    15ba:	bd0f      	pop	{r0, r1, r2, r3, pc}
    15bc:	3602      	adds	r6, #2
    15be:	f001 fdc5 	bl	314c <Code_787>
    15c2:	f847 6d04 	str.w	r6, [r7, #-4]!
    15c6:	f242 0600 	movw	r6, #8192	; 0x2000
    15ca:	f000 f80f 	bl	15ec <smallplusminus>
    15ce:	f000 fd36 	bl	203e <allocator_not>
    15d2:	f847 6d04 	str.w	r6, [r7, #-4]!
    15d6:	f24e 0600 	movw	r6, #57344	; 0xe000
    15da:	f001 fdb7 	bl	314c <Code_787>
    15de:	f847 6d04 	str.w	r6, [r7, #-4]!
    15e2:	f242 0600 	movw	r6, #8192	; 0x2000
    15e6:	f000 f801 	bl	15ec <smallplusminus>
    15ea:	bd0f      	pop	{r0, r1, r2, r3, pc}

000015ec <smallplusminus>:
    15ec:	b500      	push	{lr}
    15ee:	f7fe fee0 	bl	3b2 <expect_one_element>
    15f2:	f7fe ff38 	bl	466 <make_tos_changeable>
    15f6:	6901      	ldr	r1, [r0, #16]
    15f8:	0209      	lsls	r1, r1, #8
    15fa:	430e      	orrs	r6, r1
    15fc:	f001 fda6 	bl	314c <Code_787>
    1600:	bd00      	pop	{pc}

00001602 <eliminiere_tos_wenn_bmi>:
    1602:	b500      	push	{lr}
    1604:	6a81      	ldr	r1, [r0, #40]	; 0x28
    1606:	0a09      	lsrs	r1, r1, #8
    1608:	29d5      	cmp	r1, #213	; 0xd5
    160a:	d101      	bne.n	1610 <eliminiere_tos_wenn_bmi+0xe>
    160c:	f7fe ff0a 	bl	424 <eliminiere_tos>
    1610:	bd00      	pop	{pc}

00001612 <Dictionary_345>:
    1612:	00001626 	andeq	r1, r0, r6, lsr #12
    1616:	6d030062 	stcvs	0, cr0, [r3, #-392]	; 0xfffffe78
    161a:	cf016e69 	svcgt	0x00016e69

0000161c <Code_345>:
    161c:	cf01      	ldmia	r7!, {r0}
    161e:	42b0      	cmp	r0, r6
    1620:	bfb8      	it	lt
    1622:	4606      	movlt	r6, r0
    1624:	4770      	bx	lr

00001626 <Dictionary_346>:
    1626:	0000163a 	andeq	r1, r0, sl, lsr r6
    162a:	6d030062 	stcvs	0, cr0, [r3, #-392]	; 0xfffffe78
    162e:	cf017861 	svcgt	0x00017861

00001630 <Code_346>:
    1630:	cf01      	ldmia	r7!, {r0}
    1632:	42b0      	cmp	r0, r6
    1634:	bfc8      	it	gt
    1636:	4606      	movgt	r6, r0
    1638:	4770      	bx	lr

0000163a <Dictionary_347>:
    163a:	00001650 	andeq	r1, r0, r0, asr r6
    163e:	75040062 	strvc	r0, [r4, #-98]	; 0x62
    1642:	0078616d 	rsbseq	r6, r8, sp, ror #2

00001646 <Code_347>:
    1646:	cf01      	ldmia	r7!, {r0}
    1648:	42b0      	cmp	r0, r6
    164a:	bf88      	it	hi
    164c:	4606      	movhi	r6, r0
    164e:	4770      	bx	lr

00001650 <Dictionary_348>:
    1650:	00001674 	andeq	r1, r0, r4, ror r6
    1654:	75040062 	strvc	r0, [r4, #-98]	; 0x62
    1658:	006e696d 	rsbeq	r6, lr, sp, ror #18

0000165c <Code_348>:
    165c:	cf01      	ldmia	r7!, {r0}
    165e:	42b0      	cmp	r0, r6
    1660:	bf38      	it	cc
    1662:	4606      	movcc	r6, r0
    1664:	4770      	bx	lr
    1666:	0f000000 	svceq	0x00000000
    166a:	0028f1b0 			; <UNDEFINED> instruction: 0x0028f1b0
    166e:	41802000 	orrmi	r2, r0, r0
	...

00001674 <Dictionary_349>:
    1674:	000016b2 			; <UNDEFINED> instruction: 0x000016b2
    1678:	6d040000 	stcvs	0, cr0, [r4, #-0]
    167c:	0065766f 	rsbeq	r7, r5, pc, ror #12

00001680 <Code_349>:
    1680:	b507      	push	{r0, r1, r2, lr}
    1682:	0031      	movs	r1, r6
    1684:	cf40      	ldmia	r7!, {r6}
    1686:	0032      	movs	r2, r6
    1688:	cf40      	ldmia	r7!, {r6}
    168a:	2900      	cmp	r1, #0
    168c:	d00f      	beq.n	16ae <Code_349+0x2e>
    168e:	42b2      	cmp	r2, r6
    1690:	d00d      	beq.n	16ae <Code_349+0x2e>
    1692:	d306      	bcc.n	16a2 <Code_349+0x22>
    1694:	3e01      	subs	r6, #1
    1696:	3a01      	subs	r2, #1
    1698:	5c70      	ldrb	r0, [r6, r1]
    169a:	5450      	strb	r0, [r2, r1]
    169c:	3901      	subs	r1, #1
    169e:	d1fb      	bne.n	1698 <Code_349+0x18>
    16a0:	e005      	b.n	16ae <Code_349+0x2e>
    16a2:	7830      	ldrb	r0, [r6, #0]
    16a4:	7010      	strb	r0, [r2, #0]
    16a6:	3601      	adds	r6, #1
    16a8:	3201      	adds	r2, #1
    16aa:	3901      	subs	r1, #1
    16ac:	d1f9      	bne.n	16a2 <Code_349+0x22>
    16ae:	cf40      	ldmia	r7!, {r6}
    16b0:	bd07      	pop	{r0, r1, r2, pc}

000016b2 <Dictionary_353>:
    16b2:	000016d4 	ldrdeq	r1, [r0], -r4
    16b6:	66040000 	strvs	r0, [r4], -r0
    16ba:	006c6c69 	rsbeq	r6, ip, r9, ror #24

000016be <Code_353>:
    16be:	0030      	movs	r0, r6
    16c0:	cf40      	ldmia	r7!, {r6}
    16c2:	0031      	movs	r1, r6
    16c4:	cf40      	ldmia	r7!, {r6}
    16c6:	2900      	cmp	r1, #0
    16c8:	d002      	beq.n	16d0 <Code_353+0x12>
    16ca:	3901      	subs	r1, #1
    16cc:	5470      	strb	r0, [r6, r1]
    16ce:	d1fc      	bne.n	16ca <Code_353+0xc>
    16d0:	cf40      	ldmia	r7!, {r6}
    16d2:	4770      	bx	lr

000016d4 <Dictionary_357>:
    16d4:	00001720 	andeq	r1, r0, r0, lsr #14
    16d8:	40010220 	andmi	r0, r1, r0, lsr #4

000016dc <Code_357>:
    16dc:	6836      	ldr	r6, [r6, #0]
    16de:	4770      	bx	lr

000016e0 <allocator_4fetch>:
    16e0:	b500      	push	{lr}
    16e2:	f7fe fe66 	bl	3b2 <expect_one_element>
    16e6:	f847 6d04 	str.w	r6, [r7, #-4]!
    16ea:	f646 0600 	movw	r6, #26624	; 0x6800
    16ee:	6903      	ldr	r3, [r0, #16]
    16f0:	2b28      	cmp	r3, #40	; 0x28
    16f2:	d108      	bne.n	1706 <allocator_4fetch+0x26>
    16f4:	6943      	ldr	r3, [r0, #20]
    16f6:	217c      	movs	r1, #124	; 0x7c
    16f8:	4019      	ands	r1, r3
    16fa:	0109      	lsls	r1, r1, #4
    16fc:	430e      	orrs	r6, r1
    16fe:	217c      	movs	r1, #124	; 0x7c
    1700:	438b      	bics	r3, r1
    1702:	f7fe fe0b 	bl	31c <generiere_adresskonstante>
    1706:	00db      	lsls	r3, r3, #3
    1708:	431e      	orrs	r6, r3
    170a:	f7fe fe8b 	bl	424 <eliminiere_tos>
    170e:	f7fe fdc7 	bl	2a0 <befreie_tos>
    1712:	f7fe fe29 	bl	368 <get_free_register>
    1716:	6103      	str	r3, [r0, #16]
    1718:	431e      	orrs	r6, r3
    171a:	f001 fd17 	bl	314c <Code_787>
    171e:	bd00      	pop	{pc}

00001720 <Dictionary_360>:
    1720:	00001776 	andeq	r1, r0, r6, ror r7
    1724:	21010220 	tstcs	r1, r0, lsr #4

00001728 <Code_360>:
    1728:	cf03      	ldmia	r7!, {r0, r1}
    172a:	6030      	str	r0, [r6, #0]
    172c:	000e      	movs	r6, r1
    172e:	4770      	bx	lr

00001730 <allocator_4store>:
    1730:	b500      	push	{lr}
    1732:	f7fe fe47 	bl	3c4 <expect_two_elements>
    1736:	f847 6d04 	str.w	r6, [r7, #-4]!
    173a:	f246 0600 	movw	r6, #24576	; 0x6000
    173e:	6903      	ldr	r3, [r0, #16]
    1740:	2b28      	cmp	r3, #40	; 0x28
    1742:	d108      	bne.n	1756 <allocator_4store+0x26>
    1744:	6943      	ldr	r3, [r0, #20]
    1746:	217c      	movs	r1, #124	; 0x7c
    1748:	4019      	ands	r1, r3
    174a:	0109      	lsls	r1, r1, #4
    174c:	430e      	orrs	r6, r1
    174e:	217c      	movs	r1, #124	; 0x7c
    1750:	438b      	bics	r3, r1
    1752:	f7fe fde3 	bl	31c <generiere_adresskonstante>
    1756:	00db      	lsls	r3, r3, #3
    1758:	431e      	orrs	r6, r3
    175a:	6983      	ldr	r3, [r0, #24]
    175c:	2b28      	cmp	r3, #40	; 0x28
    175e:	d102      	bne.n	1766 <allocator_4store+0x36>
    1760:	69c3      	ldr	r3, [r0, #28]
    1762:	f7fe fdce 	bl	302 <generiere_konstante>
    1766:	431e      	orrs	r6, r3
    1768:	f001 fcf0 	bl	314c <Code_787>
    176c:	f7fe fe5a 	bl	424 <eliminiere_tos>
    1770:	f7fe fe58 	bl	424 <eliminiere_tos>
    1774:	bd00      	pop	{pc}

00001776 <Dictionary_363>:
    1776:	000017ac 	andeq	r1, r0, ip, lsr #15
    177a:	2b020220 	blcs	82002 <BIT19+0x2002>
    177e:	cf030021 	svcgt	0x00030021

00001780 <Code_363>:
    1780:	cf03      	ldmia	r7!, {r0, r1}
    1782:	6832      	ldr	r2, [r6, #0]
    1784:	1812      	adds	r2, r2, r0
    1786:	6032      	str	r2, [r6, #0]
    1788:	000e      	movs	r6, r1
    178a:	4770      	bx	lr
    178c:	b500      	push	{lr}
    178e:	f7fe fe19 	bl	3c4 <expect_two_elements>
    1792:	f7ff fb49 	bl	e28 <dup_allocator>
    1796:	f7ff ffa3 	bl	16e0 <allocator_4fetch>
    179a:	f7ff fbd1 	bl	f40 <rot_allocator>
    179e:	f000 fb6c 	bl	1e7a <plus_allocator>
    17a2:	f7ff fb76 	bl	e92 <swap_allocator>
    17a6:	f7ff ffc3 	bl	1730 <allocator_4store>
    17aa:	bd00      	pop	{pc}

000017ac <Dictionary_364>:
    17ac:	000017fa 	strdeq	r1, [r0], -sl
    17b0:	68020220 	stmdavs	r2, {r5, r9}
    17b4:	88360040 	ldmdahi	r6!, {r6}

000017b6 <Code_364>:
    17b6:	8836      	ldrh	r6, [r6, #0]
    17b8:	4770      	bx	lr

000017ba <allocator_2fetch>:
    17ba:	b500      	push	{lr}
    17bc:	f7fe fdf9 	bl	3b2 <expect_one_element>
    17c0:	f847 6d04 	str.w	r6, [r7, #-4]!
    17c4:	f648 0600 	movw	r6, #34816	; 0x8800
    17c8:	6903      	ldr	r3, [r0, #16]
    17ca:	2b28      	cmp	r3, #40	; 0x28
    17cc:	d108      	bne.n	17e0 <allocator_2fetch+0x26>
    17ce:	6943      	ldr	r3, [r0, #20]
    17d0:	213e      	movs	r1, #62	; 0x3e
    17d2:	4019      	ands	r1, r3
    17d4:	0149      	lsls	r1, r1, #5
    17d6:	430e      	orrs	r6, r1
    17d8:	213e      	movs	r1, #62	; 0x3e
    17da:	438b      	bics	r3, r1
    17dc:	f7fe fd9e 	bl	31c <generiere_adresskonstante>
    17e0:	00db      	lsls	r3, r3, #3
    17e2:	431e      	orrs	r6, r3
    17e4:	f7fe fe1e 	bl	424 <eliminiere_tos>
    17e8:	f7fe fd5a 	bl	2a0 <befreie_tos>
    17ec:	f7fe fdbc 	bl	368 <get_free_register>
    17f0:	6103      	str	r3, [r0, #16]
    17f2:	431e      	orrs	r6, r3
    17f4:	f001 fcaa 	bl	314c <Code_787>
    17f8:	bd00      	pop	{pc}

000017fa <Dictionary_367>:
    17fa:	00001852 	andeq	r1, r0, r2, asr r8
    17fe:	68020220 	stmdavs	r2, {r5, r9}
    1802:	cf030021 	svcgt	0x00030021

00001804 <Code_367>:
    1804:	cf03      	ldmia	r7!, {r0, r1}
    1806:	8030      	strh	r0, [r6, #0]
    1808:	000e      	movs	r6, r1
    180a:	4770      	bx	lr

0000180c <allocator_2store>:
    180c:	b500      	push	{lr}
    180e:	f7fe fdd9 	bl	3c4 <expect_two_elements>
    1812:	f847 6d04 	str.w	r6, [r7, #-4]!
    1816:	f248 0600 	movw	r6, #32768	; 0x8000
    181a:	6903      	ldr	r3, [r0, #16]
    181c:	2b28      	cmp	r3, #40	; 0x28
    181e:	d108      	bne.n	1832 <allocator_2store+0x26>
    1820:	6943      	ldr	r3, [r0, #20]
    1822:	213e      	movs	r1, #62	; 0x3e
    1824:	4019      	ands	r1, r3
    1826:	0149      	lsls	r1, r1, #5
    1828:	430e      	orrs	r6, r1
    182a:	213e      	movs	r1, #62	; 0x3e
    182c:	438b      	bics	r3, r1
    182e:	f7fe fd75 	bl	31c <generiere_adresskonstante>
    1832:	00db      	lsls	r3, r3, #3
    1834:	431e      	orrs	r6, r3
    1836:	6983      	ldr	r3, [r0, #24]
    1838:	2b28      	cmp	r3, #40	; 0x28
    183a:	d102      	bne.n	1842 <allocator_2store+0x36>
    183c:	69c3      	ldr	r3, [r0, #28]
    183e:	f7fe fd60 	bl	302 <generiere_konstante>
    1842:	431e      	orrs	r6, r3
    1844:	f001 fc82 	bl	314c <Code_787>
    1848:	f7fe fdec 	bl	424 <eliminiere_tos>
    184c:	f7fe fdea 	bl	424 <eliminiere_tos>
    1850:	bd00      	pop	{pc}

00001852 <Dictionary_370>:
    1852:	00001888 	andeq	r1, r0, r8, lsl #17
    1856:	68030220 	stmdavs	r3, {r5, r9}
    185a:	cf03212b 	svcgt	0x0003212b

0000185c <Code_370>:
    185c:	cf03      	ldmia	r7!, {r0, r1}
    185e:	8832      	ldrh	r2, [r6, #0]
    1860:	1812      	adds	r2, r2, r0
    1862:	8032      	strh	r2, [r6, #0]
    1864:	000e      	movs	r6, r1
    1866:	4770      	bx	lr
    1868:	b500      	push	{lr}
    186a:	f7fe fdab 	bl	3c4 <expect_two_elements>
    186e:	f7ff fadb 	bl	e28 <dup_allocator>
    1872:	f7ff ffa2 	bl	17ba <allocator_2fetch>
    1876:	f7ff fb63 	bl	f40 <rot_allocator>
    187a:	f000 fafe 	bl	1e7a <plus_allocator>
    187e:	f7ff fb08 	bl	e92 <swap_allocator>
    1882:	f7ff ffc3 	bl	180c <allocator_2store>
    1886:	bd00      	pop	{pc}

00001888 <Dictionary_371>:
    1888:	000018d6 	ldrdeq	r1, [r0], -r6
    188c:	63020220 	movwvs	r0, #8736	; 0x2220
    1890:	78360040 	ldmdavc	r6!, {r6}

00001892 <Code_371>:
    1892:	7836      	ldrb	r6, [r6, #0]
    1894:	4770      	bx	lr

00001896 <allocator_1fetch>:
    1896:	b500      	push	{lr}
    1898:	f7fe fd8b 	bl	3b2 <expect_one_element>
    189c:	f847 6d04 	str.w	r6, [r7, #-4]!
    18a0:	f647 0600 	movw	r6, #30720	; 0x7800
    18a4:	6903      	ldr	r3, [r0, #16]
    18a6:	2b28      	cmp	r3, #40	; 0x28
    18a8:	d108      	bne.n	18bc <allocator_1fetch+0x26>
    18aa:	6943      	ldr	r3, [r0, #20]
    18ac:	211f      	movs	r1, #31
    18ae:	4019      	ands	r1, r3
    18b0:	0189      	lsls	r1, r1, #6
    18b2:	430e      	orrs	r6, r1
    18b4:	211f      	movs	r1, #31
    18b6:	438b      	bics	r3, r1
    18b8:	f7fe fd30 	bl	31c <generiere_adresskonstante>
    18bc:	00db      	lsls	r3, r3, #3
    18be:	431e      	orrs	r6, r3
    18c0:	f7fe fdb0 	bl	424 <eliminiere_tos>
    18c4:	f7fe fcec 	bl	2a0 <befreie_tos>
    18c8:	f7fe fd4e 	bl	368 <get_free_register>
    18cc:	6103      	str	r3, [r0, #16]
    18ce:	431e      	orrs	r6, r3
    18d0:	f001 fc3c 	bl	314c <Code_787>
    18d4:	bd00      	pop	{pc}

000018d6 <Dictionary_374>:
    18d6:	0000192e 	andeq	r1, r0, lr, lsr #18
    18da:	63020220 	movwvs	r0, #8736	; 0x2220
    18de:	cf030021 	svcgt	0x00030021

000018e0 <Code_374>:
    18e0:	cf03      	ldmia	r7!, {r0, r1}
    18e2:	7030      	strb	r0, [r6, #0]
    18e4:	000e      	movs	r6, r1
    18e6:	4770      	bx	lr

000018e8 <allocator_1store>:
    18e8:	b500      	push	{lr}
    18ea:	f7fe fd6b 	bl	3c4 <expect_two_elements>
    18ee:	f847 6d04 	str.w	r6, [r7, #-4]!
    18f2:	f247 0600 	movw	r6, #28672	; 0x7000
    18f6:	6903      	ldr	r3, [r0, #16]
    18f8:	2b28      	cmp	r3, #40	; 0x28
    18fa:	d108      	bne.n	190e <allocator_1store+0x26>
    18fc:	6943      	ldr	r3, [r0, #20]
    18fe:	211f      	movs	r1, #31
    1900:	4019      	ands	r1, r3
    1902:	0189      	lsls	r1, r1, #6
    1904:	430e      	orrs	r6, r1
    1906:	211f      	movs	r1, #31
    1908:	438b      	bics	r3, r1
    190a:	f7fe fd07 	bl	31c <generiere_adresskonstante>
    190e:	00db      	lsls	r3, r3, #3
    1910:	431e      	orrs	r6, r3
    1912:	6983      	ldr	r3, [r0, #24]
    1914:	2b28      	cmp	r3, #40	; 0x28
    1916:	d102      	bne.n	191e <allocator_1store+0x36>
    1918:	69c3      	ldr	r3, [r0, #28]
    191a:	f7fe fcf2 	bl	302 <generiere_konstante>
    191e:	431e      	orrs	r6, r3
    1920:	f001 fc14 	bl	314c <Code_787>
    1924:	f7fe fd7e 	bl	424 <eliminiere_tos>
    1928:	f7fe fd7c 	bl	424 <eliminiere_tos>
    192c:	bd00      	pop	{pc}

0000192e <Dictionary_377>:
    192e:	00001964 	andeq	r1, r0, r4, ror #18
    1932:	63030220 	movwvs	r0, #12832	; 0x3220
    1936:	cf03212b 	svcgt	0x0003212b

00001938 <Code_377>:
    1938:	cf03      	ldmia	r7!, {r0, r1}
    193a:	7832      	ldrb	r2, [r6, #0]
    193c:	1812      	adds	r2, r2, r0
    193e:	7032      	strb	r2, [r6, #0]
    1940:	000e      	movs	r6, r1
    1942:	4770      	bx	lr
    1944:	b500      	push	{lr}
    1946:	f7fe fd3d 	bl	3c4 <expect_two_elements>
    194a:	f7ff fa6d 	bl	e28 <dup_allocator>
    194e:	f7ff ffa2 	bl	1896 <allocator_1fetch>
    1952:	f7ff faf5 	bl	f40 <rot_allocator>
    1956:	f000 fa90 	bl	1e7a <plus_allocator>
    195a:	f7ff fa9a 	bl	e92 <swap_allocator>
    195e:	f7ff ffc3 	bl	18e8 <allocator_1store>
    1962:	bd00      	pop	{pc}

00001964 <Dictionary_378>:
    1964:	000019a4 	andeq	r1, r0, r4, lsr #19
    1968:	62040220 	andvs	r0, r4, #2
    196c:	00217369 	eoreq	r7, r1, r9, ror #6

00001970 <Code_378>:
    1970:	cf03      	ldmia	r7!, {r0, r1}
    1972:	6832      	ldr	r2, [r6, #0]
    1974:	4302      	orrs	r2, r0
    1976:	6032      	str	r2, [r6, #0]
    1978:	000e      	movs	r6, r1
    197a:	4770      	bx	lr
    197c:	b500      	push	{lr}
    197e:	f7fe fd21 	bl	3c4 <expect_two_elements>
    1982:	f7ff fa51 	bl	e28 <dup_allocator>
    1986:	f7ff feab 	bl	16e0 <allocator_4fetch>
    198a:	f7ff fad9 	bl	f40 <rot_allocator>
    198e:	f847 6d04 	str.w	r6, [r7, #-4]!
    1992:	f244 3600 	movw	r6, #17152	; 0x4300
    1996:	f7fe fd95 	bl	4c4 <alloc_kommutativ>
    199a:	f7ff fa7a 	bl	e92 <swap_allocator>
    199e:	f7ff fec7 	bl	1730 <allocator_4store>
    19a2:	bd00      	pop	{pc}

000019a4 <Dictionary_381>:
    19a4:	000019e4 	andeq	r1, r0, r4, ror #19
    19a8:	62040220 	andvs	r0, r4, #2
    19ac:	00216369 	eoreq	r6, r1, r9, ror #6

000019b0 <Code_381>:
    19b0:	cf03      	ldmia	r7!, {r0, r1}
    19b2:	6832      	ldr	r2, [r6, #0]
    19b4:	4382      	bics	r2, r0
    19b6:	6032      	str	r2, [r6, #0]
    19b8:	000e      	movs	r6, r1
    19ba:	4770      	bx	lr
    19bc:	b500      	push	{lr}
    19be:	f7fe fd01 	bl	3c4 <expect_two_elements>
    19c2:	f7ff fa31 	bl	e28 <dup_allocator>
    19c6:	f7ff fe8b 	bl	16e0 <allocator_4fetch>
    19ca:	f7ff fab9 	bl	f40 <rot_allocator>
    19ce:	f847 6d04 	str.w	r6, [r7, #-4]!
    19d2:	f244 3680 	movw	r6, #17280	; 0x4380
    19d6:	f7fe fdbd 	bl	554 <alloc_unkommutativ>
    19da:	f7ff fa5a 	bl	e92 <swap_allocator>
    19de:	f7ff fea7 	bl	1730 <allocator_4store>
    19e2:	bd00      	pop	{pc}

000019e4 <Dictionary_384>:
    19e4:	00001a24 	andeq	r1, r0, r4, lsr #20
    19e8:	78040220 	stmdavc	r4, {r5, r9}
    19ec:	0021726f 	eoreq	r7, r1, pc, ror #4

000019f0 <Code_384>:
    19f0:	cf03      	ldmia	r7!, {r0, r1}
    19f2:	6832      	ldr	r2, [r6, #0]
    19f4:	4042      	eors	r2, r0
    19f6:	6032      	str	r2, [r6, #0]
    19f8:	000e      	movs	r6, r1
    19fa:	4770      	bx	lr
    19fc:	b500      	push	{lr}
    19fe:	f7fe fce1 	bl	3c4 <expect_two_elements>
    1a02:	f7ff fa11 	bl	e28 <dup_allocator>
    1a06:	f7ff fe6b 	bl	16e0 <allocator_4fetch>
    1a0a:	f7ff fa99 	bl	f40 <rot_allocator>
    1a0e:	f847 6d04 	str.w	r6, [r7, #-4]!
    1a12:	f244 0640 	movw	r6, #16448	; 0x4040
    1a16:	f7fe fd55 	bl	4c4 <alloc_kommutativ>
    1a1a:	f7ff fa3a 	bl	e92 <swap_allocator>
    1a1e:	f7ff fe87 	bl	1730 <allocator_4store>
    1a22:	bd00      	pop	{pc}

00001a24 <Dictionary_387>:
    1a24:	00001a5a 	andeq	r1, r0, sl, asr sl
    1a28:	62040220 	andvs	r0, r4, #2
    1a2c:	00407469 	subeq	r7, r0, r9, ror #8

00001a30 <Code_387>:
    1a30:	cf01      	ldmia	r7!, {r0}
    1a32:	6836      	ldr	r6, [r6, #0]
    1a34:	4006      	ands	r6, r0
    1a36:	bf18      	it	ne
    1a38:	f04f 36ff 	movne.w	r6, #4294967295
    1a3c:	4770      	bx	lr
    1a3e:	b500      	push	{lr}
    1a40:	f7fe fcc0 	bl	3c4 <expect_two_elements>
    1a44:	f7ff fe4c 	bl	16e0 <allocator_4fetch>
    1a48:	f847 6d04 	str.w	r6, [r7, #-4]!
    1a4c:	f244 0600 	movw	r6, #16384	; 0x4000
    1a50:	f7fe fd38 	bl	4c4 <alloc_kommutativ>
    1a54:	f7ff fc41 	bl	12da <allocator_unequal_zero>
    1a58:	bd00      	pop	{pc}

00001a5a <Dictionary_390>:
    1a5a:	00001a9a 	muleq	r0, sl, sl
    1a5e:	68050220 	stmdavs	r5, {r5, r9}
    1a62:	21736962 	cmncs	r3, r2, ror #18

00001a66 <Code_390>:
    1a66:	cf03      	ldmia	r7!, {r0, r1}
    1a68:	8832      	ldrh	r2, [r6, #0]
    1a6a:	4302      	orrs	r2, r0
    1a6c:	8032      	strh	r2, [r6, #0]
    1a6e:	000e      	movs	r6, r1
    1a70:	4770      	bx	lr
    1a72:	b500      	push	{lr}
    1a74:	f7fe fca6 	bl	3c4 <expect_two_elements>
    1a78:	f7ff f9d6 	bl	e28 <dup_allocator>
    1a7c:	f7ff fe9d 	bl	17ba <allocator_2fetch>
    1a80:	f7ff fa5e 	bl	f40 <rot_allocator>
    1a84:	f847 6d04 	str.w	r6, [r7, #-4]!
    1a88:	f244 3600 	movw	r6, #17152	; 0x4300
    1a8c:	f7fe fd1a 	bl	4c4 <alloc_kommutativ>
    1a90:	f7ff f9ff 	bl	e92 <swap_allocator>
    1a94:	f7ff feba 	bl	180c <allocator_2store>
    1a98:	bd00      	pop	{pc}

00001a9a <Dictionary_393>:
    1a9a:	00001ada 	ldrdeq	r1, [r0], -sl
    1a9e:	68050220 	stmdavs	r5, {r5, r9}
    1aa2:	21636962 	cmncs	r3, r2, ror #18

00001aa6 <Code_393>:
    1aa6:	cf03      	ldmia	r7!, {r0, r1}
    1aa8:	8832      	ldrh	r2, [r6, #0]
    1aaa:	4382      	bics	r2, r0
    1aac:	8032      	strh	r2, [r6, #0]
    1aae:	000e      	movs	r6, r1
    1ab0:	4770      	bx	lr
    1ab2:	b500      	push	{lr}
    1ab4:	f7fe fc86 	bl	3c4 <expect_two_elements>
    1ab8:	f7ff f9b6 	bl	e28 <dup_allocator>
    1abc:	f7ff fe7d 	bl	17ba <allocator_2fetch>
    1ac0:	f7ff fa3e 	bl	f40 <rot_allocator>
    1ac4:	f847 6d04 	str.w	r6, [r7, #-4]!
    1ac8:	f244 3680 	movw	r6, #17280	; 0x4380
    1acc:	f7fe fd42 	bl	554 <alloc_unkommutativ>
    1ad0:	f7ff f9df 	bl	e92 <swap_allocator>
    1ad4:	f7ff fe9a 	bl	180c <allocator_2store>
    1ad8:	bd00      	pop	{pc}

00001ada <Dictionary_396>:
    1ada:	00001b1a 	andeq	r1, r0, sl, lsl fp
    1ade:	68050220 	stmdavs	r5, {r5, r9}
    1ae2:	21726f78 	cmncs	r2, r8, ror pc

00001ae6 <Code_396>:
    1ae6:	cf03      	ldmia	r7!, {r0, r1}
    1ae8:	8832      	ldrh	r2, [r6, #0]
    1aea:	4042      	eors	r2, r0
    1aec:	8032      	strh	r2, [r6, #0]
    1aee:	000e      	movs	r6, r1
    1af0:	4770      	bx	lr
    1af2:	b500      	push	{lr}
    1af4:	f7fe fc66 	bl	3c4 <expect_two_elements>
    1af8:	f7ff f996 	bl	e28 <dup_allocator>
    1afc:	f7ff fe5d 	bl	17ba <allocator_2fetch>
    1b00:	f7ff fa1e 	bl	f40 <rot_allocator>
    1b04:	f847 6d04 	str.w	r6, [r7, #-4]!
    1b08:	f244 0640 	movw	r6, #16448	; 0x4040
    1b0c:	f7fe fcda 	bl	4c4 <alloc_kommutativ>
    1b10:	f7ff f9bf 	bl	e92 <swap_allocator>
    1b14:	f7ff fe7a 	bl	180c <allocator_2store>
    1b18:	bd00      	pop	{pc}

00001b1a <Dictionary_399>:
    1b1a:	00001b50 	andeq	r1, r0, r0, asr fp
    1b1e:	68050220 	stmdavs	r5, {r5, r9}
    1b22:	40746962 	rsbsmi	r6, r4, r2, ror #18

00001b26 <Code_399>:
    1b26:	cf01      	ldmia	r7!, {r0}
    1b28:	8836      	ldrh	r6, [r6, #0]
    1b2a:	4006      	ands	r6, r0
    1b2c:	bf18      	it	ne
    1b2e:	f04f 36ff 	movne.w	r6, #4294967295
    1b32:	4770      	bx	lr
    1b34:	b500      	push	{lr}
    1b36:	f7fe fc45 	bl	3c4 <expect_two_elements>
    1b3a:	f7ff fe3e 	bl	17ba <allocator_2fetch>
    1b3e:	f847 6d04 	str.w	r6, [r7, #-4]!
    1b42:	f244 0600 	movw	r6, #16384	; 0x4000
    1b46:	f7fe fcbd 	bl	4c4 <alloc_kommutativ>
    1b4a:	f7ff fbc6 	bl	12da <allocator_unequal_zero>
    1b4e:	bd00      	pop	{pc}

00001b50 <Dictionary_402>:
    1b50:	00001b90 	muleq	r0, r0, fp
    1b54:	63050220 	movwvs	r0, #21024	; 0x5220
    1b58:	21736962 	cmncs	r3, r2, ror #18

00001b5c <Code_402>:
    1b5c:	cf03      	ldmia	r7!, {r0, r1}
    1b5e:	7832      	ldrb	r2, [r6, #0]
    1b60:	4302      	orrs	r2, r0
    1b62:	7032      	strb	r2, [r6, #0]
    1b64:	000e      	movs	r6, r1
    1b66:	4770      	bx	lr
    1b68:	b500      	push	{lr}
    1b6a:	f7fe fc2b 	bl	3c4 <expect_two_elements>
    1b6e:	f7ff f95b 	bl	e28 <dup_allocator>
    1b72:	f7ff fe90 	bl	1896 <allocator_1fetch>
    1b76:	f7ff f9e3 	bl	f40 <rot_allocator>
    1b7a:	f847 6d04 	str.w	r6, [r7, #-4]!
    1b7e:	f244 3600 	movw	r6, #17152	; 0x4300
    1b82:	f7fe fc9f 	bl	4c4 <alloc_kommutativ>
    1b86:	f7ff f984 	bl	e92 <swap_allocator>
    1b8a:	f7ff fead 	bl	18e8 <allocator_1store>
    1b8e:	bd00      	pop	{pc}

00001b90 <Dictionary_405>:
    1b90:	00001bd0 	ldrdeq	r1, [r0], -r0
    1b94:	63050220 	movwvs	r0, #21024	; 0x5220
    1b98:	21636962 	cmncs	r3, r2, ror #18

00001b9c <Code_405>:
    1b9c:	cf03      	ldmia	r7!, {r0, r1}
    1b9e:	7832      	ldrb	r2, [r6, #0]
    1ba0:	4382      	bics	r2, r0
    1ba2:	7032      	strb	r2, [r6, #0]
    1ba4:	000e      	movs	r6, r1
    1ba6:	4770      	bx	lr
    1ba8:	b500      	push	{lr}
    1baa:	f7fe fc0b 	bl	3c4 <expect_two_elements>
    1bae:	f7ff f93b 	bl	e28 <dup_allocator>
    1bb2:	f7ff fe70 	bl	1896 <allocator_1fetch>
    1bb6:	f7ff f9c3 	bl	f40 <rot_allocator>
    1bba:	f847 6d04 	str.w	r6, [r7, #-4]!
    1bbe:	f244 3680 	movw	r6, #17280	; 0x4380
    1bc2:	f7fe fcc7 	bl	554 <alloc_unkommutativ>
    1bc6:	f7ff f964 	bl	e92 <swap_allocator>
    1bca:	f7ff fe8d 	bl	18e8 <allocator_1store>
    1bce:	bd00      	pop	{pc}

00001bd0 <Dictionary_408>:
    1bd0:	00001c10 	andeq	r1, r0, r0, lsl ip
    1bd4:	63050220 	movwvs	r0, #21024	; 0x5220
    1bd8:	21726f78 	cmncs	r2, r8, ror pc

00001bdc <Code_408>:
    1bdc:	cf03      	ldmia	r7!, {r0, r1}
    1bde:	7832      	ldrb	r2, [r6, #0]
    1be0:	4042      	eors	r2, r0
    1be2:	7032      	strb	r2, [r6, #0]
    1be4:	000e      	movs	r6, r1
    1be6:	4770      	bx	lr
    1be8:	b500      	push	{lr}
    1bea:	f7fe fbeb 	bl	3c4 <expect_two_elements>
    1bee:	f7ff f91b 	bl	e28 <dup_allocator>
    1bf2:	f7ff fe50 	bl	1896 <allocator_1fetch>
    1bf6:	f7ff f9a3 	bl	f40 <rot_allocator>
    1bfa:	f847 6d04 	str.w	r6, [r7, #-4]!
    1bfe:	f244 0640 	movw	r6, #16448	; 0x4040
    1c02:	f7fe fc5f 	bl	4c4 <alloc_kommutativ>
    1c06:	f7ff f944 	bl	e92 <swap_allocator>
    1c0a:	f7ff fe6d 	bl	18e8 <allocator_1store>
    1c0e:	bd00      	pop	{pc}

00001c10 <Dictionary_411>:
    1c10:	00001c46 	andeq	r1, r0, r6, asr #24
    1c14:	63050220 	movwvs	r0, #21024	; 0x5220
    1c18:	40746962 	rsbsmi	r6, r4, r2, ror #18

00001c1c <Code_411>:
    1c1c:	cf01      	ldmia	r7!, {r0}
    1c1e:	7836      	ldrb	r6, [r6, #0]
    1c20:	4006      	ands	r6, r0
    1c22:	bf18      	it	ne
    1c24:	f04f 36ff 	movne.w	r6, #4294967295
    1c28:	4770      	bx	lr
    1c2a:	b500      	push	{lr}
    1c2c:	f7fe fbca 	bl	3c4 <expect_two_elements>
    1c30:	f7ff fe31 	bl	1896 <allocator_1fetch>
    1c34:	f847 6d04 	str.w	r6, [r7, #-4]!
    1c38:	f244 0600 	movw	r6, #16384	; 0x4000
    1c3c:	f7fe fc42 	bl	4c4 <alloc_kommutativ>
    1c40:	f7ff fb4b 	bl	12da <allocator_unequal_zero>
    1c44:	bd00      	pop	{pc}

00001c46 <Dictionary_414>:
    1c46:	00001cc6 	andeq	r1, r0, r6, asr #25
    1c4a:	66060000 	strvs	r0, [r6], -r0
    1c4e:	6873616c 	ldmdavs	r3!, {r2, r3, r5, r6, r8, sp, lr}^
    1c52:	00300021 	eorseq	r0, r0, r1, lsr #32

00001c54 <Code_414>:
    1c54:	0030      	movs	r0, r6
    1c56:	cf40      	ldmia	r7!, {r6}
    1c58:	0031      	movs	r1, r6
    1c5a:	cf40      	ldmia	r7!, {r6}
    1c5c:	f1b1 3fff 	cmp.w	r1, #4294967295
    1c60:	d016      	beq.n	1c90 <flashkomma_innen+0x1e>
    1c62:	f010 0203 	ands.w	r2, r0, #3
    1c66:	2a00      	cmp	r2, #0
    1c68:	d113      	bne.n	1c92 <flashkomma_innen+0x20>
    1c6a:	6802      	ldr	r2, [r0, #0]
    1c6c:	f1b2 3fff 	cmp.w	r2, #4294967295
    1c70:	d10f      	bne.n	1c92 <flashkomma_innen+0x20>

00001c72 <flashkomma_innen>:
    1c72:	4b76      	ldr	r3, [pc, #472]	; (1e4c <Code_435+0x6>)
    1c74:	4298      	cmp	r0, r3
    1c76:	d30c      	bcc.n	1c92 <flashkomma_innen+0x20>
    1c78:	4a75      	ldr	r2, [pc, #468]	; (1e50 <Code_435+0xa>)
    1c7a:	6011      	str	r1, [r2, #0]
    1c7c:	4a75      	ldr	r2, [pc, #468]	; (1e54 <Code_435+0xe>)
    1c7e:	6010      	str	r0, [r2, #0]
    1c80:	4a75      	ldr	r2, [pc, #468]	; (1e58 <Code_435+0x12>)
    1c82:	4b76      	ldr	r3, [pc, #472]	; (1e5c <Code_435+0x16>)
    1c84:	6013      	str	r3, [r2, #0]
    1c86:	6813      	ldr	r3, [r2, #0]
    1c88:	f013 0301 	ands.w	r3, r3, #1
    1c8c:	2b00      	cmp	r3, #0
    1c8e:	d1fa      	bne.n	1c86 <flashkomma_innen+0x14>
    1c90:	4770      	bx	lr
    1c92:	f000 fd0a 	bl	26aa <dotgaensefuesschen>
    1c96:	6f72572a 	svcvs	0x0072572a
    1c9a:	6120676e 	teqvs	r0, lr, ror #14
    1c9e:	65726464 	ldrbvs	r6, [r2, #-1124]!	; 0x464
    1ca2:	6f207373 	svcvs	0x00207373
    1ca6:	61642072 	smcvs	16898	; 0x4202
    1caa:	66206174 			; <UNDEFINED> instruction: 0x66206174
    1cae:	7720726f 	strvc	r7, [r0, -pc, ror #4]!
    1cb2:	69746972 	ldmdbvs	r4!, {r1, r4, r5, r6, r8, fp, sp, lr}^
    1cb6:	6620676e 	strtvs	r6, [r0], -lr, ror #14
    1cba:	6873616c 	ldmdavs	r3!, {r2, r3, r5, r6, r8, sp, lr}^
    1cbe:	000a2120 	andeq	r2, sl, r0, lsr #2
    1cc2:	f002 bbfe 	b.w	44c2 <Code_1174>

00001cc6 <Dictionary_418>:
    1cc6:	00001d0e 	andeq	r1, r0, lr, lsl #26
    1cca:	68070000 	stmdavs	r7, {}	; <UNPREDICTABLE>
    1cce:	73616c66 	cmnvc	r1, #26112	; 0x6600
    1cd2:	00302168 	eorseq	r2, r0, r8, ror #2

00001cd4 <Code_418>:
    1cd4:	0030      	movs	r0, r6
    1cd6:	cf40      	ldmia	r7!, {r6}
    1cd8:	0031      	movs	r1, r6
    1cda:	cf40      	ldmia	r7!, {r6}
    1cdc:	4b60      	ldr	r3, [pc, #384]	; (1e60 <Code_435+0x1a>)
    1cde:	4019      	ands	r1, r3
    1ce0:	4299      	cmp	r1, r3
    1ce2:	d0d5      	beq.n	1c90 <flashkomma_innen+0x1e>
    1ce4:	f010 0201 	ands.w	r2, r0, #1
    1ce8:	2a00      	cmp	r2, #0
    1cea:	d1d2      	bne.n	1c92 <flashkomma_innen+0x20>
    1cec:	8802      	ldrh	r2, [r0, #0]
    1cee:	429a      	cmp	r2, r3
    1cf0:	d1cf      	bne.n	1c92 <flashkomma_innen+0x20>

00001cf2 <h_flashkomma_innen>:
    1cf2:	f010 0202 	ands.w	r2, r0, #2
    1cf6:	2a00      	cmp	r2, #0
    1cf8:	d004      	beq.n	1d04 <hflash_gerade>
    1cfa:	3802      	subs	r0, #2
    1cfc:	8802      	ldrh	r2, [r0, #0]
    1cfe:	0409      	lsls	r1, r1, #16
    1d00:	4311      	orrs	r1, r2
    1d02:	e7b6      	b.n	1c72 <flashkomma_innen>

00001d04 <hflash_gerade>:
    1d04:	1c82      	adds	r2, r0, #2
    1d06:	8813      	ldrh	r3, [r2, #0]
    1d08:	041b      	lsls	r3, r3, #16
    1d0a:	4319      	orrs	r1, r3
    1d0c:	e7b1      	b.n	1c72 <flashkomma_innen>

00001d0e <Dictionary_421>:
    1d0e:	00001d4e 	andeq	r1, r0, lr, asr #26
    1d12:	63070000 	movwvs	r0, #28672	; 0x7000
    1d16:	73616c66 	cmnvc	r1, #26112	; 0x6600
    1d1a:	00302168 	eorseq	r2, r0, r8, ror #2

00001d1c <Code_421>:
    1d1c:	0030      	movs	r0, r6
    1d1e:	cf40      	ldmia	r7!, {r6}
    1d20:	0031      	movs	r1, r6
    1d22:	cf40      	ldmia	r7!, {r6}
    1d24:	f011 01ff 	ands.w	r1, r1, #255	; 0xff
    1d28:	29ff      	cmp	r1, #255	; 0xff
    1d2a:	d0b1      	beq.n	1c90 <flashkomma_innen+0x1e>
    1d2c:	7802      	ldrb	r2, [r0, #0]
    1d2e:	2aff      	cmp	r2, #255	; 0xff
    1d30:	d1af      	bne.n	1c92 <flashkomma_innen+0x20>
    1d32:	f010 0201 	ands.w	r2, r0, #1
    1d36:	2a00      	cmp	r2, #0
    1d38:	d004      	beq.n	1d44 <cflash_gerade>
    1d3a:	3801      	subs	r0, #1
    1d3c:	7802      	ldrb	r2, [r0, #0]
    1d3e:	0209      	lsls	r1, r1, #8
    1d40:	4311      	orrs	r1, r2
    1d42:	e7d6      	b.n	1cf2 <h_flashkomma_innen>

00001d44 <cflash_gerade>:
    1d44:	1c42      	adds	r2, r0, #1
    1d46:	7813      	ldrb	r3, [r2, #0]
    1d48:	021b      	lsls	r3, r3, #8
    1d4a:	4319      	orrs	r1, r3
    1d4c:	e7d1      	b.n	1cf2 <h_flashkomma_innen>

00001d4e <Dictionary_424>:
    1d4e:	00001db4 			; <UNDEFINED> instruction: 0x00001db4
    1d52:	660e0000 	strvs	r0, [lr], -r0
    1d56:	6873616c 	ldmdavs	r3!, {r2, r3, r5, r6, r8, sp, lr}^
    1d5a:	65676170 	strbvs	r6, [r7, #-368]!	; 0x170
    1d5e:	73617265 	cmnvc	r1, #1342177286	; 0x50000006
    1d62:	b40f0065 	strlt	r0, [pc], #-101	; 1d6a <Code_424+0x6>

00001d64 <Code_424>:
    1d64:	b40f      	push	{r0, r1, r2, r3}
    1d66:	0030      	movs	r0, r6
    1d68:	cf40      	ldmia	r7!, {r6}
    1d6a:	4b38      	ldr	r3, [pc, #224]	; (1e4c <Code_435+0x6>)
    1d6c:	4298      	cmp	r0, r3
    1d6e:	d30b      	bcc.n	1d88 <Code_424+0x24>
    1d70:	4a38      	ldr	r2, [pc, #224]	; (1e54 <Code_435+0xe>)
    1d72:	6010      	str	r0, [r2, #0]
    1d74:	4a38      	ldr	r2, [pc, #224]	; (1e58 <Code_435+0x12>)
    1d76:	4b3b      	ldr	r3, [pc, #236]	; (1e64 <Code_435+0x1e>)
    1d78:	6013      	str	r3, [r2, #0]
    1d7a:	6813      	ldr	r3, [r2, #0]
    1d7c:	f013 0302 	ands.w	r3, r3, #2
    1d80:	2b00      	cmp	r3, #0
    1d82:	d1fa      	bne.n	1d7a <Code_424+0x16>
    1d84:	bc0f      	pop	{r0, r1, r2, r3}
    1d86:	4770      	bx	lr
    1d88:	f000 fc8f 	bl	26aa <dotgaensefuesschen>
    1d8c:	6f725722 	svcvs	0x00725722
    1d90:	6120676e 	teqvs	r0, lr, ror #14
    1d94:	65726464 	ldrbvs	r6, [r2, #-1124]!	; 0x464
    1d98:	66207373 			; <UNDEFINED> instruction: 0x66207373
    1d9c:	6520726f 	strvs	r7, [r0, #-623]!	; 0x26f
    1da0:	69736172 	ldmdbvs	r3!, {r1, r4, r5, r6, r8, sp, lr}^
    1da4:	6620676e 	strtvs	r6, [r0], -lr, ror #14
    1da8:	6873616c 	ldmdavs	r3!, {r2, r3, r5, r6, r8, sp, lr}^
    1dac:	000a2120 	andeq	r2, sl, r0, lsr #2
    1db0:	f002 bb87 	b.w	44c2 <Code_1174>

00001db4 <Dictionary_427>:
    1db4:	00001e30 	andeq	r1, r0, r0, lsr lr
    1db8:	650a0000 	strvs	r0, [sl, #-0]
    1dbc:	65736172 	ldrbvs	r6, [r3, #-370]!	; 0x172
    1dc0:	73616c66 	cmnvc	r1, #26112	; 0x6600
    1dc4:	48210068 	stmdami	r1!, {r3, r5, r6}

00001dc6 <Code_427>:
    1dc6:	4821      	ldr	r0, [pc, #132]	; (1e4c <Code_435+0x6>)

00001dc8 <eraseflash_intern>:
    1dc8:	4927      	ldr	r1, [pc, #156]	; (1e68 <Code_435+0x22>)
    1dca:	f64f 72ff 	movw	r2, #65535	; 0xffff
    1dce:	8803      	ldrh	r3, [r0, #0]
    1dd0:	4293      	cmp	r3, r2
    1dd2:	d01c      	beq.n	1e0e <eraseflash_intern+0x46>
    1dd4:	f847 6d04 	str.w	r6, [r7, #-4]!
    1dd8:	0006      	movs	r6, r0
    1dda:	f847 6d04 	str.w	r6, [r7, #-4]!
    1dde:	f000 fc64 	bl	26aa <dotgaensefuesschen>
    1de2:	61724510 	cmnvs	r2, r0, lsl r5
    1de6:	62206573 	eorvs	r6, r0, #482344960	; 0x1cc00000
    1dea:	6b636f6c 	blvs	18ddba2 <BIT24+0x8ddba2>
    1dee:	20746120 	rsbscs	r6, r4, r0, lsr #2
    1df2:	f0000020 			; <UNDEFINED> instruction: 0xf0000020
    1df6:	fccc f000 	stc2l	0, cr15, [ip], {0}
    1dfa:	fc57 200c 	mrrc2	0, 0, r2, r7, cr12
    1dfe:	6d6f7266 	sfmvs	f7, 2, [pc, #-408]!	; 1c6c <Code_414+0x18>
    1e02:	616c4620 	cmnvs	ip, r0, lsr #12
    1e06:	000a6873 	andeq	r6, sl, r3, ror r8
    1e0a:	f7ff ffab 	bl	1d64 <Code_424>
    1e0e:	3002      	adds	r0, #2
    1e10:	4288      	cmp	r0, r1
    1e12:	d1dc      	bne.n	1dce <eraseflash_intern+0x6>
    1e14:	f000 fc49 	bl	26aa <dotgaensefuesschen>
    1e18:	6e694612 	mcrvs	6, 3, r4, cr9, cr2, {0}
    1e1c:	65687369 	strbvs	r7, [r8, #-873]!	; 0x369
    1e20:	52202e64 	eorpl	r2, r0, #1600	; 0x640
    1e24:	74657365 	strbtvc	r7, [r5], #-869	; 0x365
    1e28:	000a2120 	andeq	r2, sl, r0, lsr #2
    1e2c:	f002 bbd7 	b.w	45de <Code_1187>

00001e30 <Dictionary_435>:
    1e30:	00001e6c 	andeq	r1, r0, ip, ror #28
    1e34:	650e0000 	strvs	r0, [lr, #-0]
    1e38:	65736172 	ldrbvs	r6, [r3, #-370]!	; 0x172
    1e3c:	73616c66 	cmnvc	r1, #26112	; 0x6600
    1e40:	6f726668 	svcvs	0x00726668
    1e44:	0030006d 	eorseq	r0, r0, sp, rrx

00001e46 <Code_435>:
    1e46:	0030      	movs	r0, r6
    1e48:	cf40      	ldmia	r7!, {r6}
    1e4a:	e7bd      	b.n	1dc8 <eraseflash_intern>
    1e4c:	00006000 	andeq	r6, r0, r0
    1e50:	400fd004 	andmi	sp, pc, r4
    1e54:	400fd000 	andmi	sp, pc, r0
    1e58:	400fd008 	andmi	sp, pc, r8
    1e5c:	a4420001 	strbge	r0, [r2], #-1
    1e60:	0000ffff 	strdeq	pc, [r0], -pc	; <UNPREDICTABLE>
    1e64:	a4420002 	strbge	r0, [r2], #-2
    1e68:	00040000 	andeq	r0, r4, r0

00001e6c <Dictionary_437>:
    1e6c:	00001ea2 	andeq	r1, r0, r2, lsr #29
    1e70:	2b010262 	blcs	42800 <BIT18+0x2800>

00001e74 <Code_437>:
    1e74:	cf01      	ldmia	r7!, {r0}
    1e76:	1836      	adds	r6, r6, r0
    1e78:	4770      	bx	lr

00001e7a <plus_allocator>:
    1e7a:	b500      	push	{lr}
    1e7c:	f7fe faa2 	bl	3c4 <expect_two_elements>
    1e80:	f847 6d04 	str.w	r6, [r7, #-4]!
    1e84:	f243 0600 	movw	r6, #12288	; 0x3000
    1e88:	f847 6d04 	str.w	r6, [r7, #-4]!
    1e8c:	4eda      	ldr	r6, [pc, #872]	; (21f8 <Code_509+0xa>)
    1e8e:	f847 6d04 	str.w	r6, [r7, #-4]!
    1e92:	f641 0600 	movw	r6, #6144	; 0x1800
    1e96:	6981      	ldr	r1, [r0, #24]
    1e98:	2928      	cmp	r1, #40	; 0x28
    1e9a:	d117      	bne.n	1ecc <Code_443+0x22>
    1e9c:	f7fe fff9 	bl	e92 <swap_allocator>
    1ea0:	e014      	b.n	1ecc <Code_443+0x22>

00001ea2 <Dictionary_443>:
    1ea2:	00001f64 	andeq	r1, r0, r4, ror #30
    1ea6:	2d010262 	sfmcs	f0, 4, [r1, #-392]	; 0xfffffe78

00001eaa <Code_443>:
    1eaa:	cf01      	ldmia	r7!, {r0}
    1eac:	1b86      	subs	r6, r0, r6
    1eae:	4770      	bx	lr
    1eb0:	b500      	push	{lr}
    1eb2:	f7fe fa87 	bl	3c4 <expect_two_elements>
    1eb6:	f847 6d04 	str.w	r6, [r7, #-4]!
    1eba:	f643 0600 	movw	r6, #14336	; 0x3800
    1ebe:	f847 6d04 	str.w	r6, [r7, #-4]!
    1ec2:	4ece      	ldr	r6, [pc, #824]	; (21fc <Code_509+0xe>)
    1ec4:	f847 6d04 	str.w	r6, [r7, #-4]!
    1ec8:	f641 2600 	movw	r6, #6656	; 0x1a00
    1ecc:	6901      	ldr	r1, [r0, #16]
    1ece:	2928      	cmp	r1, #40	; 0x28
    1ed0:	d12c      	bne.n	1f2c <Code_443+0x82>
    1ed2:	6941      	ldr	r1, [r0, #20]
    1ed4:	29ff      	cmp	r1, #255	; 0xff
    1ed6:	d80c      	bhi.n	1ef2 <Code_443+0x48>
    1ed8:	cf40      	ldmia	r7!, {r6}
    1eda:	cf40      	ldmia	r7!, {r6}
    1edc:	f7fe fab2 	bl	444 <nos_change_tos_away_later>
    1ee0:	430e      	orrs	r6, r1
    1ee2:	6981      	ldr	r1, [r0, #24]
    1ee4:	0209      	lsls	r1, r1, #8
    1ee6:	430e      	orrs	r6, r1
    1ee8:	f001 f930 	bl	314c <Code_787>
    1eec:	f7fe fa9a 	bl	424 <eliminiere_tos>
    1ef0:	bd00      	pop	{pc}
    1ef2:	f847 6d04 	str.w	r6, [r7, #-4]!
    1ef6:	000e      	movs	r6, r1
    1ef8:	f000 fd1e 	bl	2938 <Code_650>
    1efc:	cf02      	ldmia	r7!, {r1}
    1efe:	2e00      	cmp	r6, #0
    1f00:	cf40      	ldmia	r7!, {r6}
    1f02:	d013      	beq.n	1f2c <Code_443+0x82>
    1f04:	cf40      	ldmia	r7!, {r6}
    1f06:	3704      	adds	r7, #4
    1f08:	430e      	orrs	r6, r1
    1f0a:	6981      	ldr	r1, [r0, #24]
    1f0c:	ea56 4601 	orrs.w	r6, r6, r1, lsl #16
    1f10:	f7fe fa88 	bl	424 <eliminiere_tos>
    1f14:	f7fe fa86 	bl	424 <eliminiere_tos>
    1f18:	f7fe f9c2 	bl	2a0 <befreie_tos>
    1f1c:	f7fe fa24 	bl	368 <get_free_register>
    1f20:	6103      	str	r3, [r0, #16]
    1f22:	ea56 2603 	orrs.w	r6, r6, r3, lsl #8
    1f26:	f001 f939 	bl	319c <Code_796>
    1f2a:	bd00      	pop	{pc}
    1f2c:	3704      	adds	r7, #4
    1f2e:	3704      	adds	r7, #4
    1f30:	f7fe fa66 	bl	400 <expect_tos_in_register>
    1f34:	6982      	ldr	r2, [r0, #24]
    1f36:	2a28      	cmp	r2, #40	; 0x28
    1f38:	d103      	bne.n	1f42 <Code_443+0x98>
    1f3a:	69c3      	ldr	r3, [r0, #28]
    1f3c:	f7fe f9e1 	bl	302 <generiere_konstante>
    1f40:	001a      	movs	r2, r3
    1f42:	0189      	lsls	r1, r1, #6
    1f44:	00d2      	lsls	r2, r2, #3
    1f46:	430e      	orrs	r6, r1
    1f48:	4316      	orrs	r6, r2
    1f4a:	f7fe fa6b 	bl	424 <eliminiere_tos>
    1f4e:	f7fe fa69 	bl	424 <eliminiere_tos>
    1f52:	f7fe f9a5 	bl	2a0 <befreie_tos>
    1f56:	f7fe fa07 	bl	368 <get_free_register>
    1f5a:	6103      	str	r3, [r0, #16]
    1f5c:	431e      	orrs	r6, r3
    1f5e:	f001 f8f5 	bl	314c <Code_787>
    1f62:	bd00      	pop	{pc}

00001f64 <Dictionary_458>:
    1f64:	00001f9c 	muleq	r0, ip, pc	; <UNPREDICTABLE>
    1f68:	31020261 	tstcc	r2, r1, ror #4
    1f6c:	3e01002d 	cdpcc	0, 0, cr0, cr1, cr13, {1}

00001f6e <Code_458>:
    1f6e:	3e01      	subs	r6, #1
    1f70:	4770      	bx	lr

00001f72 <allocator_one_minus>:
    1f72:	f847 6d04 	str.w	r6, [r7, #-4]!
    1f76:	f641 6640 	movw	r6, #7744	; 0x1e40

00001f7a <chsmallplusminus>:
    1f7a:	b500      	push	{lr}
    1f7c:	f7fe fa19 	bl	3b2 <expect_one_element>
    1f80:	6901      	ldr	r1, [r0, #16]
    1f82:	00c9      	lsls	r1, r1, #3
    1f84:	430e      	orrs	r6, r1
    1f86:	f7fe fa4d 	bl	424 <eliminiere_tos>
    1f8a:	f7fe f989 	bl	2a0 <befreie_tos>
    1f8e:	f7fe f9eb 	bl	368 <get_free_register>
    1f92:	6103      	str	r3, [r0, #16]
    1f94:	431e      	orrs	r6, r3
    1f96:	f001 f8d9 	bl	314c <Code_787>
    1f9a:	bd00      	pop	{pc}

00001f9c <Dictionary_461>:
    1f9c:	00001fb4 			; <UNDEFINED> instruction: 0x00001fb4
    1fa0:	31020261 	tstcc	r2, r1, ror #4
    1fa4:	3601002b 	strcc	r0, [r1], -fp, lsr #32

00001fa6 <Code_461>:
    1fa6:	3601      	adds	r6, #1
    1fa8:	4770      	bx	lr
    1faa:	f847 6d04 	str.w	r6, [r7, #-4]!
    1fae:	f641 4640 	movw	r6, #7232	; 0x1c40
    1fb2:	e7e2      	b.n	1f7a <chsmallplusminus>

00001fb4 <Dictionary_464>:
    1fb4:	00001fcc 	andeq	r1, r0, ip, asr #31
    1fb8:	32020261 	andcc	r0, r2, #268435462	; 0x10000006
    1fbc:	3e02002d 	cdpcc	0, 0, cr0, cr2, cr13, {1}

00001fbe <Code_464>:
    1fbe:	3e02      	subs	r6, #2
    1fc0:	4770      	bx	lr
    1fc2:	f847 6d04 	str.w	r6, [r7, #-4]!
    1fc6:	f641 6680 	movw	r6, #7808	; 0x1e80
    1fca:	e7d6      	b.n	1f7a <chsmallplusminus>

00001fcc <Dictionary_467>:
    1fcc:	00001fe4 	andeq	r1, r0, r4, ror #31
    1fd0:	32020261 	andcc	r0, r2, #268435462	; 0x10000006
    1fd4:	3602002b 	strcc	r0, [r2], -fp, lsr #32

00001fd6 <Code_467>:
    1fd6:	3602      	adds	r6, #2
    1fd8:	4770      	bx	lr
    1fda:	f847 6d04 	str.w	r6, [r7, #-4]!
    1fde:	f641 4680 	movw	r6, #7296	; 0x1c80
    1fe2:	e7ca      	b.n	1f7a <chsmallplusminus>

00001fe4 <Dictionary_470>:
    1fe4:	00001ffe 	strdeq	r1, [r0], -lr
    1fe8:	63050261 	movwvs	r0, #21089	; 0x5261
    1fec:	2b6c6c65 	blcs	1b1d188 <BIT24+0xb1d188>

00001ff0 <Code_470>:
    1ff0:	3604      	adds	r6, #4
    1ff2:	4770      	bx	lr
    1ff4:	f847 6d04 	str.w	r6, [r7, #-4]!
    1ff8:	f641 5600 	movw	r6, #7424	; 0x1d00
    1ffc:	e7bd      	b.n	1f7a <chsmallplusminus>

00001ffe <Dictionary_473>:
    1ffe:	00002030 	andeq	r2, r0, r0, lsr r0
    2002:	6e060061 	cdpvs	0, 0, cr0, cr6, cr1, {3}
    2006:	74616765 	strbtvc	r6, [r1], #-1893	; 0x765
    200a:	42760065 	rsbsmi	r0, r6, #101	; 0x65

0000200c <Code_473>:
    200c:	4276      	negs	r6, r6
    200e:	4770      	bx	lr
    2010:	f847 6d04 	str.w	r6, [r7, #-4]!
    2014:	f244 2640 	movw	r6, #16960	; 0x4240

00002018 <smalltworegisters>:
    2018:	b500      	push	{lr}
    201a:	f7fe f9ca 	bl	3b2 <expect_one_element>
    201e:	f7fe fa22 	bl	466 <make_tos_changeable>
    2022:	6901      	ldr	r1, [r0, #16]
    2024:	430e      	orrs	r6, r1
    2026:	00c9      	lsls	r1, r1, #3
    2028:	430e      	orrs	r6, r1
    202a:	f001 f88f 	bl	314c <Code_787>
    202e:	bd00      	pop	{pc}

00002030 <Dictionary_476>:
    2030:	00002048 	andeq	r2, r0, r8, asr #32
    2034:	6e030261 	cdpvs	2, 0, cr0, cr3, cr1, {3}
    2038:	43f6746f 	mvnsmi	r7, #1862270976	; 0x6f000000

0000203a <Code_476>:
    203a:	43f6      	mvns	r6, r6
    203c:	4770      	bx	lr

0000203e <allocator_not>:
    203e:	f847 6d04 	str.w	r6, [r7, #-4]!
    2042:	f244 36c0 	movw	r6, #17344	; 0x43c0
    2046:	e7e7      	b.n	2018 <smalltworegisters>

00002048 <Dictionary_479>:
    2048:	00002060 	andeq	r2, r0, r0, rrx
    204c:	73030261 	movwvc	r0, #12897	; 0x3261
    2050:	08767268 	ldmdaeq	r6!, {r3, r5, r6, r9, ip, sp, lr}^

00002052 <Code_479>:
    2052:	0876      	lsrs	r6, r6, #1
    2054:	4770      	bx	lr
    2056:	f847 6d04 	str.w	r6, [r7, #-4]!
    205a:	f640 0640 	movw	r6, #2112	; 0x840
    205e:	e7db      	b.n	2018 <smalltworegisters>

00002060 <Dictionary_482>:
    2060:	00002070 	andeq	r2, r0, r0, ror r0
    2064:	73030261 	movwvc	r0, #12897	; 0x3261
    2068:	00766c68 	rsbseq	r6, r6, r8, ror #24

0000206a <Code_482>:
    206a:	0076      	lsls	r6, r6, #1
    206c:	4770      	bx	lr
    206e:	e006      	b.n	207e <Code_483+0x4>

00002070 <Dictionary_483>:
    2070:	00002086 	andeq	r2, r0, r6, lsl #1
    2074:	32020261 	andcc	r0, r2, #268435462	; 0x10000006
    2078:	0076002a 	rsbseq	r0, r6, sl, lsr #32

0000207a <Code_483>:
    207a:	0076      	lsls	r6, r6, #1
    207c:	4770      	bx	lr
    207e:	f847 6d04 	str.w	r6, [r7, #-4]!
    2082:	2640      	movs	r6, #64	; 0x40
    2084:	e7c8      	b.n	2018 <smalltworegisters>

00002086 <Dictionary_486>:
    2086:	0000209e 	muleq	r0, lr, r0
    208a:	63050261 	movwvs	r0, #21089	; 0x5261
    208e:	736c6c65 	cmnvc	ip, #25856	; 0x6500

00002092 <Code_486>:
    2092:	00b6      	lsls	r6, r6, #2
    2094:	4770      	bx	lr
    2096:	f847 6d04 	str.w	r6, [r7, #-4]!
    209a:	2680      	movs	r6, #128	; 0x80
    209c:	e7bc      	b.n	2018 <smalltworegisters>

0000209e <Dictionary_489>:
    209e:	000020b6 	strheq	r2, [r0], -r6
    20a2:	32020261 	andcc	r0, r2, #268435462	; 0x10000006
    20a6:	1076002f 	rsbsne	r0, r6, pc, lsr #32

000020a8 <Code_489>:
    20a8:	1076      	asrs	r6, r6, #1
    20aa:	4770      	bx	lr
    20ac:	f847 6d04 	str.w	r6, [r7, #-4]!
    20b0:	f241 0640 	movw	r6, #4160	; 0x1040
    20b4:	e7b0      	b.n	2018 <smalltworegisters>

000020b6 <Dictionary_492>:
    20b6:	000020c8 	andeq	r2, r0, r8, asr #1
    20ba:	61030061 	tstvs	r3, r1, rrx
    20be:	17f07362 	ldrbne	r7, [r0, r2, ror #6]!

000020c0 <Code_492>:
    20c0:	17f0      	asrs	r0, r6, #31
    20c2:	1836      	adds	r6, r6, r0
    20c4:	4046      	eors	r6, r0
    20c6:	4770      	bx	lr

000020c8 <Dictionary_493>:
    20c8:	000020e6 	andeq	r2, r0, r6, ror #1
    20cc:	75050042 	strvc	r0, [r5, #-66]	; 0x42
    20d0:	646f6d2f 	strbtvs	r6, [pc], #-3375	; 20d8 <Code_493+0x4>

000020d4 <Code_493>:
    20d4:	cf01      	ldmia	r7!, {r0}
    20d6:	0031      	movs	r1, r6
    20d8:	fbb0 f6f6 	udiv	r6, r0, r6
    20dc:	4371      	muls	r1, r6
    20de:	1a40      	subs	r0, r0, r1
    20e0:	3f04      	subs	r7, #4
    20e2:	6038      	str	r0, [r7, #0]
    20e4:	4770      	bx	lr

000020e6 <Dictionary_494>:
    20e6:	00002104 	andeq	r2, r0, r4, lsl #2
    20ea:	2f040042 	svccs	0x00040042
    20ee:	00646f6d 	rsbeq	r6, r4, sp, ror #30

000020f2 <Code_494>:
    20f2:	cf01      	ldmia	r7!, {r0}
    20f4:	0031      	movs	r1, r6
    20f6:	fb90 f6f6 	sdiv	r6, r0, r6
    20fa:	4371      	muls	r1, r6
    20fc:	1a40      	subs	r0, r0, r1
    20fe:	3f04      	subs	r7, #4
    2100:	6038      	str	r0, [r7, #0]
    2102:	4770      	bx	lr

00002104 <Dictionary_495>:
    2104:	00002118 	andeq	r2, r0, r8, lsl r1
    2108:	6d030042 	stcvs	0, cr0, [r3, #-264]	; 0xfffffef8
    210c:	b500646f 	strlt	r6, [r0, #-1135]	; 0x46f

0000210e <Code_495>:
    210e:	b500      	push	{lr}
    2110:	f7ff ffef 	bl	20f2 <Code_494>
    2114:	cf40      	ldmia	r7!, {r6}
    2116:	bd00      	pop	{pc}

00002118 <Dictionary_497>:
    2118:	0000217c 	andeq	r2, r0, ip, ror r1
    211c:	2f010262 	svccs	0x00010262

00002120 <Code_497>:
    2120:	cf01      	ldmia	r7!, {r0}
    2122:	fb90 f6f6 	sdiv	r6, r0, r6
    2126:	4770      	bx	lr
    2128:	b500      	push	{lr}
    212a:	f7fe f94b 	bl	3c4 <expect_two_elements>
    212e:	f7fe f967 	bl	400 <expect_tos_in_register>
    2132:	6982      	ldr	r2, [r0, #24]
    2134:	2a28      	cmp	r2, #40	; 0x28
    2136:	d10b      	bne.n	2150 <Code_497+0x30>
    2138:	f847 6d04 	str.w	r6, [r7, #-4]!
    213c:	69c6      	ldr	r6, [r0, #28]
    213e:	f7fe f913 	bl	368 <get_free_register>
    2142:	6183      	str	r3, [r0, #24]
    2144:	f847 6d04 	str.w	r6, [r7, #-4]!
    2148:	001e      	movs	r6, r3
    214a:	001a      	movs	r2, r3
    214c:	f000 fca8 	bl	2aa0 <Code_659>
    2150:	f847 6d04 	str.w	r6, [r7, #-4]!
    2154:	4e2a      	ldr	r6, [pc, #168]	; (2200 <Code_509+0x12>)
    2156:	6901      	ldr	r1, [r0, #16]
    2158:	430e      	orrs	r6, r1
    215a:	6981      	ldr	r1, [r0, #24]
    215c:	ea56 4601 	orrs.w	r6, r6, r1, lsl #16
    2160:	f7fe f960 	bl	424 <eliminiere_tos>
    2164:	f7fe f95e 	bl	424 <eliminiere_tos>
    2168:	f7fe f89a 	bl	2a0 <befreie_tos>
    216c:	f7fe f8fc 	bl	368 <get_free_register>
    2170:	6103      	str	r3, [r0, #16]
    2172:	ea56 2603 	orrs.w	r6, r6, r3, lsl #8
    2176:	f001 f811 	bl	319c <Code_796>
    217a:	bd00      	pop	{pc}

0000217c <Dictionary_502>:
    217c:	0000218c 	andeq	r2, r0, ip, lsl #3
    2180:	2a013220 	bcs	4ea08 <BIT18+0xea08>

00002184 <Code_502>:
    2184:	cf01      	ldmia	r7!, {r0}
    2186:	4346      	muls	r6, r0
    2188:	4770      	bx	lr
    218a:	4340      	muls	r0, r0

0000218c <Dictionary_503>:
    218c:	000021a0 	andeq	r2, r0, r0, lsr #3
    2190:	65040061 	strvs	r0, [r4, #-97]	; 0x61
    2194:	006e6576 	rsbeq	r6, lr, r6, ror r5

00002198 <Code_503>:
    2198:	2001      	movs	r0, #1
    219a:	4030      	ands	r0, r6
    219c:	1836      	adds	r6, r6, r0
    219e:	4770      	bx	lr

000021a0 <Dictionary_504>:
    21a0:	000021b8 			; <UNDEFINED> instruction: 0x000021b8
    21a4:	62040081 	andvs	r0, r4, #129	; 0x81
    21a8:	00657361 	rsbeq	r7, r5, r1, ror #6

000021ac <Code_504>:
    21ac:	f847 6d04 	str.w	r6, [r7, #-4]!
    21b0:	4e14      	ldr	r6, [pc, #80]	; (2204 <Code_509+0x16>)
    21b2:	4770      	bx	lr
    21b4:	0000000a 	andeq	r0, r0, sl

000021b8 <Dictionary_507>:
    21b8:	000021ce 	andeq	r2, r0, lr, asr #3
    21bc:	62060000 	andvs	r0, r6, #0
    21c0:	72616e69 	rsbvc	r6, r1, #1680	; 0x690
    21c4:	480f0079 	stmdami	pc, {r0, r3, r4, r5, r6}	; <UNPREDICTABLE>

000021c6 <Code_507>:
    21c6:	480f      	ldr	r0, [pc, #60]	; (2204 <Code_509+0x16>)
    21c8:	2102      	movs	r1, #2
    21ca:	6001      	str	r1, [r0, #0]
    21cc:	4770      	bx	lr

000021ce <Dictionary_508>:
    21ce:	000021e4 	andeq	r2, r0, r4, ror #3
    21d2:	64070000 	strvs	r0, [r7], #-0
    21d6:	6d696365 	stclvs	3, cr6, [r9, #-404]!	; 0xfffffe6c
    21da:	48096c61 	stmdami	r9, {r0, r5, r6, sl, fp, sp, lr}

000021dc <Code_508>:
    21dc:	4809      	ldr	r0, [pc, #36]	; (2204 <Code_509+0x16>)
    21de:	210a      	movs	r1, #10
    21e0:	6001      	str	r1, [r0, #0]
    21e2:	4770      	bx	lr

000021e4 <Dictionary_509>:
    21e4:	00002208 	andeq	r2, r0, r8, lsl #4
    21e8:	68030000 	stmdavs	r3, {}	; <UNPREDICTABLE>
    21ec:	48057865 	stmdami	r5, {r0, r2, r5, r6, fp, ip, sp, lr}

000021ee <Code_509>:
    21ee:	4805      	ldr	r0, [pc, #20]	; (2204 <Code_509+0x16>)
    21f0:	2110      	movs	r1, #16
    21f2:	6001      	str	r1, [r0, #0]
    21f4:	4770      	bx	lr
    21f6:	00000000 	andeq	r0, r0, r0
    21fa:	0000f110 	andeq	pc, r0, r0, lsl r1	; <UNPREDICTABLE>
    21fe:	f0f0f1b0 			; <UNDEFINED> instruction: 0xf0f0f1b0
    2202:	7ffcfb90 	svcvc	0x00fcfb90
    2206:	22242000 	eorcs	r2, r4, #0

00002208 <Dictionary_510>:
    2208:	00002224 	andeq	r2, r0, r4, lsr #4
    220c:	68090081 	stmdavs	r9, {r0, r7}
    2210:	2d6b6f6f 	stclcs	15, cr6, [fp, #-444]!	; 0xfffffe44
    2214:	74696d65 	strbtvc	r6, [r9], #-3429	; 0xd65

00002218 <Code_510>:
    2218:	f847 6d04 	str.w	r6, [r7, #-4]!
    221c:	4e73      	ldr	r6, [pc, #460]	; (23ec <uart_init+0x46>)
    221e:	4770      	bx	lr
    2220:	0000230e 	andeq	r2, r0, lr, lsl #6

00002224 <Dictionary_513>:
    2224:	00002240 	andeq	r2, r0, r0, asr #4
    2228:	68080081 	stmdavs	r8, {r0, r7}
    222c:	2d6b6f6f 	stclcs	15, cr6, [fp, #-444]!	; 0xfffffe44
    2230:	0079656b 	rsbseq	r6, r9, fp, ror #10

00002234 <Code_513>:
    2234:	f847 6d04 	str.w	r6, [r7, #-4]!
    2238:	4e6d      	ldr	r6, [pc, #436]	; (23f0 <uart_init+0x4a>)
    223a:	4770      	bx	lr
    223c:	00002334 	andeq	r2, r0, r4, lsr r3

00002240 <Dictionary_516>:
    2240:	0000225e 	andeq	r2, r0, lr, asr r2
    2244:	680a0081 	stmdavs	sl, {r0, r7}
    2248:	2d6b6f6f 	stclcs	15, cr6, [fp, #-444]!	; 0xfffffe44
    224c:	74696d65 	strbtvc	r6, [r9], #-3429	; 0xd65
    2250:	f847003f 			; <UNDEFINED> instruction: 0xf847003f

00002252 <Code_516>:
    2252:	f847 6d04 	str.w	r6, [r7, #-4]!
    2256:	4e67      	ldr	r6, [pc, #412]	; (23f4 <uart_init+0x4e>)
    2258:	4770      	bx	lr
    225a:	00002360 	andeq	r2, r0, r0, ror #6

0000225e <Dictionary_519>:
    225e:	0000227a 	andeq	r2, r0, sl, ror r2
    2262:	68090081 	stmdavs	r9, {r0, r7}
    2266:	2d6b6f6f 	stclcs	15, cr6, [fp, #-444]!	; 0xfffffe44
    226a:	3f79656b 	svccc	0x0079656b

0000226e <Code_519>:
    226e:	f847 6d04 	str.w	r6, [r7, #-4]!
    2272:	4e61      	ldr	r6, [pc, #388]	; (23f8 <uart_init+0x52>)
    2274:	4770      	bx	lr
    2276:	0000238c 	andeq	r2, r0, ip, lsl #7

0000227a <Dictionary_522>:
    227a:	00002298 	muleq	r0, r8, r2
    227e:	680a0081 	stmdavs	sl, {r0, r7}
    2282:	2d6b6f6f 	stclcs	15, cr6, [fp, #-444]!	; 0xfffffe44
    2286:	73756170 	cmnvc	r5, #28
    228a:	f8470065 			; <UNDEFINED> instruction: 0xf8470065

0000228c <Code_522>:
    228c:	f847 6d04 	str.w	r6, [r7, #-4]!
    2290:	4e5a      	ldr	r6, [pc, #360]	; (23fc <uart_init+0x56>)
    2292:	4770      	bx	lr
    2294:	0000458e 	andeq	r4, r0, lr, lsl #11

00002298 <Dictionary_525>:
    2298:	000022ae 	andeq	r2, r0, lr, lsr #5
    229c:	65040000 	strvs	r0, [r4, #-0]
    22a0:	0074696d 	rsbseq	r6, r4, sp, ror #18

000022a4 <Code_525>:
    22a4:	b50f      	push	{r0, r1, r2, r3, lr}
    22a6:	4851      	ldr	r0, [pc, #324]	; (23ec <uart_init+0x46>)
    22a8:	f000 f826 	bl	22f8 <hook_intern>
    22ac:	bd0f      	pop	{r0, r1, r2, r3, pc}

000022ae <Dictionary_526>:
    22ae:	000022c2 	andeq	r2, r0, r2, asr #5
    22b2:	6b030000 	blvs	c22ba <BIT19+0x422ba>
    22b6:	b50f7965 	strlt	r7, [pc, #-2405]	; 1959 <Code_377+0x21>

000022b8 <Code_526>:
    22b8:	b50f      	push	{r0, r1, r2, r3, lr}
    22ba:	484d      	ldr	r0, [pc, #308]	; (23f0 <uart_init+0x4a>)
    22bc:	f000 f81c 	bl	22f8 <hook_intern>
    22c0:	bd0f      	pop	{r0, r1, r2, r3, pc}

000022c2 <Dictionary_527>:
    22c2:	000022d4 	ldrdeq	r2, [r0], -r4
    22c6:	65050000 	strvs	r0, [r5, #-0]
    22ca:	3f74696d 	svccc	0x0074696d

000022ce <Code_527>:
    22ce:	4849      	ldr	r0, [pc, #292]	; (23f4 <uart_init+0x4e>)
    22d0:	6800      	ldr	r0, [r0, #0]
    22d2:	4687      	mov	pc, r0

000022d4 <Dictionary_528>:
    22d4:	000022e6 	andeq	r2, r0, r6, ror #5
    22d8:	6b040000 	blvs	1022e0 <BIT20+0x22e0>
    22dc:	003f7965 	eorseq	r7, pc, r5, ror #18

000022e0 <Code_528>:
    22e0:	4845      	ldr	r0, [pc, #276]	; (23f8 <uart_init+0x52>)
    22e2:	6800      	ldr	r0, [r0, #0]
    22e4:	4687      	mov	pc, r0

000022e6 <Dictionary_529>:
    22e6:	000022fc 	strdeq	r2, [r0], -ip
    22ea:	70050000 	andvc	r0, r5, r0
    22ee:	65737561 	ldrbvs	r7, [r3, #-1377]!	; 0x561

000022f2 <Code_529>:
    22f2:	4842      	ldr	r0, [pc, #264]	; (23fc <uart_init+0x56>)
    22f4:	6800      	ldr	r0, [r0, #0]
    22f6:	4687      	mov	pc, r0

000022f8 <hook_intern>:
    22f8:	6800      	ldr	r0, [r0, #0]
    22fa:	4687      	mov	pc, r0

000022fc <Dictionary_530>:
    22fc:	00002322 	andeq	r2, r0, r2, lsr #6
    2300:	730b0000 	movwvc	r0, #45056	; 0xb000
    2304:	61697265 	cmnvs	r9, r5, ror #4
    2308:	6d652d6c 	stclvs	13, cr2, [r5, #-432]!	; 0xfffffe50
    230c:	b5007469 	strlt	r7, [r0, #-1129]	; 0x469

0000230e <Code_530>:
    230e:	b500      	push	{lr}
    2310:	f000 f826 	bl	2360 <Code_535>
    2314:	2e00      	cmp	r6, #0
    2316:	cf40      	ldmia	r7!, {r6}
    2318:	d0fa      	beq.n	2310 <Code_530+0x2>
    231a:	4839      	ldr	r0, [pc, #228]	; (2400 <uart_init+0x5a>)
    231c:	6006      	str	r6, [r0, #0]
    231e:	cf40      	ldmia	r7!, {r6}
    2320:	bd00      	pop	{pc}

00002322 <Dictionary_533>:
    2322:	0000234c 	andeq	r2, r0, ip, asr #6
    2326:	730a0000 	movwvc	r0, #40960	; 0xa000
    232a:	61697265 	cmnvs	r9, r5, ror #4
    232e:	656b2d6c 	strbvs	r2, [fp, #-3436]!	; 0xd6c
    2332:	b5000079 	strlt	r0, [r0, #-121]	; 0x79

00002334 <Code_533>:
    2334:	b500      	push	{lr}
    2336:	f000 f829 	bl	238c <Code_538>
    233a:	2e00      	cmp	r6, #0
    233c:	cf40      	ldmia	r7!, {r6}
    233e:	d0fa      	beq.n	2336 <Code_533+0x2>
    2340:	482f      	ldr	r0, [pc, #188]	; (2400 <uart_init+0x5a>)
    2342:	f847 6d04 	str.w	r6, [r7, #-4]!
    2346:	6806      	ldr	r6, [r0, #0]
    2348:	b2f6      	uxtb	r6, r6
    234a:	bd00      	pop	{pc}

0000234c <Dictionary_535>:
    234c:	0000237a 	andeq	r2, r0, sl, ror r3
    2350:	730c0000 	movwvc	r0, #49152	; 0xc000
    2354:	61697265 	cmnvs	r9, r5, ror #4
    2358:	6d652d6c 	stclvs	13, cr2, [r5, #-432]!	; 0xfffffe50
    235c:	003f7469 	eorseq	r7, pc, r9, ror #8

00002360 <Code_535>:
    2360:	b500      	push	{lr}
    2362:	f7ff ffc6 	bl	22f2 <Code_529>
    2366:	f847 6d04 	str.w	r6, [r7, #-4]!
    236a:	2600      	movs	r6, #0
    236c:	4825      	ldr	r0, [pc, #148]	; (2404 <uart_init+0x5e>)
    236e:	6801      	ldr	r1, [r0, #0]
    2370:	f011 0120 	ands.w	r1, r1, #32
    2374:	d100      	bne.n	2378 <Code_535+0x18>
    2376:	43f6      	mvns	r6, r6
    2378:	bd00      	pop	{pc}

0000237a <Dictionary_538>:
    237a:	0000242c 	andeq	r2, r0, ip, lsr #8
    237e:	730b0000 	movwvc	r0, #45056	; 0xb000
    2382:	61697265 	cmnvs	r9, r5, ror #4
    2386:	656b2d6c 	strbvs	r2, [fp, #-3436]!	; 0xd6c
    238a:	b5003f79 	strlt	r3, [r0, #-3961]	; 0xf79

0000238c <Code_538>:
    238c:	b500      	push	{lr}
    238e:	f7ff ffb0 	bl	22f2 <Code_529>
    2392:	f847 6d04 	str.w	r6, [r7, #-4]!
    2396:	2600      	movs	r6, #0
    2398:	481a      	ldr	r0, [pc, #104]	; (2404 <uart_init+0x5e>)
    239a:	6801      	ldr	r1, [r0, #0]
    239c:	f011 0110 	ands.w	r1, r1, #16
    23a0:	d100      	bne.n	23a4 <Code_538+0x18>
    23a2:	43f6      	mvns	r6, r6
    23a4:	bd00      	pop	{pc}

000023a6 <uart_init>:
    23a6:	2101      	movs	r1, #1
    23a8:	4817      	ldr	r0, [pc, #92]	; (2408 <uart_init+0x62>)
    23aa:	6001      	str	r1, [r0, #0]
    23ac:	213f      	movs	r1, #63	; 0x3f
    23ae:	4817      	ldr	r0, [pc, #92]	; (240c <uart_init+0x66>)
    23b0:	6001      	str	r1, [r0, #0]
    23b2:	2103      	movs	r1, #3
    23b4:	4816      	ldr	r0, [pc, #88]	; (2410 <uart_init+0x6a>)
    23b6:	6001      	str	r1, [r0, #0]
    23b8:	4816      	ldr	r0, [pc, #88]	; (2414 <uart_init+0x6e>)
    23ba:	6001      	str	r1, [r0, #0]
    23bc:	2100      	movs	r1, #0
    23be:	4816      	ldr	r0, [pc, #88]	; (2418 <uart_init+0x72>)
    23c0:	6001      	str	r1, [r0, #0]
    23c2:	2108      	movs	r1, #8
    23c4:	4815      	ldr	r0, [pc, #84]	; (241c <uart_init+0x76>)
    23c6:	6001      	str	r1, [r0, #0]
    23c8:	212c      	movs	r1, #44	; 0x2c
    23ca:	4815      	ldr	r0, [pc, #84]	; (2420 <uart_init+0x7a>)
    23cc:	6001      	str	r1, [r0, #0]
    23ce:	2170      	movs	r1, #112	; 0x70
    23d0:	4814      	ldr	r0, [pc, #80]	; (2424 <uart_init+0x7e>)
    23d2:	6001      	str	r1, [r0, #0]
    23d4:	2105      	movs	r1, #5
    23d6:	4814      	ldr	r0, [pc, #80]	; (2428 <uart_init+0x82>)
    23d8:	6001      	str	r1, [r0, #0]
    23da:	2100      	movs	r1, #0
    23dc:	4809      	ldr	r0, [pc, #36]	; (2404 <uart_init+0x5e>)
    23de:	6001      	str	r1, [r0, #0]
    23e0:	f240 3101 	movw	r1, #769	; 0x301
    23e4:	480c      	ldr	r0, [pc, #48]	; (2418 <uart_init+0x72>)
    23e6:	6001      	str	r1, [r0, #0]
    23e8:	4770      	bx	lr
    23ea:	7ff80000 	svcvc	0x00f80000
    23ee:	7ff42000 	svcvc	0x00f42000
    23f2:	7ff02000 	svcvc	0x00f02000
    23f6:	7fec2000 	svcvc	0x00ec2000
    23fa:	7fe82000 	svcvc	0x00e82000
    23fe:	c0002000 	andgt	r2, r0, r0
    2402:	c0184000 	andsgt	r4, r8, r0
    2406:	e6184000 	ldr	r4, [r8], -r0
    240a:	e608400f 	str	r4, [r8], -pc
    240e:	4420400f 	strtmi	r4, [r0], #-15
    2412:	451c4000 	ldrmi	r4, [ip, #-0]
    2416:	c0304000 	eorsgt	r4, r0, r0
    241a:	c0244000 	eorgt	r4, r4, r0
    241e:	c0284000 	eorgt	r4, r8, r0
    2422:	c02c4000 	eorgt	r4, ip, r0
    2426:	cfc84000 	svcgt	0x00c84000
    242a:	24504000 	ldrbcs	r4, [r0], #-0

0000242c <Dictionary_542>:
    242c:	00002450 	andeq	r2, r0, r0, asr r4
    2430:	63070000 	movwvs	r0, #28672	; 0x7000
    2434:	65707865 	ldrbvs	r7, [r0, #-2149]!	; 0x865
    2438:	b5007463 	strlt	r7, [r0, #-1123]	; 0x463

0000243a <Code_542>:
    243a:	b500      	push	{lr}
    243c:	6838      	ldr	r0, [r7, #0]
    243e:	b401      	push	{r0}
    2440:	3001      	adds	r0, #1
    2442:	6038      	str	r0, [r7, #0]
    2444:	f000 f80b 	bl	245e <Code_544>
    2448:	bc01      	pop	{r0}
    244a:	7006      	strb	r6, [r0, #0]
    244c:	cf40      	ldmia	r7!, {r6}
    244e:	bd00      	pop	{pc}

00002450 <Dictionary_544>:
    2450:	000024c6 	andeq	r2, r0, r6, asr #9
    2454:	61060000 	mrsvs	r0, (UNDEF: 6)
    2458:	70656363 	rsbvc	r6, r5, r3, ror #6
    245c:	b5000074 	strlt	r0, [r0, #-116]	; 0x74

0000245e <Code_544>:
    245e:	b500      	push	{lr}
    2460:	cf02      	ldmia	r7!, {r1}
    2462:	3901      	subs	r1, #1
    2464:	2200      	movs	r2, #0
    2466:	f7ff ff27 	bl	22b8 <Code_526>
    246a:	0030      	movs	r0, r6
    246c:	cf40      	ldmia	r7!, {r6}
    246e:	287f      	cmp	r0, #127	; 0x7f
    2470:	d009      	beq.n	2486 <Code_544+0x28>
    2472:	2820      	cmp	r0, #32
    2474:	d219      	bcs.n	24aa <Code_544+0x4c>
    2476:	2809      	cmp	r0, #9
    2478:	d016      	beq.n	24a8 <Code_544+0x4a>
    247a:	280a      	cmp	r0, #10
    247c:	d01f      	beq.n	24be <Code_544+0x60>
    247e:	280d      	cmp	r0, #13
    2480:	d01d      	beq.n	24be <Code_544+0x60>
    2482:	2808      	cmp	r0, #8
    2484:	d1ef      	bne.n	2466 <Code_544+0x8>
    2486:	2a00      	cmp	r2, #0
    2488:	d0ed      	beq.n	2466 <Code_544+0x8>
    248a:	f000 f90e 	bl	26aa <dotgaensefuesschen>
    248e:	08200803 	stmdaeq	r0!, {r0, r1, fp}
    2492:	2a00      	cmp	r2, #0
    2494:	d0e7      	beq.n	2466 <Code_544+0x8>
    2496:	5c88      	ldrb	r0, [r1, r2]
    2498:	3a01      	subs	r2, #1
    249a:	2380      	movs	r3, #128	; 0x80
    249c:	4003      	ands	r3, r0
    249e:	d0e2      	beq.n	2466 <Code_544+0x8>
    24a0:	2340      	movs	r3, #64	; 0x40
    24a2:	4003      	ands	r3, r0
    24a4:	d0f5      	beq.n	2492 <Code_544+0x34>
    24a6:	e7de      	b.n	2466 <Code_544+0x8>
    24a8:	2020      	movs	r0, #32
    24aa:	42b2      	cmp	r2, r6
    24ac:	d2db      	bcs.n	2466 <Code_544+0x8>
    24ae:	f847 6d04 	str.w	r6, [r7, #-4]!
    24b2:	0006      	movs	r6, r0
    24b4:	f7ff fef6 	bl	22a4 <Code_525>
    24b8:	3201      	adds	r2, #1
    24ba:	5488      	strb	r0, [r1, r2]
    24bc:	e7d3      	b.n	2466 <Code_544+0x8>
    24be:	0016      	movs	r6, r2
    24c0:	f000 f8a2 	bl	2608 <Code_575>
    24c4:	bd00      	pop	{pc}

000024c6 <Dictionary_548>:
    24c6:	000024d8 	ldrdeq	r2, [r0], -r8
    24ca:	74030040 	strvc	r0, [r3], #-64	; 0x40
    24ce:	f8476269 			; <UNDEFINED> instruction: 0xf8476269

000024d0 <Code_548>:
    24d0:	f847 6d04 	str.w	r6, [r7, #-4]!
    24d4:	4e29      	ldr	r6, [pc, #164]	; (257c <Code_560+0x22>)
    24d6:	4770      	bx	lr

000024d8 <Dictionary_550>:
    24d8:	000024ee 	andeq	r2, r0, lr, ror #9
    24dc:	3e030081 	cdpcc	0, 0, cr0, cr3, cr1, {4}
    24e0:	f8476e69 			; <UNDEFINED> instruction: 0xf8476e69

000024e2 <Code_550>:
    24e2:	f847 6d04 	str.w	r6, [r7, #-4]!
    24e6:	4e26      	ldr	r6, [pc, #152]	; (2580 <Code_560+0x26>)
    24e8:	4770      	bx	lr
    24ea:	00000000 	andeq	r0, r0, r0

000024ee <Dictionary_553>:
    24ee:	00002514 	andeq	r2, r0, r4, lsl r5
    24f2:	630e0082 	movwvs	r0, #57474	; 0xe082
    24f6:	65727275 	ldrbvs	r7, [r2, #-629]!	; 0x275
    24fa:	732d746e 	teqvc	sp, #1845493760	; 0x6e000000
    24fe:	6372756f 	cmnvs	r2, #465567744	; 0x1bc00000
    2502:	f8470065 			; <UNDEFINED> instruction: 0xf8470065

00002504 <Code_553>:
    2504:	f847 6d04 	str.w	r6, [r7, #-4]!
    2508:	4e1e      	ldr	r6, [pc, #120]	; (2584 <Code_560+0x2a>)
    250a:	4770      	bx	lr
    250c:	00000000 	andeq	r0, r0, r0
    2510:	20000094 	mulcs	r0, r4, r0

00002514 <Dictionary_556>:
    2514:	00002530 	andeq	r2, r0, r0, lsr r5
    2518:	73090000 	movwvc	r0, #36864	; 0x9000
    251c:	6f737465 	svcvs	0x00737465
    2520:	65637275 	strbvs	r7, [r3, #-629]!	; 0x275

00002524 <Code_556>:
    2524:	4817      	ldr	r0, [pc, #92]	; (2584 <Code_560+0x2a>)
    2526:	cf02      	ldmia	r7!, {r1}
    2528:	6006      	str	r6, [r0, #0]
    252a:	6041      	str	r1, [r0, #4]
    252c:	cf40      	ldmia	r7!, {r6}
    252e:	4770      	bx	lr

00002530 <Dictionary_558>:
    2530:	0000254e 	andeq	r2, r0, lr, asr #10
    2534:	73060000 	movwvc	r0, #24576	; 0x6000
    2538:	6372756f 	cmnvs	r2, #465567744	; 0x1bc00000
    253c:	f8470065 			; <UNDEFINED> instruction: 0xf8470065

0000253e <Code_558>:
    253e:	f847 6d04 	str.w	r6, [r7, #-4]!
    2542:	4e10      	ldr	r6, [pc, #64]	; (2584 <Code_560+0x2a>)
    2544:	3f04      	subs	r7, #4
    2546:	6870      	ldr	r0, [r6, #4]
    2548:	6038      	str	r0, [r7, #0]
    254a:	6836      	ldr	r6, [r6, #0]
    254c:	4770      	bx	lr

0000254e <Dictionary_560>:
    254e:	00002588 	andeq	r2, r0, r8, lsl #11
    2552:	71050000 	mrsvc	r0, (UNDEF: 5)
    2556:	79726575 	ldmdbvc	r2!, {r0, r2, r4, r5, r6, r8, sl, sp, lr}^

0000255a <Code_560>:
    255a:	b50f      	push	{r0, r1, r2, r3, lr}
    255c:	4808      	ldr	r0, [pc, #32]	; (2580 <Code_560+0x26>)
    255e:	2100      	movs	r1, #0
    2560:	6001      	str	r1, [r0, #0]
    2562:	f7ff ffb5 	bl	24d0 <Code_548>
    2566:	f847 6d04 	str.w	r6, [r7, #-4]!
    256a:	f847 6d04 	str.w	r6, [r7, #-4]!
    256e:	26c8      	movs	r6, #200	; 0xc8
    2570:	f7ff ff75 	bl	245e <Code_544>
    2574:	f7ff ffd6 	bl	2524 <Code_556>
    2578:	bd0f      	pop	{r0, r1, r2, r3, pc}
    257a:	00940000 	addseq	r0, r4, r0
    257e:	7fe42000 	svcvc	0x00e42000
    2582:	7fdc2000 	svcvc	0x00dc2000
    2586:	25d62000 	ldrbcs	r2, [r6]

00002588 <Dictionary_565>:
    2588:	000025d6 	ldrdeq	r2, [r0], -r6
    258c:	63070000 	movwvs	r0, #28672	; 0x7000
    2590:	61706d6f 	cmnvs	r0, pc, ror #26
    2594:	b50f6572 	strlt	r6, [pc, #-1394]	; 202a <smalltworegisters+0x12>

00002596 <Code_565>:
    2596:	b50f      	push	{r0, r1, r2, r3, lr}
    2598:	0031      	movs	r1, r6
    259a:	cf40      	ldmia	r7!, {r6}
    259c:	cf01      	ldmia	r7!, {r0}
    259e:	4288      	cmp	r0, r1
    25a0:	d002      	beq.n	25a8 <Code_565+0x12>
    25a2:	cf40      	ldmia	r7!, {r6}
    25a4:	2600      	movs	r6, #0
    25a6:	bd0f      	pop	{r0, r1, r2, r3, pc}
    25a8:	cf02      	ldmia	r7!, {r1}
    25aa:	2800      	cmp	r0, #0
    25ac:	d010      	beq.n	25d0 <Code_565+0x3a>
    25ae:	3801      	subs	r0, #1
    25b0:	5c0a      	ldrb	r2, [r1, r0]
    25b2:	5c33      	ldrb	r3, [r6, r0]
    25b4:	2a41      	cmp	r2, #65	; 0x41
    25b6:	d302      	bcc.n	25be <Code_565+0x28>
    25b8:	2a5b      	cmp	r2, #91	; 0x5b
    25ba:	bf38      	it	cc
    25bc:	3220      	addcc	r2, #32
    25be:	2b41      	cmp	r3, #65	; 0x41
    25c0:	d302      	bcc.n	25c8 <Code_565+0x32>
    25c2:	2b5b      	cmp	r3, #91	; 0x5b
    25c4:	bf38      	it	cc
    25c6:	3320      	addcc	r3, #32
    25c8:	429a      	cmp	r2, r3
    25ca:	d0ee      	beq.n	25aa <Code_565+0x14>
    25cc:	2600      	movs	r6, #0
    25ce:	bd0f      	pop	{r0, r1, r2, r3, pc}
    25d0:	2600      	movs	r6, #0
    25d2:	43f6      	mvns	r6, r6
    25d4:	bd0f      	pop	{r0, r1, r2, r3, pc}

000025d6 <Dictionary_570>:
    25d6:	000025ea 	andeq	r2, r0, sl, ror #11
    25da:	63020000 	movwvs	r0, #8192	; 0x2000
    25de:	b5000072 	strlt	r0, [r0, #-114]	; 0x72

000025e0 <Code_570>:
    25e0:	b500      	push	{lr}
    25e2:	f000 f862 	bl	26aa <dotgaensefuesschen>
    25e6:	bd000a01 	vstrlt	s0, [r0, #-4]

000025ea <Dictionary_572>:
    25ea:	000025fc 	strdeq	r2, [r0], -ip
    25ee:	62020000 	andvs	r0, r2, #0
    25f2:	f847006c 			; <UNDEFINED> instruction: 0xf847006c

000025f4 <Code_572>:
    25f4:	f847 6d04 	str.w	r6, [r7, #-4]!
    25f8:	2620      	movs	r6, #32
    25fa:	4770      	bx	lr

000025fc <Dictionary_575>:
    25fc:	00002610 	andeq	r2, r0, r0, lsl r6
    2600:	73050000 	movwvc	r0, #20480	; 0x5000
    2604:	65636170 	strbvs	r6, [r3, #-368]!	; 0x170

00002608 <Code_575>:
    2608:	f847 6d04 	str.w	r6, [r7, #-4]!
    260c:	2620      	movs	r6, #32
    260e:	e649      	b.n	22a4 <Code_525>

00002610 <Dictionary_578>:
    2610:	00002630 	andeq	r2, r0, r0, lsr r6
    2614:	73060000 	movwvc	r0, #24576	; 0x6000
    2618:	65636170 	strbvs	r6, [r3, #-368]!	; 0x170
    261c:	b5000073 	strlt	r0, [r0, #-115]	; 0x73

0000261e <Code_578>:
    261e:	b500      	push	{lr}
    2620:	2e00      	cmp	r6, #0
    2622:	dd03      	ble.n	262c <Code_578+0xe>
    2624:	f7ff fff0 	bl	2608 <Code_575>
    2628:	3e01      	subs	r6, #1
    262a:	d1fb      	bne.n	2624 <Code_578+0x6>
    262c:	cf40      	ldmia	r7!, {r6}
    262e:	bd00      	pop	{pc}

00002630 <Dictionary_580>:
    2630:	00002640 	andeq	r2, r0, r0, asr #12
    2634:	5b060050 	blpl	18277c <BIT20+0x8277c>
    2638:	72616863 	rsbvc	r6, r1, #6488064	; 0x630000
    263c:	e005005d 	and	r0, r5, sp, asr r0

0000263e <Code_580>:
    263e:	e005      	b.n	264c <Code_581>

00002640 <Dictionary_581>:
    2640:	00002658 	andeq	r2, r0, r8, asr r6
    2644:	63040000 	movwvs	r0, #16384	; 0x4000
    2648:	00726168 	rsbseq	r6, r2, r8, ror #2

0000264c <Code_581>:
    264c:	b500      	push	{lr}
    264e:	f001 fc6c 	bl	3f2a <Code_1077>
    2652:	cf40      	ldmia	r7!, {r6}
    2654:	7836      	ldrb	r6, [r6, #0]
    2656:	bd00      	pop	{pc}

00002658 <Dictionary_583>:
    2658:	00002668 	andeq	r2, r0, r8, ror #12
    265c:	28010450 	stmdacs	r1, {r4, r6, sl}

00002660 <Code_583>:
    2660:	f847 6d04 	str.w	r6, [r7, #-4]!
    2664:	2629      	movs	r6, #41	; 0x29
    2666:	e006      	b.n	2676 <Code_586+0x6>

00002668 <Dictionary_586>:
    2668:	00002682 	andeq	r2, r0, r2, lsl #13
    266c:	5c010450 	cfstrspl	mvf0, [r1], {80}	; 0x50

00002670 <Code_586>:
    2670:	f847 6d04 	str.w	r6, [r7, #-4]!
    2674:	2600      	movs	r6, #0
    2676:	b500      	push	{lr}
    2678:	f001 fc61 	bl	3f3e <Code_1079>
    267c:	3704      	adds	r7, #4
    267e:	cf40      	ldmia	r7!, {r6}
    2680:	bd00      	pop	{pc}

00002682 <Dictionary_591>:
    2682:	000026c6 	andeq	r2, r0, r6, asr #13
    2686:	2e020010 	mcrcs	0, 0, r0, cr2, cr0, {0}
    268a:	489c0022 	ldmmi	ip, {r1, r5}

0000268c <Code_591>:
    268c:	489c      	ldr	r0, [pc, #624]	; (2900 <Code_630+0x9a>)
    268e:	b500      	push	{lr}
    2690:	f847 6d04 	str.w	r6, [r7, #-4]!
    2694:	0006      	movs	r6, r0
    2696:	f000 fa60 	bl	2b5a <Code_671>
    269a:	f847 6d04 	str.w	r6, [r7, #-4]!
    269e:	2622      	movs	r6, #34	; 0x22
    26a0:	f001 fc4d 	bl	3f3e <Code_1079>
    26a4:	f000 fd8a 	bl	31bc <Code_799>
    26a8:	bd00      	pop	{pc}

000026aa <dotgaensefuesschen>:
    26aa:	b40a      	push	{r1, r3}
    26ac:	f847 6d04 	str.w	r6, [r7, #-4]!
    26b0:	4676      	mov	r6, lr
    26b2:	3e01      	subs	r6, #1
    26b4:	7833      	ldrb	r3, [r6, #0]
    26b6:	2101      	movs	r1, #1
    26b8:	3301      	adds	r3, #1
    26ba:	4019      	ands	r1, r3
    26bc:	185b      	adds	r3, r3, r1
    26be:	eb1e 0e03 	adds.w	lr, lr, r3
    26c2:	bc0a      	pop	{r1, r3}
    26c4:	e039      	b.n	273a <Code_606>

000026c6 <Dictionary_597>:
    26c6:	000026ec 	andeq	r2, r0, ip, ror #13
    26ca:	63020010 	movwvs	r0, #8208	; 0x2010
    26ce:	488c0022 	stmmi	ip, {r1, r5}

000026d0 <Code_597>:
    26d0:	488c      	ldr	r0, [pc, #560]	; (2904 <Code_630+0x9e>)
    26d2:	e7dc      	b.n	268e <Code_591+0x2>

000026d4 <dotcfuesschen>:
    26d4:	f847 6d04 	str.w	r6, [r7, #-4]!
    26d8:	4676      	mov	r6, lr
    26da:	3e01      	subs	r6, #1
    26dc:	7833      	ldrb	r3, [r6, #0]
    26de:	2101      	movs	r1, #1
    26e0:	3301      	adds	r3, #1
    26e2:	4019      	ands	r1, r3
    26e4:	185b      	adds	r3, r3, r1
    26e6:	eb1e 0e03 	adds.w	lr, lr, r3
    26ea:	4770      	bx	lr

000026ec <Dictionary_599>:
    26ec:	00002716 	andeq	r2, r0, r6, lsl r7
    26f0:	73020010 	movwvc	r0, #8208	; 0x2010
    26f4:	48840022 	stmmi	r4, {r1, r5}

000026f6 <Code_599>:
    26f6:	4884      	ldr	r0, [pc, #528]	; (2908 <Code_630+0xa2>)
    26f8:	e7c9      	b.n	268e <Code_591+0x2>

000026fa <dotsfuesschen>:
    26fa:	f847 6d04 	str.w	r6, [r7, #-4]!
    26fe:	4676      	mov	r6, lr
    2700:	f847 6d04 	str.w	r6, [r7, #-4]!
    2704:	3e01      	subs	r6, #1
    2706:	7836      	ldrb	r6, [r6, #0]
    2708:	2101      	movs	r1, #1
    270a:	1c73      	adds	r3, r6, #1
    270c:	4019      	ands	r1, r3
    270e:	185b      	adds	r3, r3, r1
    2710:	eb1e 0e03 	adds.w	lr, lr, r3
    2714:	4770      	bx	lr

00002716 <Dictionary_603>:
    2716:	0000272e 	andeq	r2, r0, lr, lsr #14
    271a:	63050000 	movwvs	r0, #20480	; 0x5000
    271e:	746e756f 	strbtvc	r7, [lr], #-1391	; 0x56f

00002722 <Code_603>:
    2722:	3601      	adds	r6, #1
    2724:	f847 6d04 	str.w	r6, [r7, #-4]!
    2728:	3e01      	subs	r6, #1
    272a:	7836      	ldrb	r6, [r6, #0]
    272c:	4770      	bx	lr

0000272e <Dictionary_606>:
    272e:	00002756 	andeq	r2, r0, r6, asr r7
    2732:	63050000 	movwvs	r0, #20480	; 0x5000
    2736:	65707974 	ldrbvs	r7, [r0, #-2420]!	; 0x974

0000273a <Code_606>:
    273a:	b501      	push	{r0, lr}
    273c:	7830      	ldrb	r0, [r6, #0]
    273e:	2800      	cmp	r0, #0
    2740:	d007      	beq.n	2752 <Code_606+0x18>
    2742:	3601      	adds	r6, #1
    2744:	f847 6d04 	str.w	r6, [r7, #-4]!
    2748:	7836      	ldrb	r6, [r6, #0]
    274a:	f7ff fdab 	bl	22a4 <Code_525>
    274e:	3801      	subs	r0, #1
    2750:	d1f7      	bne.n	2742 <Code_606+0x8>
    2752:	cf40      	ldmia	r7!, {r6}
    2754:	bd01      	pop	{r0, pc}

00002756 <Dictionary_610>:
    2756:	00002784 	andeq	r2, r0, r4, lsl #15
    275a:	74040000 	strvc	r0, [r4], #-0
    275e:	00657079 	rsbeq	r7, r5, r9, ror r0

00002762 <Code_610>:
    2762:	0031      	movs	r1, r6
    2764:	cf40      	ldmia	r7!, {r6}
    2766:	0030      	movs	r0, r6
    2768:	cf40      	ldmia	r7!, {r6}

0000276a <stype_addr_r0_len_r1>:
    276a:	b500      	push	{lr}
    276c:	2900      	cmp	r1, #0
    276e:	d008      	beq.n	2782 <stype_addr_r0_len_r1+0x18>
    2770:	2200      	movs	r2, #0
    2772:	f847 6d04 	str.w	r6, [r7, #-4]!
    2776:	5c86      	ldrb	r6, [r0, r2]
    2778:	f7ff fd94 	bl	22a4 <Code_525>
    277c:	3201      	adds	r2, #1
    277e:	4291      	cmp	r1, r2
    2780:	d1f7      	bne.n	2772 <stype_addr_r0_len_r1+0x8>
    2782:	bd00      	pop	{pc}

00002784 <Dictionary_614>:
    2784:	000027bc 			; <UNDEFINED> instruction: 0x000027bc
    2788:	68040000 	stmdavs	r4, {}	; <UNPREDICTABLE>
    278c:	002e7865 	eoreq	r7, lr, r5, ror #16

00002790 <Code_614>:
    2790:	b503      	push	{r0, r1, lr}
    2792:	0031      	movs	r1, r6
    2794:	cf40      	ldmia	r7!, {r6}
    2796:	2020      	movs	r0, #32
    2798:	3804      	subs	r0, #4
    279a:	f847 6d04 	str.w	r6, [r7, #-4]!
    279e:	fa31 f600 	lsrs.w	r6, r1, r0
    27a2:	f016 060f 	ands.w	r6, r6, #15
    27a6:	2e09      	cmp	r6, #9
    27a8:	bf8c      	ite	hi
    27aa:	3637      	addhi	r6, #55	; 0x37
    27ac:	3630      	addls	r6, #48	; 0x30
    27ae:	f7ff fd79 	bl	22a4 <Code_525>
    27b2:	2800      	cmp	r0, #0
    27b4:	d1f0      	bne.n	2798 <Code_614+0x8>
    27b6:	f7ff ff27 	bl	2608 <Code_575>
    27ba:	bd03      	pop	{r0, r1, pc}

000027bc <Dictionary_617>:
    27bc:	000027cc 	andeq	r2, r0, ip, asr #15
    27c0:	68030000 	stmdavs	r3, {}	; <UNPREDICTABLE>
    27c4:	b51f732e 	ldrlt	r7, [pc, #-814]	; 249e <Code_544+0x40>

000027c6 <Code_617>:
    27c6:	b51f      	push	{r0, r1, r2, r3, r4, lr}
    27c8:	4c50      	ldr	r4, [pc, #320]	; (290c <Code_630+0xa6>)
    27ca:	e00e      	b.n	27ea <Code_619+0x4>

000027cc <Dictionary_618>:
    27cc:	000027dc 	ldrdeq	r2, [r0], -ip
    27d0:	75030000 	strvc	r0, [r3, #-0]
    27d4:	b51f732e 	ldrlt	r7, [pc, #-814]	; 24ae <Code_544+0x50>

000027d6 <Code_618>:
    27d6:	b51f      	push	{r0, r1, r2, r3, r4, lr}
    27d8:	4c4d      	ldr	r4, [pc, #308]	; (2910 <Code_630+0xaa>)
    27da:	e006      	b.n	27ea <Code_619+0x4>

000027dc <Dictionary_619>:
    27dc:	0000285a 	andeq	r2, r0, sl, asr r8
    27e0:	2e020000 	cdpcs	0, 0, cr0, cr2, cr0, {0}
    27e4:	b51f0073 	ldrlt	r0, [pc, #-115]	; 2779 <stype_addr_r0_len_r1+0xf>

000027e6 <Code_619>:
    27e6:	b51f      	push	{r0, r1, r2, r3, r4, lr}
    27e8:	4c4a      	ldr	r4, [pc, #296]	; (2914 <Code_630+0xae>)
    27ea:	494b      	ldr	r1, [pc, #300]	; (2918 <Code_630+0xb2>)
    27ec:	1bc9      	subs	r1, r1, r7
    27ee:	0889      	lsrs	r1, r1, #2
    27f0:	4a4a      	ldr	r2, [pc, #296]	; (291c <Code_630+0xb6>)
    27f2:	6810      	ldr	r0, [r2, #0]
    27f4:	b403      	push	{r0, r1}
    27f6:	200a      	movs	r0, #10
    27f8:	6010      	str	r0, [r2, #0]
    27fa:	f7ff ff56 	bl	26aa <dotgaensefuesschen>
    27fe:	61745308 	cmnvs	r4, r8, lsl #6
    2802:	203a6b63 	eorscs	r6, sl, r3, ror #22
    2806:	f847005b 			; <UNDEFINED> instruction: 0xf847005b
    280a:	6d04      	ldr	r4, [r0, #80]	; 0x50
    280c:	000e      	movs	r6, r1
    280e:	f001 fd63 	bl	42d8 <Code_1145>
    2812:	f7ff ff4a 	bl	26aa <dotgaensefuesschen>
    2816:	00205d02 	eoreq	r5, r0, r2, lsl #26
    281a:	bc03      	pop	{r0, r1}
    281c:	4a3f      	ldr	r2, [pc, #252]	; (291c <Code_630+0xb6>)
    281e:	6010      	str	r0, [r2, #0]
    2820:	2900      	cmp	r1, #0
    2822:	d00a      	beq.n	283a <Code_619+0x54>
    2824:	4a3e      	ldr	r2, [pc, #248]	; (2920 <Code_630+0xba>)
    2826:	6810      	ldr	r0, [r2, #0]
    2828:	b406      	push	{r1, r2}
    282a:	f847 6d04 	str.w	r6, [r7, #-4]!
    282e:	0006      	movs	r6, r0
    2830:	47a0      	blx	r4
    2832:	bc06      	pop	{r1, r2}
    2834:	3a04      	subs	r2, #4
    2836:	3901      	subs	r1, #1
    2838:	d1f5      	bne.n	2826 <Code_619+0x40>
    283a:	f7ff ff36 	bl	26aa <dotgaensefuesschen>
    283e:	4f542006 	svcmi	0x00542006
    2842:	00203a53 	eoreq	r3, r0, r3, asr sl
    2846:	f847 6d04 	str.w	r6, [r7, #-4]!
    284a:	0036      	movs	r6, r6
    284c:	47a0      	blx	r4
    284e:	f7ff ff2c 	bl	26aa <dotgaensefuesschen>
    2852:	3e2a2004 	cdpcc	0, 2, cr2, cr10, cr4, {0}
    2856:	bd1f000a 	ldclt	0, cr0, [pc, #-40]	; 2834 <Code_619+0x4e>

0000285a <Dictionary_630>:
    285a:	00002924 	andeq	r2, r0, r4, lsr #18
    285e:	77050000 	strvc	r0, [r5, -r0]
    2862:	7364726f 	cmnvc	r4, #-268435450	; 0xf0000006

00002866 <Code_630>:
    2866:	b500      	push	{lr}
    2868:	f7ff ff1f 	bl	26aa <dotgaensefuesschen>
    286c:	726f7706 	rsbvc	r7, pc, #1572864	; 0x180000
    2870:	000a7364 	andeq	r7, sl, r4, ror #6
    2874:	f000 fedf 	bl	3636 <Code_874>
    2878:	f7ff ff17 	bl	26aa <dotgaensefuesschen>
    287c:	64644109 	strbtvs	r4, [r4], #-265	; 0x109
    2880:	73736572 	cmnvc	r3, #478150656	; 0x1c800000
    2884:	f847203a 			; <UNDEFINED> instruction: 0xf847203a
    2888:	6d04      	ldr	r4, [r0, #80]	; 0x50
    288a:	f7ff ff81 	bl	2790 <Code_614>
    288e:	f7ff ff0c 	bl	26aa <dotgaensefuesschen>
    2892:	6e694c06 	cdpvs	12, 6, cr4, cr9, cr6, {0}
    2896:	00203a6b 	eoreq	r3, r0, fp, ror #20
    289a:	f847 6d04 	str.w	r6, [r7, #-4]!
    289e:	6836      	ldr	r6, [r6, #0]
    28a0:	f7ff ff76 	bl	2790 <Code_614>
    28a4:	f7ff ff01 	bl	26aa <dotgaensefuesschen>
    28a8:	616c4607 	cmnvs	ip, r7, lsl #12
    28ac:	203a7367 	eorscs	r7, sl, r7, ror #6
    28b0:	f847 6d04 	str.w	r6, [r7, #-4]!
    28b4:	88b6      	ldrh	r6, [r6, #4]
    28b6:	f7ff ff6b 	bl	2790 <Code_614>
    28ba:	f7ff fef6 	bl	26aa <dotgaensefuesschen>
    28be:	646f4306 	strbtvs	r4, [pc], #-774	; 28c6 <Code_630+0x60>
    28c2:	00203a65 	eoreq	r3, r0, r5, ror #20
    28c6:	1db0      	adds	r0, r6, #6
    28c8:	f000 feee 	bl	36a8 <skipstring>
    28cc:	f847 6d04 	str.w	r6, [r7, #-4]!
    28d0:	0006      	movs	r6, r0
    28d2:	f7ff ff5d 	bl	2790 <Code_614>
    28d6:	f7ff fee8 	bl	26aa <dotgaensefuesschen>
    28da:	6d614e06 	stclvs	14, cr4, [r1, #-24]!	; 0xffffffe8
    28de:	00203a65 	eoreq	r3, r0, r5, ror #20
    28e2:	f847 6d04 	str.w	r6, [r7, #-4]!
    28e6:	3606      	adds	r6, #6
    28e8:	f7ff ff27 	bl	273a <Code_606>
    28ec:	f7ff fedd 	bl	26aa <dotgaensefuesschen>
    28f0:	f0000a01 			; <UNDEFINED> instruction: 0xf0000a01
    28f4:	feb7 0030 	mrc2	0, 5, r0, cr7, cr0, {1}
    28f8:	cf40      	ldmia	r7!, {r6}
    28fa:	d0bd      	beq.n	2878 <Code_630+0x12>
    28fc:	cf40      	ldmia	r7!, {r6}
    28fe:	bd00      	pop	{pc}
    2900:	000026aa 	andeq	r2, r0, sl, lsr #13
    2904:	000026d4 	ldrdeq	r2, [r0], -r4
    2908:	000026fa 	strdeq	r2, [r0], -sl
    290c:	00002791 	muleq	r0, r1, r7
    2910:	000042c9 	andeq	r4, r0, r9, asr #5
    2914:	000042d9 	ldrdeq	r4, [r0], -r9
    2918:	2000025c 	andcs	r0, r0, ip, asr r2
    291c:	20007ffc 	strdcs	r7, [r0], -ip
    2920:	20000258 	andcs	r0, r0, r8, asr r2

00002924 <Dictionary_650>:
    2924:	00002a88 	andeq	r2, r0, r8, lsl #21
    2928:	310d0000 	mrscc	r0, (UNDEF: 13)
    292c:	74696232 	strbtvc	r6, [r9], #-562	; 0x232
    2930:	6f636e65 	svcvs	0x00636e65
    2934:	676e6964 	strbvs	r6, [lr, -r4, ror #18]!

00002938 <Code_650>:
    2938:	b50f      	push	{r0, r1, r2, r3, lr}
    293a:	2eff      	cmp	r6, #255	; 0xff
    293c:	d804      	bhi.n	2948 <Code_650+0x10>
    293e:	f847 6d04 	str.w	r6, [r7, #-4]!
    2942:	f05f 36ff 	movs.w	r6, #4294967295
    2946:	bd0f      	pop	{r0, r1, r2, r3, pc}
    2948:	f016 10ff 	ands.w	r0, r6, #16711935	; 0xff00ff
    294c:	42b0      	cmp	r0, r6
    294e:	d10e      	bne.n	296e <Code_650+0x36>
    2950:	f64f 71ff 	movw	r1, #65535	; 0xffff
    2954:	4008      	ands	r0, r1
    2956:	0c31      	lsrs	r1, r6, #16
    2958:	4281      	cmp	r1, r0
    295a:	d108      	bne.n	296e <Code_650+0x36>
    295c:	f016 06ff 	ands.w	r6, r6, #255	; 0xff
    2960:	f456 5680 	orrs.w	r6, r6, #4096	; 0x1000
    2964:	f847 6d04 	str.w	r6, [r7, #-4]!
    2968:	f05f 36ff 	movs.w	r6, #4294967295
    296c:	bd0f      	pop	{r0, r1, r2, r3, pc}
    296e:	f016 20ff 	ands.w	r0, r6, #4278255360	; 0xff00ff00
    2972:	42b0      	cmp	r0, r6
    2974:	d10f      	bne.n	2996 <Code_650+0x5e>
    2976:	f64f 71ff 	movw	r1, #65535	; 0xffff
    297a:	4008      	ands	r0, r1
    297c:	0c31      	lsrs	r1, r6, #16
    297e:	4281      	cmp	r1, r0
    2980:	d109      	bne.n	2996 <Code_650+0x5e>
    2982:	0a36      	lsrs	r6, r6, #8
    2984:	f016 06ff 	ands.w	r6, r6, #255	; 0xff
    2988:	f456 5600 	orrs.w	r6, r6, #8192	; 0x2000
    298c:	f847 6d04 	str.w	r6, [r7, #-4]!
    2990:	f05f 36ff 	movs.w	r6, #4294967295
    2994:	bd0f      	pop	{r0, r1, r2, r3, pc}
    2996:	22ff      	movs	r2, #255	; 0xff
    2998:	0031      	movs	r1, r6
    299a:	4011      	ands	r1, r2
    299c:	0a30      	lsrs	r0, r6, #8
    299e:	4010      	ands	r0, r2
    29a0:	4288      	cmp	r0, r1
    29a2:	d110      	bne.n	29c6 <Code_650+0x8e>
    29a4:	0c30      	lsrs	r0, r6, #16
    29a6:	4010      	ands	r0, r2
    29a8:	4288      	cmp	r0, r1
    29aa:	d10c      	bne.n	29c6 <Code_650+0x8e>
    29ac:	0e30      	lsrs	r0, r6, #24
    29ae:	4010      	ands	r0, r2
    29b0:	4288      	cmp	r0, r1
    29b2:	d108      	bne.n	29c6 <Code_650+0x8e>
    29b4:	f016 06ff 	ands.w	r6, r6, #255	; 0xff
    29b8:	f456 5640 	orrs.w	r6, r6, #12288	; 0x3000
    29bc:	f847 6d04 	str.w	r6, [r7, #-4]!
    29c0:	f05f 36ff 	movs.w	r6, #4294967295
    29c4:	bd0f      	pop	{r0, r1, r2, r3, pc}
    29c6:	0030      	movs	r0, r6
    29c8:	2100      	movs	r1, #0
    29ca:	3101      	adds	r1, #1
    29cc:	1800      	adds	r0, r0, r0
    29ce:	f150 0000 	adcs.w	r0, r0, #0
    29d2:	f07f 027f 	mvns.w	r2, #127	; 0x7f
    29d6:	4002      	ands	r2, r0
    29d8:	2a80      	cmp	r2, #128	; 0x80
    29da:	d005      	beq.n	29e8 <Code_650+0xb0>
    29dc:	291f      	cmp	r1, #31
    29de:	d3f4      	bcc.n	29ca <Code_650+0x92>
    29e0:	f847 6d04 	str.w	r6, [r7, #-4]!
    29e4:	2600      	movs	r6, #0
    29e6:	bd0f      	pop	{r0, r1, r2, r3, pc}
    29e8:	2908      	cmp	r1, #8
    29ea:	d3f9      	bcc.n	29e0 <Code_650+0xa8>
    29ec:	0006      	movs	r6, r0
    29ee:	f036 0680 	bics.w	r6, r6, #128	; 0x80
    29f2:	f011 0001 	ands.w	r0, r1, #1
    29f6:	01c0      	lsls	r0, r0, #7
    29f8:	4306      	orrs	r6, r0
    29fa:	f011 000e 	ands.w	r0, r1, #14
    29fe:	02c0      	lsls	r0, r0, #11
    2a00:	4306      	orrs	r6, r0
    2a02:	f011 0010 	ands.w	r0, r1, #16
    2a06:	0580      	lsls	r0, r0, #22
    2a08:	4306      	orrs	r6, r0
    2a0a:	f847 6d04 	str.w	r6, [r7, #-4]!
    2a0e:	f05f 36ff 	movs.w	r6, #4294967295
    2a12:	bd0f      	pop	{r0, r1, r2, r3, pc}

00002a14 <movwkomma>:
    2a14:	f847 6d04 	str.w	r6, [r7, #-4]!
    2a18:	f8df 6638 	ldr.w	r6, [pc, #1592]	; 3054 <setflags_ram+0x1c>
    2a1c:	f45f 4170 	movs.w	r1, #61440	; 0xf000
    2a20:	ea10 0201 	ands.w	r2, r0, r1
    2a24:	0112      	lsls	r2, r2, #4
    2a26:	4316      	orrs	r6, r2
    2a28:	f45f 6100 	movs.w	r1, #2048	; 0x800
    2a2c:	ea10 0201 	ands.w	r2, r0, r1
    2a30:	03d2      	lsls	r2, r2, #15
    2a32:	4316      	orrs	r6, r2
    2a34:	f45f 61e0 	movs.w	r1, #1792	; 0x700
    2a38:	ea10 0201 	ands.w	r2, r0, r1
    2a3c:	0112      	lsls	r2, r2, #4
    2a3e:	4316      	orrs	r6, r2
    2a40:	21ff      	movs	r1, #255	; 0xff
    2a42:	ea10 0201 	ands.w	r2, r0, r1
    2a46:	4316      	orrs	r6, r2
    2a48:	431e      	orrs	r6, r3
    2a4a:	e3a7      	b.n	319c <Code_796>

00002a4c <movtkomma>:
    2a4c:	f847 6d04 	str.w	r6, [r7, #-4]!
    2a50:	f8df 6604 	ldr.w	r6, [pc, #1540]	; 3058 <setflags_ram+0x20>
    2a54:	f05f 4170 	movs.w	r1, #4026531840	; 0xf0000000
    2a58:	ea10 0201 	ands.w	r2, r0, r1
    2a5c:	0b12      	lsrs	r2, r2, #12
    2a5e:	4316      	orrs	r6, r2
    2a60:	f05f 6100 	movs.w	r1, #134217728	; 0x8000000
    2a64:	ea10 0201 	ands.w	r2, r0, r1
    2a68:	0852      	lsrs	r2, r2, #1
    2a6a:	4316      	orrs	r6, r2
    2a6c:	f05f 61e0 	movs.w	r1, #117440512	; 0x7000000
    2a70:	ea10 0201 	ands.w	r2, r0, r1
    2a74:	0b12      	lsrs	r2, r2, #12
    2a76:	4316      	orrs	r6, r2
    2a78:	f45f 017f 	movs.w	r1, #16711680	; 0xff0000
    2a7c:	ea10 0201 	ands.w	r2, r0, r1
    2a80:	0c12      	lsrs	r2, r2, #16
    2a82:	4316      	orrs	r6, r2
    2a84:	431e      	orrs	r6, r3
    2a86:	e389      	b.n	319c <Code_796>

00002a88 <Dictionary_659>:
    2a88:	00002aee 	andeq	r2, r0, lr, ror #21
    2a8c:	72100000 	andsvc	r0, r0, #0
    2a90:	73696765 	cmnvc	r9, #26476544	; 0x1940000
    2a94:	6c726574 	cfldr64vs	mvdx6, [r2], #-464	; 0xfffffe30
    2a98:	72657469 	rsbvc	r7, r5, #1761607680	; 0x69000000
    2a9c:	002c6c61 	eoreq	r6, ip, r1, ror #24

00002aa0 <Code_659>:
    2aa0:	b50f      	push	{r0, r1, r2, r3, lr}
    2aa2:	0033      	movs	r3, r6
    2aa4:	cf40      	ldmia	r7!, {r6}
    2aa6:	021b      	lsls	r3, r3, #8
    2aa8:	2eff      	cmp	r6, #255	; 0xff
    2aaa:	d805      	bhi.n	2ab8 <Code_659+0x18>
    2aac:	f456 5600 	orrs.w	r6, r6, #8192	; 0x2000
    2ab0:	431e      	orrs	r6, r3
    2ab2:	f000 fb4b 	bl	314c <Code_787>
    2ab6:	bd0f      	pop	{r0, r1, r2, r3, pc}
    2ab8:	f7ff ff3e 	bl	2938 <Code_650>
    2abc:	2e00      	cmp	r6, #0
    2abe:	cf40      	ldmia	r7!, {r6}
    2ac0:	d006      	beq.n	2ad0 <Code_659+0x30>
    2ac2:	f8df 0598 	ldr.w	r0, [pc, #1432]	; 305c <setflags_ram+0x24>
    2ac6:	4306      	orrs	r6, r0
    2ac8:	431e      	orrs	r6, r3
    2aca:	f000 fb67 	bl	319c <Code_796>
    2ace:	bd0f      	pop	{r0, r1, r2, r3, pc}
    2ad0:	43f6      	mvns	r6, r6
    2ad2:	f7ff ff31 	bl	2938 <Code_650>
    2ad6:	2e00      	cmp	r6, #0
    2ad8:	cf40      	ldmia	r7!, {r6}
    2ada:	d006      	beq.n	2aea <Code_659+0x4a>
    2adc:	f8df 0580 	ldr.w	r0, [pc, #1408]	; 3060 <setflags_ram+0x28>
    2ae0:	4306      	orrs	r6, r0
    2ae2:	431e      	orrs	r6, r3
    2ae4:	f000 fb5a 	bl	319c <Code_796>
    2ae8:	bd0f      	pop	{r0, r1, r2, r3, pc}
    2aea:	43f6      	mvns	r6, r6
    2aec:	e00b      	b.n	2b06 <movwmovt_register_r3>

00002aee <Dictionary_663>:
    2aee:	00002b4e 	andeq	r2, r0, lr, asr #22
    2af2:	6d090000 	stcvs	0, cr0, [r9, #-0]
    2af6:	6d77766f 	ldclvs	6, cr7, [r7, #-444]!	; 0xfffffe44
    2afa:	2c74766f 	ldclcs	6, cr7, [r4], #-444	; 0xfffffe44

00002afe <Code_663>:
    2afe:	b50f      	push	{r0, r1, r2, r3, lr}
    2b00:	0033      	movs	r3, r6
    2b02:	cf40      	ldmia	r7!, {r6}
    2b04:	021b      	lsls	r3, r3, #8

00002b06 <movwmovt_register_r3>:
    2b06:	0030      	movs	r0, r6
    2b08:	cf40      	ldmia	r7!, {r6}
    2b0a:	f7ff ff83 	bl	2a14 <movwkomma>
    2b0e:	f64f 71ff 	movw	r1, #65535	; 0xffff
    2b12:	ea10 4001 	ands.w	r0, r0, r1, lsl #16
    2b16:	d001      	beq.n	2b1c <movwmovt_register_r3+0x16>
    2b18:	f7ff ff98 	bl	2a4c <movtkomma>
    2b1c:	bd0f      	pop	{r0, r1, r2, r3, pc}

00002b1e <callkommalang>:
    2b1e:	b50f      	push	{r0, r1, r2, r3, lr}
    2b20:	3601      	adds	r6, #1
    2b22:	0030      	movs	r0, r6
    2b24:	cf40      	ldmia	r7!, {r6}
    2b26:	2300      	movs	r3, #0
    2b28:	f7ff ff74 	bl	2a14 <movwkomma>
    2b2c:	f7ff ff8e 	bl	2a4c <movtkomma>
    2b30:	e006      	b.n	2b40 <callkommakurz_intern>

00002b32 <callkommakurz>:
    2b32:	b50f      	push	{r0, r1, r2, r3, lr}
    2b34:	3601      	adds	r6, #1
    2b36:	f847 6d04 	str.w	r6, [r7, #-4]!
    2b3a:	2600      	movs	r6, #0
    2b3c:	f7ff ffb0 	bl	2aa0 <Code_659>

00002b40 <callkommakurz_intern>:
    2b40:	f847 6d04 	str.w	r6, [r7, #-4]!
    2b44:	f244 7680 	movw	r6, #18304	; 0x4780
    2b48:	f000 fb00 	bl	314c <Code_787>
    2b4c:	bd0f      	pop	{r0, r1, r2, r3, pc}

00002b4e <Dictionary_671>:
    2b4e:	00002bb4 			; <UNDEFINED> instruction: 0x00002bb4
    2b52:	63050000 	movwvs	r0, #20480	; 0x5000
    2b56:	2c6c6c61 	stclcs	12, cr6, [ip], #-388	; 0xfffffe7c

00002b5a <Code_671>:
    2b5a:	b50f      	push	{r0, r1, r2, r3, lr}
    2b5c:	0033      	movs	r3, r6
    2b5e:	f000 fe46 	bl	37ee <Code_903>
    2b62:	0030      	movs	r0, r6
    2b64:	cf40      	ldmia	r7!, {r6}
    2b66:	1a1b      	subs	r3, r3, r0
    2b68:	3b04      	subs	r3, #4
    2b6a:	f8df 14f8 	ldr.w	r1, [pc, #1272]	; 3064 <setflags_ram+0x2c>
    2b6e:	4019      	ands	r1, r3
    2b70:	2900      	cmp	r1, #0
    2b72:	d006      	beq.n	2b82 <Code_671+0x28>
    2b74:	f8df 24f0 	ldr.w	r2, [pc, #1264]	; 3068 <setflags_ram+0x30>
    2b78:	4291      	cmp	r1, r2
    2b7a:	d002      	beq.n	2b82 <Code_671+0x28>
    2b7c:	e8bd 400f 	ldmia.w	sp!, {r0, r1, r2, r3, lr}
    2b80:	e7d7      	b.n	2b32 <callkommakurz>
    2b82:	cf40      	ldmia	r7!, {r6}
    2b84:	085b      	lsrs	r3, r3, #1
    2b86:	f8df 04e4 	ldr.w	r0, [pc, #1252]	; 306c <setflags_ram+0x34>
    2b8a:	f240 71ff 	movw	r1, #2047	; 0x7ff
    2b8e:	4019      	ands	r1, r3
    2b90:	4308      	orrs	r0, r1
    2b92:	0adb      	lsrs	r3, r3, #11
    2b94:	f240 31ff 	movw	r1, #1023	; 0x3ff
    2b98:	4019      	ands	r1, r3
    2b9a:	0409      	lsls	r1, r1, #16
    2b9c:	4308      	orrs	r0, r1
    2b9e:	0a9b      	lsrs	r3, r3, #10
    2ba0:	f013 0101 	ands.w	r1, r3, #1
    2ba4:	0689      	lsls	r1, r1, #26
    2ba6:	4308      	orrs	r0, r1
    2ba8:	f847 6d04 	str.w	r6, [r7, #-4]!
    2bac:	0006      	movs	r6, r0
    2bae:	f000 faf5 	bl	319c <Code_796>
    2bb2:	bd0f      	pop	{r0, r1, r2, r3, pc}

00002bb4 <Dictionary_676>:
    2bb4:	00002bea 	andeq	r2, r0, sl, ror #23
    2bb8:	6c080000 	stcvs	0, cr0, [r8], {-0}
    2bbc:	72657469 	rsbvc	r7, r5, #1761607680	; 0x69000000
    2bc0:	002c6c61 	eoreq	r6, ip, r1, ror #24

00002bc4 <Code_676>:
    2bc4:	b508      	push	{r3, lr}
    2bc6:	f847 6d04 	str.w	r6, [r7, #-4]!
    2bca:	f64f 0647 	movw	r6, #63559	; 0xf847
    2bce:	f000 fabd 	bl	314c <Code_787>
    2bd2:	f847 6d04 	str.w	r6, [r7, #-4]!
    2bd6:	f646 5604 	movw	r6, #27908	; 0x6d04
    2bda:	f000 fab7 	bl	314c <Code_787>
    2bde:	f847 6d04 	str.w	r6, [r7, #-4]!
    2be2:	2606      	movs	r6, #6
    2be4:	f7ff ff5c 	bl	2aa0 <Code_659>
    2be8:	bd08      	pop	{r3, pc}

00002bea <Dictionary_683>:
    2bea:	00002c0e 	andeq	r2, r0, lr, lsl #24
    2bee:	63060000 	movwvs	r0, #24576	; 0x6000
    2bf2:	74616572 	strbtvc	r6, [r1], #-1394	; 0x572
    2bf6:	b5000065 	strlt	r0, [r0, #-101]	; 0x65

00002bf8 <Code_683>:
    2bf8:	b500      	push	{lr}
    2bfa:	f000 f833 	bl	2c64 <Code_688>
    2bfe:	f642 402b 	movw	r0, #11307	; 0x2c2b
    2c02:	4780      	blx	r0
    2c04:	f847 6d04 	str.w	r6, [r7, #-4]!
    2c08:	f1be 0601 	subs.w	r6, lr, #1
    2c0c:	bd00      	pop	{pc}

00002c0e <Dictionary_685>:
    2c0e:	00002c56 	andeq	r2, r0, r6, asr ip
    2c12:	64050020 	strvs	r0, [r5], #-32
    2c16:	3e73656f 	cdpcc	5, 7, cr6, cr3, cr15, {3}

00002c1a <Code_685>:
    2c1a:	f642 402b 	movw	r0, #11307	; 0x2c2b
    2c1e:	4780      	blx	r0
    2c20:	f847 6d04 	str.w	r6, [r7, #-4]!
    2c24:	f1be 0601 	subs.w	r6, lr, #1
    2c28:	4770      	bx	lr

00002c2a <dodoes>:
    2c2a:	f847 6d04 	str.w	r6, [r7, #-4]!
    2c2e:	f1be 0601 	subs.w	r6, lr, #1
    2c32:	f8df 243c 	ldr.w	r2, [pc, #1084]	; 3070 <setflags_ram+0x38>
    2c36:	6813      	ldr	r3, [r2, #0]
    2c38:	f8df 1438 	ldr.w	r1, [pc, #1080]	; 3074 <setflags_ram+0x3c>
    2c3c:	6809      	ldr	r1, [r1, #0]
    2c3e:	2002      	movs	r0, #2
    2c40:	4008      	ands	r0, r1
    2c42:	d000      	beq.n	2c46 <dodoes+0x1c>
    2c44:	3102      	adds	r1, #2
    2c46:	3102      	adds	r1, #2
    2c48:	6011      	str	r1, [r2, #0]
    2c4a:	f7ff ff68 	bl	2b1e <callkommalang>
    2c4e:	6013      	str	r3, [r2, #0]
    2c50:	f000 f9b7 	bl	2fc2 <Code_764>
    2c54:	bd00      	pop	{pc}

00002c56 <Dictionary_688>:
    2c56:	00002c98 	muleq	r0, r8, ip
    2c5a:	3c070000 	stccc	0, cr0, [r7], {-0}
    2c5e:	6c697562 	cfstr64vs	mvdx7, [r9], #-392	; 0xfffffe78
    2c62:	b5007364 	strlt	r7, [r0, #-868]	; 0x364

00002c64 <Code_688>:
    2c64:	b500      	push	{lr}
    2c66:	f000 fb73 	bl	3350 <Code_818>
    2c6a:	f000 fdc0 	bl	37ee <Code_903>
    2c6e:	2002      	movs	r0, #2
    2c70:	4006      	ands	r6, r0
    2c72:	cf40      	ldmia	r7!, {r6}
    2c74:	d004      	beq.n	2c80 <Code_688+0x1c>
    2c76:	f847 6d04 	str.w	r6, [r7, #-4]!
    2c7a:	2636      	movs	r6, #54	; 0x36
    2c7c:	f000 fa66 	bl	314c <Code_787>
    2c80:	f847 6d04 	str.w	r6, [r7, #-4]!
    2c84:	f24b 5600 	movw	r6, #46336	; 0xb500
    2c88:	f000 fa60 	bl	314c <Code_787>
    2c8c:	f847 6d04 	str.w	r6, [r7, #-4]!
    2c90:	260a      	movs	r6, #10
    2c92:	f000 fac6 	bl	3222 <Code_807>
    2c96:	bd00      	pop	{pc}

00002c98 <Dictionary_696>:
    2c98:	00002ca4 	andeq	r2, r0, r4, lsr #25
    2c9c:	5b030050 	blpl	c2de4 <BIT19+0x42de4>
    2ca0:	e0035d27 	and	r5, r3, r7, lsr #26

00002ca2 <Code_696>:
    2ca2:	e003      	b.n	2cac <Code_697>

00002ca4 <Dictionary_697>:
    2ca4:	00002cbc 			; <UNDEFINED> instruction: 0x00002cbc
    2ca8:	27010000 	strcs	r0, [r1, -r0]

00002cac <Code_697>:
    2cac:	b500      	push	{lr}
    2cae:	f001 f93c 	bl	3f2a <Code_1077>
    2cb2:	f000 fd37 	bl	3724 <find_not_found>
    2cb6:	0030      	movs	r0, r6
    2cb8:	cf40      	ldmia	r7!, {r6}
    2cba:	bd00      	pop	{pc}

00002cbc <Dictionary_699>:
    2cbc:	00002cfa 	strdeq	r2, [r0], -sl
    2cc0:	70080010 	andvc	r0, r8, r0, lsl r0
    2cc4:	7074736f 	rsbsvc	r7, r4, pc, ror #6
    2cc8:	00656e6f 	rsbeq	r6, r5, pc, ror #28

00002ccc <Code_699>:
    2ccc:	b500      	push	{lr}
    2cce:	f7ff ffed 	bl	2cac <Code_697>
    2cd2:	2110      	movs	r1, #16
    2cd4:	4001      	ands	r1, r0
    2cd6:	d10d      	bne.n	2cf4 <Code_699+0x28>
    2cd8:	2120      	movs	r1, #32
    2cda:	4001      	ands	r1, r0
    2cdc:	d005      	beq.n	2cea <Code_699+0x1e>
    2cde:	f7ff ff71 	bl	2bc4 <Code_676>
    2ce2:	f847 6d04 	str.w	r6, [r7, #-4]!
    2ce6:	4ee4      	ldr	r6, [pc, #912]	; (3078 <setflags_ram+0x40>)
    2ce8:	e004      	b.n	2cf4 <Code_699+0x28>
    2cea:	f7ff ff6b 	bl	2bc4 <Code_676>
    2cee:	f847 6d04 	str.w	r6, [r7, #-4]!
    2cf2:	4ee2      	ldr	r6, [pc, #904]	; (307c <setflags_ram+0x44>)
    2cf4:	f7ff ff31 	bl	2b5a <Code_671>
    2cf8:	bd00      	pop	{pc}

00002cfa <Dictionary_702>:
    2cfa:	00002d50 	andeq	r2, r0, r0, asr sp
    2cfe:	69070000 	stmdbvs	r7, {}	; <UNPREDICTABLE>
    2d02:	6e696c6e 	cdpvs	12, 6, cr6, cr9, cr14, {3}
    2d06:	b5002c65 	strlt	r2, [r0, #-3173]	; 0xc65

00002d08 <Code_702>:
    2d08:	b500      	push	{lr}
    2d0a:	f24b 5100 	movw	r1, #46336	; 0xb500
    2d0e:	f64b 5200 	movw	r2, #48384	; 0xbd00
    2d12:	f244 7370 	movw	r3, #18288	; 0x4770
    2d16:	8830      	ldrh	r0, [r6, #0]
    2d18:	4288      	cmp	r0, r1
    2d1a:	d008      	beq.n	2d2e <Code_702+0x26>
    2d1c:	4290      	cmp	r0, r2
    2d1e:	d008      	beq.n	2d32 <Code_702+0x2a>
    2d20:	4298      	cmp	r0, r3
    2d22:	d006      	beq.n	2d32 <Code_702+0x2a>
    2d24:	f847 6d04 	str.w	r6, [r7, #-4]!
    2d28:	0006      	movs	r6, r0
    2d2a:	f000 fa0f 	bl	314c <Code_787>
    2d2e:	3602      	adds	r6, #2
    2d30:	e7f1      	b.n	2d16 <Code_702+0xe>
    2d32:	cf40      	ldmia	r7!, {r6}
    2d34:	bd00      	pop	{pc}

00002d36 <suchedefinitionsende>:
    2d36:	b40e      	push	{r1, r2, r3}
    2d38:	f64b 5200 	movw	r2, #48384	; 0xbd00
    2d3c:	f244 7370 	movw	r3, #18288	; 0x4770
    2d40:	8801      	ldrh	r1, [r0, #0]
    2d42:	3002      	adds	r0, #2
    2d44:	4291      	cmp	r1, r2
    2d46:	d001      	beq.n	2d4c <suchedefinitionsende+0x16>
    2d48:	4299      	cmp	r1, r3
    2d4a:	d1f9      	bne.n	2d40 <suchedefinitionsende+0xa>
    2d4c:	bc0e      	pop	{r1, r2, r3}
    2d4e:	4770      	bx	lr

00002d50 <Dictionary_706>:
    2d50:	00002d66 	andeq	r2, r0, r6, ror #26
    2d54:	72040000 	andvc	r0, r4, #0
    2d58:	002c7465 	eoreq	r7, ip, r5, ror #8

00002d5c <Code_706>:
    2d5c:	f847 6d04 	str.w	r6, [r7, #-4]!
    2d60:	f64b 5600 	movw	r6, #48384	; 0xbd00
    2d64:	e1f2      	b.n	314c <Code_787>

00002d66 <Dictionary_709>:
    2d66:	00002d74 	andeq	r2, r0, r4, ror sp
    2d6a:	65040030 	strvs	r0, [r4, #-48]	; 0x30
    2d6e:	00746978 	rsbseq	r6, r4, r8, ror r9

00002d72 <Code_709>:
    2d72:	e7f3      	b.n	2d5c <Code_706>

00002d74 <Dictionary_710>:
    2d74:	00002d8c 	andeq	r2, r0, ip, lsl #27
    2d78:	72070030 	andvc	r0, r7, #48	; 0x30
    2d7c:	72756365 	rsbsvc	r6, r5, #-1811939327	; 0x94000001
    2d80:	f8476573 			; <UNDEFINED> instruction: 0xf8476573

00002d82 <Code_710>:
    2d82:	f847 6d04 	str.w	r6, [r7, #-4]!
    2d86:	4ebb      	ldr	r6, [pc, #748]	; (3074 <setflags_ram+0x3c>)
    2d88:	6836      	ldr	r6, [r6, #0]
    2d8a:	e6e6      	b.n	2b5a <Code_671>

00002d8c <Dictionary_712>:
    2d8c:	00002da4 	andeq	r2, r0, r4, lsr #27
    2d90:	73050081 	movwvc	r0, #20609	; 0x5081
    2d94:	65746174 	ldrbvs	r6, [r4, #-372]!	; 0x174

00002d98 <Code_712>:
    2d98:	f847 6d04 	str.w	r6, [r7, #-4]!
    2d9c:	4eb8      	ldr	r6, [pc, #736]	; (3080 <setflags_ram+0x48>)
    2d9e:	4770      	bx	lr
    2da0:	00000000 	andeq	r0, r0, r0

00002da4 <Dictionary_715>:
    2da4:	00002db6 			; <UNDEFINED> instruction: 0x00002db6
    2da8:	5d010000 	stcpl	0, cr0, [r1, #-0]

00002dac <Code_715>:
    2dac:	48b4      	ldr	r0, [pc, #720]	; (3080 <setflags_ram+0x48>)
    2dae:	2100      	movs	r1, #0
    2db0:	43c9      	mvns	r1, r1
    2db2:	6001      	str	r1, [r0, #0]
    2db4:	4770      	bx	lr

00002db6 <Dictionary_716>:
    2db6:	00002dc6 	andeq	r2, r0, r6, asr #27
    2dba:	5b010010 	blpl	42e02 <BIT18+0x2e02>

00002dbe <Code_716>:
    2dbe:	48b0      	ldr	r0, [pc, #704]	; (3080 <setflags_ram+0x48>)
    2dc0:	2100      	movs	r1, #0
    2dc2:	6001      	str	r1, [r0, #0]
    2dc4:	4770      	bx	lr

00002dc6 <Dictionary_717>:
    2dc6:	00002dee 	andeq	r2, r0, lr, ror #27
    2dca:	3a010000 	bcc	42dd2 <BIT18+0x2dd2>

00002dce <Code_717>:
    2dce:	b500      	push	{lr}
    2dd0:	48ac      	ldr	r0, [pc, #688]	; (3084 <setflags_ram+0x4c>)
    2dd2:	6007      	str	r7, [r0, #0]
    2dd4:	f000 fabc 	bl	3350 <Code_818>
    2dd8:	f847 6d04 	str.w	r6, [r7, #-4]!
    2ddc:	f24b 5600 	movw	r6, #46336	; 0xb500
    2de0:	f000 f9b4 	bl	314c <Code_787>
    2de4:	48a6      	ldr	r0, [pc, #664]	; (3080 <setflags_ram+0x48>)
    2de6:	2100      	movs	r1, #0
    2de8:	43c9      	mvns	r1, r1
    2dea:	6001      	str	r1, [r0, #0]
    2dec:	bd00      	pop	{pc}

00002dee <Dictionary_720>:
    2dee:	00002e36 	andeq	r2, r0, r6, lsr lr
    2df2:	3b010030 	blcc	42eba <BIT18+0x2eba>

00002df6 <Code_720>:
    2df6:	b500      	push	{lr}
    2df8:	48a2      	ldr	r0, [pc, #648]	; (3084 <setflags_ram+0x4c>)
    2dfa:	6801      	ldr	r1, [r0, #0]
    2dfc:	42b9      	cmp	r1, r7
    2dfe:	d00e      	beq.n	2e1e <Code_720+0x28>
    2e00:	f7ff fc53 	bl	26aa <dotgaensefuesschen>
    2e04:	74532015 	ldrbvc	r2, [r3], #-21
    2e08:	206b6361 	rsbcs	r6, fp, r1, ror #6
    2e0c:	20746f6e 	rsbscs	r6, r4, lr, ror #30
    2e10:	616c6162 	cmnvs	ip, r2, ror #2
    2e14:	6465636e 	strbtvs	r6, [r5], #-878	; 0x36e
    2e18:	f0010a2e 			; <UNDEFINED> instruction: 0xf0010a2e
    2e1c:	bb52      	cbnz	r2, 2e74 <Code_729+0x4>
    2e1e:	f847 6d04 	str.w	r6, [r7, #-4]!
    2e22:	f64b 5600 	movw	r6, #48384	; 0xbd00
    2e26:	f000 f991 	bl	314c <Code_787>
    2e2a:	f000 f8ca 	bl	2fc2 <Code_764>
    2e2e:	4894      	ldr	r0, [pc, #592]	; (3080 <setflags_ram+0x48>)
    2e30:	2100      	movs	r1, #0
    2e32:	6001      	str	r1, [r0, #0]
    2e34:	bd00      	pop	{pc}

00002e36 <Dictionary_724>:
    2e36:	00002e4a 	andeq	r2, r0, sl, asr #28
    2e3a:	65070000 	strvs	r0, [r7, #-0]
    2e3e:	75636578 	strbvc	r6, [r3, #-1400]!	; 0x578
    2e42:	00306574 	eorseq	r6, r0, r4, ror r5

00002e44 <Code_724>:
    2e44:	0030      	movs	r0, r6
    2e46:	cf40      	ldmia	r7!, {r6}
    2e48:	4687      	mov	pc, r0

00002e4a <Dictionary_726>:
    2e4a:	00002e62 	andeq	r2, r0, r2, ror #28
    2e4e:	69090010 	stmdbvs	r9, {r4}
    2e52:	64656d6d 	strbtvs	r6, [r5], #-3437	; 0xd6d
    2e56:	65746169 	ldrbvs	r6, [r4, #-361]!	; 0x169

00002e5a <Code_726>:
    2e5a:	f847 6d04 	str.w	r6, [r7, #-4]!
    2e5e:	2610      	movs	r6, #16
    2e60:	e0de      	b.n	3020 <Code_770>

00002e62 <Dictionary_729>:
    2e62:	00002e78 	andeq	r2, r0, r8, ror lr
    2e66:	69060010 	stmdbvs	r6, {r4}
    2e6a:	6e696c6e 	cdpvs	12, 6, cr6, cr9, cr14, {3}
    2e6e:	f8470065 			; <UNDEFINED> instruction: 0xf8470065

00002e70 <Code_729>:
    2e70:	f847 6d04 	str.w	r6, [r7, #-4]!
    2e74:	2620      	movs	r6, #32
    2e76:	e0d3      	b.n	3020 <Code_770>

00002e78 <Dictionary_732>:
    2e78:	00002e92 	muleq	r0, r2, lr
    2e7c:	630b0010 	movwvs	r0, #45072	; 0xb010
    2e80:	69706d6f 	ldmdbvs	r0!, {r0, r1, r2, r3, r5, r6, r8, sl, fp, sp, lr}^
    2e84:	6e6f656c 	cdpvs	5, 6, cr6, cr15, cr12, {3}
    2e88:	f847796c 			; <UNDEFINED> instruction: 0xf847796c

00002e8a <Code_732>:
    2e8a:	f847 6d04 	str.w	r6, [r7, #-4]!
    2e8e:	2630      	movs	r6, #48	; 0x30
    2e90:	e0c6      	b.n	3020 <Code_770>

00002e92 <Dictionary_735>:
    2e92:	00002eac 	andeq	r2, r0, ip, lsr #29
    2e96:	300a0010 	andcc	r0, sl, r0, lsl r0
    2e9a:	6c6f662d 	stclvs	6, cr6, [pc], #-180	; 2dec <Code_717+0x1e>
    2e9e:	6c626164 	stfvse	f6, [r2], #-400	; 0xfffffe70
    2ea2:	f8470065 			; <UNDEFINED> instruction: 0xf8470065

00002ea4 <Code_735>:
    2ea4:	f847 6d04 	str.w	r6, [r7, #-4]!
    2ea8:	2640      	movs	r6, #64	; 0x40
    2eaa:	e0b9      	b.n	3020 <Code_770>

00002eac <Dictionary_738>:
    2eac:	00002ec6 	andeq	r2, r0, r6, asr #29
    2eb0:	310a0010 	tstcc	sl, r0, lsl r0
    2eb4:	6c6f662d 	stclvs	6, cr6, [pc], #-180	; 2e08 <Code_720+0x12>
    2eb8:	6c626164 	stfvse	f6, [r2], #-400	; 0xfffffe70
    2ebc:	f8470065 			; <UNDEFINED> instruction: 0xf8470065

00002ebe <Code_738>:
    2ebe:	f847 6d04 	str.w	r6, [r7, #-4]!
    2ec2:	2641      	movs	r6, #65	; 0x41
    2ec4:	e0ac      	b.n	3020 <Code_770>

00002ec6 <Dictionary_741>:
    2ec6:	00002ee0 	andeq	r2, r0, r0, ror #29
    2eca:	320a0010 	andcc	r0, sl, #16
    2ece:	6c6f662d 	stclvs	6, cr6, [pc], #-180	; 2e20 <Code_720+0x2a>
    2ed2:	6c626164 	stfvse	f6, [r2], #-400	; 0xfffffe70
    2ed6:	f8470065 			; <UNDEFINED> instruction: 0xf8470065

00002ed8 <Code_741>:
    2ed8:	f847 6d04 	str.w	r6, [r7, #-4]!
    2edc:	2642      	movs	r6, #66	; 0x42
    2ede:	e09f      	b.n	3020 <Code_770>

00002ee0 <Dictionary_744>:
    2ee0:	00002efa 	strdeq	r2, [r0], -sl
    2ee4:	330a0010 	movwcc	r0, #40976	; 0xa010
    2ee8:	6c6f662d 	stclvs	6, cr6, [pc], #-180	; 2e3c <Dictionary_724+0x6>
    2eec:	6c626164 	stfvse	f6, [r2], #-400	; 0xfffffe70
    2ef0:	f8470065 			; <UNDEFINED> instruction: 0xf8470065

00002ef2 <Code_744>:
    2ef2:	f847 6d04 	str.w	r6, [r7, #-4]!
    2ef6:	2643      	movs	r6, #67	; 0x43
    2ef8:	e092      	b.n	3020 <Code_770>

00002efa <Dictionary_747>:
    2efa:	00002f14 	andeq	r2, r0, r4, lsl pc
    2efe:	340a0010 	strcc	r0, [sl], #-16
    2f02:	6c6f662d 	stclvs	6, cr6, [pc], #-180	; 2e54 <Dictionary_726+0xa>
    2f06:	6c626164 	stfvse	f6, [r2], #-400	; 0xfffffe70
    2f0a:	f8470065 			; <UNDEFINED> instruction: 0xf8470065

00002f0c <Code_747>:
    2f0c:	f847 6d04 	str.w	r6, [r7, #-4]!
    2f10:	2644      	movs	r6, #68	; 0x44
    2f12:	e085      	b.n	3020 <Code_770>

00002f14 <Dictionary_750>:
    2f14:	00002f2e 	andeq	r2, r0, lr, lsr #30
    2f18:	350a0010 	strcc	r0, [sl, #-16]
    2f1c:	6c6f662d 	stclvs	6, cr6, [pc], #-180	; 2e70 <Code_729>
    2f20:	6c626164 	stfvse	f6, [r2], #-400	; 0xfffffe70
    2f24:	f8470065 			; <UNDEFINED> instruction: 0xf8470065

00002f26 <Code_750>:
    2f26:	f847 6d04 	str.w	r6, [r7, #-4]!
    2f2a:	2645      	movs	r6, #69	; 0x45
    2f2c:	e078      	b.n	3020 <Code_770>

00002f2e <Dictionary_753>:
    2f2e:	00002f48 	andeq	r2, r0, r8, asr #30
    2f32:	360a0010 			; <UNDEFINED> instruction: 0x360a0010
    2f36:	6c6f662d 	stclvs	6, cr6, [pc], #-180	; 2e88 <Dictionary_732+0x10>
    2f3a:	6c626164 	stfvse	f6, [r2], #-400	; 0xfffffe70
    2f3e:	f8470065 			; <UNDEFINED> instruction: 0xf8470065

00002f40 <Code_753>:
    2f40:	f847 6d04 	str.w	r6, [r7, #-4]!
    2f44:	2646      	movs	r6, #70	; 0x46
    2f46:	e06b      	b.n	3020 <Code_770>

00002f48 <Dictionary_756>:
    2f48:	00002f62 	andeq	r2, r0, r2, ror #30
    2f4c:	370a0010 	smladcc	sl, r0, r0, r0
    2f50:	6c6f662d 	stclvs	6, cr6, [pc], #-180	; 2ea4 <Code_735>
    2f54:	6c626164 	stfvse	f6, [r2], #-400	; 0xfffffe70
    2f58:	f8470065 			; <UNDEFINED> instruction: 0xf8470065

00002f5a <Code_756>:
    2f5a:	f847 6d04 	str.w	r6, [r7, #-4]!
    2f5e:	2647      	movs	r6, #71	; 0x47
    2f60:	e05e      	b.n	3020 <Code_770>

00002f62 <Dictionary_759>:
    2f62:	00002f92 	muleq	r0, r2, pc	; <UNPREDICTABLE>
    2f66:	63080000 	movwvs	r0, #32768	; 0x8000
    2f6a:	74736e6f 	ldrbtvc	r6, [r3], #-3695	; 0xe6f
    2f6e:	00746e61 	rsbseq	r6, r4, r1, ror #28

00002f72 <Code_759>:
    2f72:	b500      	push	{lr}
    2f74:	f000 f9ec 	bl	3350 <Code_818>
    2f78:	f7ff fe24 	bl	2bc4 <Code_676>
    2f7c:	f847 6d04 	str.w	r6, [r7, #-4]!
    2f80:	f244 7670 	movw	r6, #18288	; 0x4770
    2f84:	f000 f8e2 	bl	314c <Code_787>
    2f88:	f7ff ff8c 	bl	2ea4 <Code_735>
    2f8c:	f000 f819 	bl	2fc2 <Code_764>
    2f90:	bd00      	pop	{pc}

00002f92 <Dictionary_762>:
    2f92:	00002fb4 			; <UNDEFINED> instruction: 0x00002fb4
    2f96:	32090000 	andcc	r0, r9, #0
    2f9a:	736e6f63 	cmnvc	lr, #396	; 0x18c
    2f9e:	746e6174 	strbtvc	r6, [lr], #-372	; 0x174

00002fa2 <Code_762>:
    2fa2:	b500      	push	{lr}
    2fa4:	f000 f9d4 	bl	3350 <Code_818>
    2fa8:	6839      	ldr	r1, [r7, #0]
    2faa:	603e      	str	r6, [r7, #0]
    2fac:	460e      	mov	r6, r1
    2fae:	f7ff fe09 	bl	2bc4 <Code_676>
    2fb2:	e7e1      	b.n	2f78 <Code_759+0x6>

00002fb4 <Dictionary_764>:
    2fb4:	00003010 	andeq	r3, r0, r0, lsl r0
    2fb8:	73060000 	movwvc	r0, #24576	; 0x6000
    2fbc:	6764756d 	strbvs	r7, [r4, -sp, ror #10]!
    2fc0:	b5000065 	strlt	r0, [r0, #-101]	; 0x65

00002fc2 <Code_764>:
    2fc2:	b500      	push	{lr}
    2fc4:	482a      	ldr	r0, [pc, #168]	; (3070 <setflags_ram+0x38>)
    2fc6:	6801      	ldr	r1, [r0, #0]
    2fc8:	4a29      	ldr	r2, [pc, #164]	; (3070 <setflags_ram+0x38>)
    2fca:	4291      	cmp	r1, r2
    2fcc:	d21a      	bcs.n	3004 <smudge_ram>
    2fce:	3902      	subs	r1, #2
    2fd0:	880a      	ldrh	r2, [r1, #0]
    2fd2:	4b2d      	ldr	r3, [pc, #180]	; (3088 <setflags_ram+0x50>)
    2fd4:	429a      	cmp	r2, r3
    2fd6:	d104      	bne.n	2fe2 <Code_764+0x20>
    2fd8:	f847 6d04 	str.w	r6, [r7, #-4]!
    2fdc:	4e2b      	ldr	r6, [pc, #172]	; (308c <setflags_ram+0x54>)
    2fde:	f000 f8b5 	bl	314c <Code_787>
    2fe2:	f000 f886 	bl	30f2 <Code_778>
    2fe6:	482a      	ldr	r0, [pc, #168]	; (3090 <setflags_ram+0x58>)
    2fe8:	6800      	ldr	r0, [r0, #0]
    2fea:	f847 6d04 	str.w	r6, [r7, #-4]!
    2fee:	0006      	movs	r6, r0
    2ff0:	4928      	ldr	r1, [pc, #160]	; (3094 <setflags_ram+0x5c>)
    2ff2:	6809      	ldr	r1, [r1, #0]
    2ff4:	3104      	adds	r1, #4
    2ff6:	4a1e      	ldr	r2, [pc, #120]	; (3070 <setflags_ram+0x38>)
    2ff8:	6813      	ldr	r3, [r2, #0]
    2ffa:	6011      	str	r1, [r2, #0]
    2ffc:	f000 f8a6 	bl	314c <Code_787>
    3000:	6013      	str	r3, [r2, #0]
    3002:	bd00      	pop	{pc}

00003004 <smudge_ram>:
    3004:	f000 f875 	bl	30f2 <Code_778>
    3008:	f847 6d04 	str.w	r6, [r7, #-4]!
    300c:	2600      	movs	r6, #0
    300e:	e008      	b.n	3022 <setflags_intern>

00003010 <Dictionary_770>:
    3010:	00003098 	muleq	r0, r8, r0
    3014:	73080000 	movwvc	r0, #32768	; 0x8000
    3018:	6c667465 	cfstrdvs	mvd7, [r6], #-404	; 0xfffffe6c
    301c:	00736761 	rsbseq	r6, r3, r1, ror #14

00003020 <Code_770>:
    3020:	b500      	push	{lr}

00003022 <setflags_intern>:
    3022:	4813      	ldr	r0, [pc, #76]	; (3070 <setflags_ram+0x38>)
    3024:	6801      	ldr	r1, [r0, #0]
    3026:	4a12      	ldr	r2, [pc, #72]	; (3070 <setflags_ram+0x38>)
    3028:	4291      	cmp	r1, r2
    302a:	d205      	bcs.n	3038 <setflags_ram>
    302c:	4818      	ldr	r0, [pc, #96]	; (3090 <setflags_ram+0x58>)
    302e:	6801      	ldr	r1, [r0, #0]
    3030:	4331      	orrs	r1, r6
    3032:	6001      	str	r1, [r0, #0]
    3034:	cf40      	ldmia	r7!, {r6}
    3036:	bd00      	pop	{pc}

00003038 <setflags_ram>:
    3038:	0032      	movs	r2, r6
    303a:	cf40      	ldmia	r7!, {r6}
    303c:	4815      	ldr	r0, [pc, #84]	; (3094 <setflags_ram+0x5c>)
    303e:	6800      	ldr	r0, [r0, #0]
    3040:	3004      	adds	r0, #4
    3042:	8801      	ldrh	r1, [r0, #0]
    3044:	4b10      	ldr	r3, [pc, #64]	; (3088 <setflags_ram+0x50>)
    3046:	4299      	cmp	r1, r3
    3048:	bf0c      	ite	eq
    304a:	4611      	moveq	r1, r2
    304c:	4311      	orrne	r1, r2
    304e:	8001      	strh	r1, [r0, #0]
    3050:	bd00      	pop	{pc}
    3052:	00000000 	andeq	r0, r0, r0
    3056:	0000f240 	andeq	pc, r0, r0, asr #4
    305a:	0000f2c0 	andeq	pc, r0, r0, asr #5
    305e:	0000f05f 	andeq	pc, r0, pc, asr r0	; <UNPREDICTABLE>
    3062:	0001f07f 	andeq	pc, r1, pc, ror r0	; <UNPREDICTABLE>
    3066:	0000ffc0 	andeq	pc, r0, r0, asr #31
    306a:	f800ffc0 			; <UNDEFINED> instruction: 0xf800ffc0
    306e:	0000f000 	andeq	pc, r0, r0
    3072:	00142000 	andseq	r2, r4, r0
    3076:	2d082000 	stccs	0, cr2, [r8, #-0]
    307a:	2b5a0000 	blcs	1683082 <BIT24+0x683082>
    307e:	7fd80000 	svcvc	0x00d80000
    3082:	00102000 	andseq	r2, r0, r0
    3086:	ffff2000 			; <UNDEFINED> instruction: 0xffff2000
    308a:	00000000 	andeq	r0, r0, r0
    308e:	00200000 	eoreq	r0, r0, r0
    3092:	00042000 	andeq	r2, r4, r0
    3096:	30a62000 	adccc	r2, r6, r0

00003098 <Dictionary_773>:
    3098:	000030a6 	andeq	r3, r0, r6, lsr #1
    309c:	61050000 	mrsvs	r0, (UNDEF: 5)
    30a0:	6e67696c 	cdpvs	9, 6, cr6, cr7, cr12, {3}

000030a4 <Code_773>:
    30a4:	e025      	b.n	30f2 <Code_778>

000030a6 <Dictionary_774>:
    30a6:	000030c2 	andeq	r3, r0, r2, asr #1
    30aa:	61070041 	tstvs	r7, r1, asr #32
    30ae:	6e67696c 	cdpvs	9, 6, cr6, cr7, cr12, {3}
    30b2:	20016465 	andcs	r6, r1, r5, ror #8

000030b4 <Code_774>:
    30b4:	2001      	movs	r0, #1
    30b6:	4030      	ands	r0, r6
    30b8:	1836      	adds	r6, r6, r0
    30ba:	2002      	movs	r0, #2
    30bc:	4030      	ands	r0, r6
    30be:	1836      	adds	r6, r6, r0
    30c0:	4770      	bx	lr

000030c2 <Dictionary_775>:
    30c2:	000030e4 	andeq	r3, r0, r4, ror #1
    30c6:	61060000 	mrsvs	r0, (UNDEF: 6)
    30ca:	6e67696c 	cdpvs	9, 6, cr6, cr7, cr12, {3}
    30ce:	4895002c 	ldmmi	r5, {r2, r3, r5}

000030d0 <Code_775>:
    30d0:	4895      	ldr	r0, [pc, #596]	; (3328 <Zweitpointertausch+0x4e>)
    30d2:	6801      	ldr	r1, [r0, #0]
    30d4:	2001      	movs	r0, #1
    30d6:	4001      	ands	r1, r0
    30d8:	d003      	beq.n	30e2 <Code_775+0x12>
    30da:	f847 6d04 	str.w	r6, [r7, #-4]!
    30de:	2600      	movs	r6, #0
    30e0:	e01a      	b.n	3118 <Code_781>
    30e2:	4770      	bx	lr

000030e4 <Dictionary_778>:
    30e4:	0000310e 	andeq	r3, r0, lr, lsl #2
    30e8:	61070000 	mrsvs	r0, (UNDEF: 7)
    30ec:	6e67696c 	cdpvs	9, 6, cr6, cr7, cr12, {3}
    30f0:	b5002c34 	strlt	r2, [r0, #-3124]	; 0xc34

000030f2 <Code_778>:
    30f2:	b500      	push	{lr}
    30f4:	f7ff ffec 	bl	30d0 <Code_775>
    30f8:	488b      	ldr	r0, [pc, #556]	; (3328 <Zweitpointertausch+0x4e>)
    30fa:	6801      	ldr	r1, [r0, #0]
    30fc:	2002      	movs	r0, #2
    30fe:	4001      	ands	r1, r0
    3100:	d004      	beq.n	310c <Code_778+0x1a>
    3102:	f847 6d04 	str.w	r6, [r7, #-4]!
    3106:	2600      	movs	r6, #0
    3108:	f000 f820 	bl	314c <Code_787>
    310c:	bd00      	pop	{pc}

0000310e <Dictionary_781>:
    310e:	00003142 	andeq	r3, r0, r2, asr #2
    3112:	63020000 	movwvs	r0, #8192	; 0x2000
    3116:	b500002c 	strlt	r0, [r0, #-44]	; 0x2c

00003118 <Code_781>:
    3118:	b500      	push	{lr}
    311a:	4883      	ldr	r0, [pc, #524]	; (3328 <Zweitpointertausch+0x4e>)
    311c:	6801      	ldr	r1, [r0, #0]
    311e:	4a82      	ldr	r2, [pc, #520]	; (3328 <Zweitpointertausch+0x4e>)
    3120:	4291      	cmp	r1, r2
    3122:	d205      	bcs.n	3130 <ckomma_ram>
    3124:	f847 6d04 	str.w	r6, [r7, #-4]!
    3128:	000e      	movs	r6, r1
    312a:	f7fe fdf7 	bl	1d1c <Code_421>
    312e:	e002      	b.n	3136 <ckomma_fertig>

00003130 <ckomma_ram>:
    3130:	0032      	movs	r2, r6
    3132:	cf40      	ldmia	r7!, {r6}
    3134:	700a      	strb	r2, [r1, #0]

00003136 <ckomma_fertig>:
    3136:	f847 6d04 	str.w	r6, [r7, #-4]!
    313a:	2601      	movs	r6, #1
    313c:	f000 f871 	bl	3222 <Code_807>
    3140:	bd00      	pop	{pc}

00003142 <Dictionary_787>:
    3142:	00003178 	andeq	r3, r0, r8, ror r1
    3146:	68020000 	stmdavs	r2, {}	; <UNPREDICTABLE>
    314a:	b50f002c 	strlt	r0, [pc, #-44]	; 3126 <Code_781+0xe>

0000314c <Code_787>:
    314c:	b50f      	push	{r0, r1, r2, r3, lr}
    314e:	b2b6      	uxth	r6, r6
    3150:	4875      	ldr	r0, [pc, #468]	; (3328 <Zweitpointertausch+0x4e>)
    3152:	6801      	ldr	r1, [r0, #0]
    3154:	4a74      	ldr	r2, [pc, #464]	; (3328 <Zweitpointertausch+0x4e>)
    3156:	4291      	cmp	r1, r2
    3158:	d205      	bcs.n	3166 <hkomma_ram>
    315a:	f847 6d04 	str.w	r6, [r7, #-4]!
    315e:	000e      	movs	r6, r1
    3160:	f7fe fdb8 	bl	1cd4 <Code_418>
    3164:	e002      	b.n	316c <hkomma_fertig>

00003166 <hkomma_ram>:
    3166:	0032      	movs	r2, r6
    3168:	cf40      	ldmia	r7!, {r6}
    316a:	800a      	strh	r2, [r1, #0]

0000316c <hkomma_fertig>:
    316c:	f847 6d04 	str.w	r6, [r7, #-4]!
    3170:	2602      	movs	r6, #2
    3172:	f000 f856 	bl	3222 <Code_807>
    3176:	bd0f      	pop	{r0, r1, r2, r3, pc}

00003178 <Dictionary_793>:
    3178:	00003192 	muleq	r0, r2, r1
    317c:	2c010000 	stccs	0, cr0, [r1], {-0}

00003180 <Code_793>:
    3180:	b500      	push	{lr}
    3182:	f847 6d04 	str.w	r6, [r7, #-4]!
    3186:	f7ff ffe1 	bl	314c <Code_787>
    318a:	0c36      	lsrs	r6, r6, #16
    318c:	f7ff ffde 	bl	314c <Code_787>
    3190:	bd00      	pop	{pc}

00003192 <Dictionary_796>:
    3192:	000031ae 	andeq	r3, r0, lr, lsr #3
    3196:	3e030000 	cdpcc	0, 0, cr0, cr3, cr0, {0}
    319a:	b5002c3c 	strlt	r2, [r0, #-3132]	; 0xc3c

0000319c <Code_796>:
    319c:	b500      	push	{lr}
    319e:	f847 6d04 	str.w	r6, [r7, #-4]!
    31a2:	0c36      	lsrs	r6, r6, #16
    31a4:	f7ff ffd2 	bl	314c <Code_787>
    31a8:	f7ff ffd0 	bl	314c <Code_787>
    31ac:	bd00      	pop	{pc}

000031ae <Dictionary_799>:
    31ae:	00003216 	andeq	r3, r0, r6, lsl r2
    31b2:	73070000 	movwvc	r0, #28672	; 0x7000
    31b6:	6e697274 	mcrvs	2, 3, r7, cr9, cr4, {3}
    31ba:	b5072c67 	strlt	r2, [r7, #-3175]	; 0xc67

000031bc <Code_799>:
    31bc:	b507      	push	{r0, r1, r2, lr}
    31be:	21ff      	movs	r1, #255	; 0xff
    31c0:	4031      	ands	r1, r6
    31c2:	cf40      	ldmia	r7!, {r6}
    31c4:	0030      	movs	r0, r6
    31c6:	cf40      	ldmia	r7!, {r6}
    31c8:	2900      	cmp	r1, #0
    31ca:	d105      	bne.n	31d8 <Code_799+0x1c>
    31cc:	f847 6d04 	str.w	r6, [r7, #-4]!
    31d0:	2600      	movs	r6, #0
    31d2:	f7ff ffbb 	bl	314c <Code_787>
    31d6:	bd07      	pop	{r0, r1, r2, pc}
    31d8:	f847 6d04 	str.w	r6, [r7, #-4]!
    31dc:	7806      	ldrb	r6, [r0, #0]
    31de:	0236      	lsls	r6, r6, #8
    31e0:	430e      	orrs	r6, r1
    31e2:	f7ff ffb3 	bl	314c <Code_787>
    31e6:	3001      	adds	r0, #1
    31e8:	3901      	subs	r1, #1
    31ea:	2902      	cmp	r1, #2
    31ec:	d30a      	bcc.n	3204 <Flag_allocator_Rechenlogik_kommutativ+0x4>
    31ee:	f847 6d04 	str.w	r6, [r7, #-4]!
    31f2:	7846      	ldrb	r6, [r0, #1]
    31f4:	0236      	lsls	r6, r6, #8
    31f6:	7802      	ldrb	r2, [r0, #0]
    31f8:	4316      	orrs	r6, r2
    31fa:	f7ff ffa7 	bl	314c <Code_787>
    31fe:	3002      	adds	r0, #2
    3200:	3902      	subs	r1, #2
    3202:	e7f2      	b.n	31ea <Code_799+0x2e>
    3204:	2900      	cmp	r1, #0
    3206:	d100      	bne.n	320a <Flag_allocator_Rechenlogik_kommutativ+0xa>
    3208:	bd07      	pop	{r0, r1, r2, pc}
    320a:	f847 6d04 	str.w	r6, [r7, #-4]!
    320e:	7806      	ldrb	r6, [r0, #0]
    3210:	f7ff ff9c 	bl	314c <Code_787>
    3214:	bd07      	pop	{r0, r1, r2, pc}

00003216 <Dictionary_807>:
    3216:	00003270 	andeq	r3, r0, r0, ror r2
    321a:	61050000 	mrsvs	r0, (UNDEF: 5)
    321e:	746f6c6c 	strbtvc	r6, [pc], #-3180	; 3226 <Code_807+0x4>

00003222 <Code_807>:
    3222:	4841      	ldr	r0, [pc, #260]	; (3328 <Zweitpointertausch+0x4e>)
    3224:	6801      	ldr	r1, [r0, #0]
    3226:	4a40      	ldr	r2, [pc, #256]	; (3328 <Zweitpointertausch+0x4e>)
    3228:	4291      	cmp	r1, r2
    322a:	d20f      	bcs.n	324c <allot_ram>
    322c:	0032      	movs	r2, r6
    322e:	cf40      	ldmia	r7!, {r6}
    3230:	1889      	adds	r1, r1, r2
    3232:	4a3e      	ldr	r2, [pc, #248]	; (332c <Zweitpointertausch+0x52>)
    3234:	4291      	cmp	r1, r2
    3236:	d319      	bcc.n	326c <allot_ok>
    3238:	f7ff fa37 	bl	26aa <dotgaensefuesschen>
    323c:	616c460b 	cmnvs	ip, fp, lsl #12
    3240:	66206873 			; <UNDEFINED> instruction: 0x66206873
    3244:	0a6c6c75 	beq	1b1e420 <BIT24+0xb1e420>
    3248:	f001 b93b 	b.w	44c2 <Code_1174>

0000324c <allot_ram>:
    324c:	0032      	movs	r2, r6
    324e:	cf40      	ldmia	r7!, {r6}
    3250:	1889      	adds	r1, r1, r2
    3252:	4a37      	ldr	r2, [pc, #220]	; (3330 <Zweitpointertausch+0x56>)
    3254:	6812      	ldr	r2, [r2, #0]
    3256:	4291      	cmp	r1, r2
    3258:	d308      	bcc.n	326c <allot_ok>
    325a:	f7ff fa26 	bl	26aa <dotgaensefuesschen>
    325e:	6d615209 	sfmvs	f5, 2, [r1, #-36]!	; 0xffffffdc
    3262:	6c756620 	ldclvs	6, cr6, [r5], #-128	; 0xffffff80
    3266:	f0010a6c 			; <UNDEFINED> instruction: 0xf0010a6c
    326a:	b92b      	cbnz	r3, 3278 <Dictionary_812+0x8>

0000326c <allot_ok>:
    326c:	6001      	str	r1, [r0, #0]
    326e:	4770      	bx	lr

00003270 <Dictionary_812>:
    3270:	00003298 	muleq	r0, r8, r2
    3274:	630d0000 	movwvs	r0, #53248	; 0xd000
    3278:	69706d6f 	ldmdbvs	r0!, {r0, r1, r2, r3, r5, r6, r8, sl, fp, sp, lr}^
    327c:	6f74656c 	svcvs	0x0074656c
    3280:	3f6d6172 	svccc	0x006d6172

00003284 <Code_812>:
    3284:	f847 6d04 	str.w	r6, [r7, #-4]!
    3288:	2600      	movs	r6, #0
    328a:	4827      	ldr	r0, [pc, #156]	; (3328 <Zweitpointertausch+0x4e>)
    328c:	6800      	ldr	r0, [r0, #0]
    328e:	4926      	ldr	r1, [pc, #152]	; (3328 <Zweitpointertausch+0x4e>)
    3290:	4288      	cmp	r0, r1
    3292:	d348      	bcc.n	3326 <Zweitpointertausch+0x4c>
    3294:	43f6      	mvns	r6, r6
    3296:	4770      	bx	lr

00003298 <Dictionary_815>:
    3298:	000032b8 			; <UNDEFINED> instruction: 0x000032b8
    329c:	630c0000 	movwvs	r0, #49152	; 0xc000
    32a0:	69706d6f 	ldmdbvs	r0!, {r0, r1, r2, r3, r5, r6, r8, sl, fp, sp, lr}^
    32a4:	6f74656c 	svcvs	0x0074656c
    32a8:	006d6172 	rsbeq	r6, sp, r2, ror r1

000032ac <Code_815>:
    32ac:	481e      	ldr	r0, [pc, #120]	; (3328 <Zweitpointertausch+0x4e>)
    32ae:	6800      	ldr	r0, [r0, #0]
    32b0:	491d      	ldr	r1, [pc, #116]	; (3328 <Zweitpointertausch+0x4e>)
    32b2:	4288      	cmp	r0, r1
    32b4:	d311      	bcc.n	32da <Zweitpointertausch>
    32b6:	4770      	bx	lr

000032b8 <Dictionary_816>:
    32b8:	00003340 	andeq	r3, r0, r0, asr #6
    32bc:	630e0000 	movwvs	r0, #57344	; 0xe000
    32c0:	69706d6f 	ldmdbvs	r0!, {r0, r1, r2, r3, r5, r6, r8, sl, fp, sp, lr}^
    32c4:	6f74656c 	svcvs	0x0074656c
    32c8:	73616c66 	cmnvc	r1, #26112	; 0x6600
    32cc:	48160068 	ldmdami	r6, {r3, r5, r6}

000032ce <Code_816>:
    32ce:	4816      	ldr	r0, [pc, #88]	; (3328 <Zweitpointertausch+0x4e>)
    32d0:	6800      	ldr	r0, [r0, #0]
    32d2:	4915      	ldr	r1, [pc, #84]	; (3328 <Zweitpointertausch+0x4e>)
    32d4:	4288      	cmp	r0, r1
    32d6:	d200      	bcs.n	32da <Zweitpointertausch>
    32d8:	4770      	bx	lr

000032da <Zweitpointertausch>:
    32da:	4816      	ldr	r0, [pc, #88]	; (3334 <Zweitpointertausch+0x5a>)
    32dc:	4916      	ldr	r1, [pc, #88]	; (3338 <Zweitpointertausch+0x5e>)
    32de:	6802      	ldr	r2, [r0, #0]
    32e0:	680b      	ldr	r3, [r1, #0]
    32e2:	600a      	str	r2, [r1, #0]
    32e4:	6003      	str	r3, [r0, #0]
    32e6:	4810      	ldr	r0, [pc, #64]	; (3328 <Zweitpointertausch+0x4e>)
    32e8:	4914      	ldr	r1, [pc, #80]	; (333c <Zweitpointertausch+0x62>)
    32ea:	6802      	ldr	r2, [r0, #0]
    32ec:	680b      	ldr	r3, [r1, #0]
    32ee:	600a      	str	r2, [r1, #0]
    32f0:	6003      	str	r3, [r0, #0]
    32f2:	480f      	ldr	r0, [pc, #60]	; (3330 <Zweitpointertausch+0x56>)
    32f4:	6800      	ldr	r0, [r0, #0]
    32f6:	4283      	cmp	r3, r0
    32f8:	d315      	bcc.n	3326 <Zweitpointertausch+0x4c>
    32fa:	b500      	push	{lr}
    32fc:	f7ff f9d5 	bl	26aa <dotgaensefuesschen>
    3300:	61562023 	cmpvs	r6, r3, lsr #32
    3304:	62616972 	rsbvs	r6, r1, #1867776	; 0x1c8000
    3308:	2073656c 	rsbscs	r6, r3, ip, ror #10
    330c:	6c6c6f63 	stclvs	15, cr6, [ip], #-396	; 0xfffffe74
    3310:	20656469 	rsbcs	r6, r5, r9, ror #8
    3314:	68746977 	ldmdavs	r4!, {r0, r1, r2, r4, r5, r6, r8, fp, sp, lr}^
    3318:	63696420 	cmnvs	r9, #536870912	; 0x20000000
    331c:	6e6f6974 	mcrvs	9, 3, r6, cr15, cr4, {3}
    3320:	0a797261 	beq	1e5fcac <BIT24+0xe5fcac>
    3324:	bd00      	pop	{pc}
    3326:	4770      	bx	lr
    3328:	20000000 	andcs	r0, r0, r0
    332c:	00040000 	andeq	r0, r4, r0
    3330:	20000024 	andcs	r0, r0, r4, lsr #32
    3334:	20000004 	andcs	r0, r0, r4
    3338:	2000001c 	andcs	r0, r0, ip, lsl r0
    333c:	20000018 	andcs	r0, r0, r8, lsl r0

00003340 <Dictionary_818>:
    3340:	0000342e 	andeq	r3, r0, lr, lsr #8
    3344:	28080000 	stmdacs	r8, {}	; <UNPREDICTABLE>
    3348:	61657263 	cmnvs	r5, r3, ror #4
    334c:	00296574 	eoreq	r6, r9, r4, ror r5

00003350 <Code_818>:
    3350:	b500      	push	{lr}
    3352:	f000 fdea 	bl	3f2a <Code_1077>
    3356:	2e00      	cmp	r6, #0
    3358:	d10e      	bne.n	3378 <Code_818+0x28>
    335a:	f7ff f9a6 	bl	26aa <dotgaensefuesschen>
    335e:	72432015 	subvc	r2, r3, #21
    3362:	65746165 	ldrbvs	r6, [r4, #-357]!	; 0x165
    3366:	65656e20 	strbvs	r6, [r5, #-3616]!	; 0xe20
    336a:	6e207364 	cdpvs	3, 2, cr7, cr0, cr4, {3}
    336e:	20656d61 	rsbcs	r6, r5, r1, ror #26
    3372:	f0010a21 			; <UNDEFINED> instruction: 0xf0010a21
    3376:	b8a5      			; <UNDEFINED> instruction: 0xb8a5
    3378:	6838      	ldr	r0, [r7, #0]
    337a:	f847 6d04 	str.w	r6, [r7, #-4]!
    337e:	3f04      	subs	r7, #4
    3380:	6038      	str	r0, [r7, #0]
    3382:	f000 f9a0 	bl	36c6 <Code_881>
    3386:	cf40      	ldmia	r7!, {r6}
    3388:	2e00      	cmp	r6, #0
    338a:	cf40      	ldmia	r7!, {r6}
    338c:	d011      	beq.n	33b2 <Code_818+0x62>
    338e:	6838      	ldr	r0, [r7, #0]
    3390:	f847 6d04 	str.w	r6, [r7, #-4]!
    3394:	3f04      	subs	r7, #4
    3396:	6038      	str	r0, [r7, #0]
    3398:	f7ff f987 	bl	26aa <dotgaensefuesschen>
    339c:	64655209 	strbtvs	r5, [r5], #-521	; 0x209
    33a0:	6e696665 	cdpvs	6, 6, cr6, cr9, cr5, {3}
    33a4:	f7ff2065 			; <UNDEFINED> instruction: 0xf7ff2065
    33a8:	f9dc f7ff 	ldr??.w	pc, [ip, #2047]	; 0x7ff
    33ac:	f97e 2e02 	ldr??t	r2, [lr, #2]
    33b0:	f7ff000a 			; <UNDEFINED> instruction: 0xf7ff000a
    33b4:	fe8d f7ff 	mcr2	7, 4, pc, cr13, cr15, {7}	; <UNPREDICTABLE>
    33b8:	fe9c f000 	cdp2	0, 9, cr15, cr12, cr0, {0}
    33bc:	fa18 488e 			; <UNDEFINED> instruction: 0xfa18488e
    33c0:	6800      	ldr	r0, [r0, #0]
    33c2:	498d      	ldr	r1, [pc, #564]	; (35f8 <rambuffer_ram+0x44>)
    33c4:	4288      	cmp	r0, r1
    33c6:	d21c      	bcs.n	3402 <create_ram>
    33c8:	488c      	ldr	r0, [pc, #560]	; (35fc <rambuffer_ram+0x48>)
    33ca:	2100      	movs	r1, #0
    33cc:	6001      	str	r1, [r0, #0]
    33ce:	f847 6d04 	str.w	r6, [r7, #-4]!
    33d2:	2606      	movs	r6, #6
    33d4:	f7ff ff25 	bl	3222 <Code_807>
    33d8:	f7fd fdc8 	bl	f6c <Code_206>
    33dc:	f7ff feee 	bl	31bc <Code_799>
    33e0:	4887      	ldr	r0, [pc, #540]	; (3600 <rambuffer_ram+0x4c>)
    33e2:	6801      	ldr	r1, [r0, #0]
    33e4:	680a      	ldr	r2, [r1, #0]
    33e6:	4b87      	ldr	r3, [pc, #540]	; (3604 <rambuffer_ram+0x50>)
    33e8:	429a      	cmp	r2, r3
    33ea:	d107      	bne.n	33fc <Code_818+0xac>
    33ec:	4a82      	ldr	r2, [pc, #520]	; (35f8 <rambuffer_ram+0x44>)
    33ee:	6813      	ldr	r3, [r2, #0]
    33f0:	6011      	str	r1, [r2, #0]
    33f2:	f847 6d04 	str.w	r6, [r7, #-4]!
    33f6:	f7ff fec3 	bl	3180 <Code_793>
    33fa:	6013      	str	r3, [r2, #0]
    33fc:	6006      	str	r6, [r0, #0]
    33fe:	cf40      	ldmia	r7!, {r6}
    3400:	e010      	b.n	3424 <create_ende>

00003402 <create_ram>:
    3402:	487f      	ldr	r0, [pc, #508]	; (3600 <rambuffer_ram+0x4c>)
    3404:	f847 6d04 	str.w	r6, [r7, #-4]!
    3408:	6806      	ldr	r6, [r0, #0]
    340a:	f7ff feb9 	bl	3180 <Code_793>
    340e:	f847 6d04 	str.w	r6, [r7, #-4]!
    3412:	4e7d      	ldr	r6, [pc, #500]	; (3608 <rambuffer_ram+0x54>)
    3414:	f7ff fe9a 	bl	314c <Code_787>
    3418:	4879      	ldr	r0, [pc, #484]	; (3600 <rambuffer_ram+0x4c>)
    341a:	0031      	movs	r1, r6
    341c:	cf40      	ldmia	r7!, {r6}
    341e:	6001      	str	r1, [r0, #0]
    3420:	f7ff fecc 	bl	31bc <Code_799>

00003424 <create_ende>:
    3424:	4874      	ldr	r0, [pc, #464]	; (35f8 <rambuffer_ram+0x44>)
    3426:	6801      	ldr	r1, [r0, #0]
    3428:	4878      	ldr	r0, [pc, #480]	; (360c <rambuffer_ram+0x58>)
    342a:	6001      	str	r1, [r0, #0]
    342c:	bd00      	pop	{pc}

0000342e <Dictionary_836>:
    342e:	00003446 	andeq	r3, r0, r6, asr #8
    3432:	76080000 	strvc	r0, [r8], -r0
    3436:	61697261 	cmnvs	r9, r1, ror #4
    343a:	00656c62 	rsbeq	r6, r5, r2, ror #24

0000343e <Code_836>:
    343e:	f847 6d04 	str.w	r6, [r7, #-4]!
    3442:	2601      	movs	r6, #1
    3444:	e013      	b.n	346e <Code_842>

00003446 <Dictionary_839>:
    3446:	0000345e 	andeq	r3, r0, lr, asr r4
    344a:	32090000 	andcc	r0, r9, #0
    344e:	69726176 	ldmdbvs	r2!, {r1, r2, r4, r5, r6, r8, sp, lr}^
    3452:	656c6261 	strbvs	r6, [ip, #-609]!	; 0x261

00003456 <Code_839>:
    3456:	f847 6d04 	str.w	r6, [r7, #-4]!
    345a:	2602      	movs	r6, #2
    345c:	e007      	b.n	346e <Code_842>

0000345e <Dictionary_842>:
    345e:	00003538 	andeq	r3, r0, r8, lsr r5
    3462:	6e090000 	cdpvs	0, 0, cr0, cr9, cr0, {0}
    3466:	69726176 	ldmdbvs	r2!, {r1, r2, r4, r5, r6, r8, sp, lr}^
    346a:	656c6261 	strbvs	r6, [ip, #-609]!	; 0x261

0000346e <Code_842>:
    346e:	b500      	push	{lr}
    3470:	f7ff ff6e 	bl	3350 <Code_818>
    3474:	4860      	ldr	r0, [pc, #384]	; (35f8 <rambuffer_ram+0x44>)
    3476:	6801      	ldr	r1, [r0, #0]
    3478:	4a5f      	ldr	r2, [pc, #380]	; (35f8 <rambuffer_ram+0x44>)
    347a:	4291      	cmp	r1, r2
    347c:	d234      	bcs.n	34e8 <variable_ram>
    347e:	200f      	movs	r0, #15
    3480:	4006      	ands	r6, r0
    3482:	00b2      	lsls	r2, r6, #2
    3484:	4862      	ldr	r0, [pc, #392]	; (3610 <rambuffer_ram+0x5c>)
    3486:	6801      	ldr	r1, [r0, #0]
    3488:	1a89      	subs	r1, r1, r2
    348a:	4a62      	ldr	r2, [pc, #392]	; (3614 <rambuffer_ram+0x60>)
    348c:	4291      	cmp	r1, r2
    348e:	d20b      	bcs.n	34a8 <Code_842+0x3a>
    3490:	f7ff f90b 	bl	26aa <dotgaensefuesschen>
    3494:	746f4e0f 	strbtvc	r4, [pc], #-3599	; 349c <Code_842+0x2e>
    3498:	6f6e6520 	svcvs	0x006e6520
    349c:	20686775 	rsbcs	r6, r8, r5, ror r7
    34a0:	0a4d4152 	beq	13539f0 <BIT24+0x3539f0>
    34a4:	f001 b80d 	b.w	44c2 <Code_1174>
    34a8:	6001      	str	r1, [r0, #0]
    34aa:	f847 6d04 	str.w	r6, [r7, #-4]!
    34ae:	000e      	movs	r6, r1
    34b0:	f7ff fb88 	bl	2bc4 <Code_676>
    34b4:	f847 6d04 	str.w	r6, [r7, #-4]!
    34b8:	f244 7670 	movw	r6, #18288	; 0x4770
    34bc:	f7ff fe46 	bl	314c <Code_787>
    34c0:	0030      	movs	r0, r6
    34c2:	cf40      	ldmia	r7!, {r6}
    34c4:	0002      	movs	r2, r0
    34c6:	2800      	cmp	r0, #0
    34c8:	d005      	beq.n	34d6 <Code_842+0x68>
    34ca:	600e      	str	r6, [r1, #0]
    34cc:	3104      	adds	r1, #4
    34ce:	f7ff fe57 	bl	3180 <Code_793>
    34d2:	3801      	subs	r0, #1
    34d4:	d1f9      	bne.n	34ca <Code_842+0x5c>
    34d6:	f847 6d04 	str.w	r6, [r7, #-4]!
    34da:	2680      	movs	r6, #128	; 0x80
    34dc:	4316      	orrs	r6, r2
    34de:	f7ff fd9f 	bl	3020 <Code_770>
    34e2:	f7ff fd6e 	bl	2fc2 <Code_764>
    34e6:	bd00      	pop	{pc}

000034e8 <variable_ram>:
    34e8:	f000 f981 	bl	37ee <Code_903>
    34ec:	2002      	movs	r0, #2
    34ee:	4006      	ands	r6, r0
    34f0:	cf40      	ldmia	r7!, {r6}
    34f2:	d104      	bne.n	34fe <variable_ram+0x16>
    34f4:	f847 6d04 	str.w	r6, [r7, #-4]!
    34f8:	2636      	movs	r6, #54	; 0x36
    34fa:	f7ff fe27 	bl	314c <Code_787>
    34fe:	f847 6d04 	str.w	r6, [r7, #-4]!
    3502:	4e45      	ldr	r6, [pc, #276]	; (3618 <rambuffer_ram+0x64>)
    3504:	f7ff fe4a 	bl	319c <Code_796>
    3508:	f847 6d04 	str.w	r6, [r7, #-4]!
    350c:	4e43      	ldr	r6, [pc, #268]	; (361c <rambuffer_ram+0x68>)
    350e:	f7ff fe45 	bl	319c <Code_796>
    3512:	f847 6d04 	str.w	r6, [r7, #-4]!
    3516:	f244 7670 	movw	r6, #18288	; 0x4770
    351a:	f7ff fe17 	bl	314c <Code_787>
    351e:	0030      	movs	r0, r6
    3520:	cf40      	ldmia	r7!, {r6}
    3522:	2800      	cmp	r0, #0
    3524:	d003      	beq.n	352e <variable_ram+0x46>
    3526:	f7ff fe2b 	bl	3180 <Code_793>
    352a:	3801      	subs	r0, #1
    352c:	d1fb      	bne.n	3526 <variable_ram+0x3e>
    352e:	f7ff fcb9 	bl	2ea4 <Code_735>
    3532:	f7ff fd46 	bl	2fc2 <Code_764>
    3536:	bd00      	pop	{pc}

00003538 <Dictionary_859>:
    3538:	00003620 	andeq	r3, r0, r0, lsr #12
    353c:	62070000 	andvs	r0, r7, #0
    3540:	65666675 	strbvs	r6, [r6, #-1653]!	; 0x675
    3544:	b5003a72 	strlt	r3, [r0, #-2674]	; 0xa72

00003546 <Code_859>:
    3546:	b500      	push	{lr}
    3548:	f7ff ff02 	bl	3350 <Code_818>
    354c:	2001      	movs	r0, #1
    354e:	4030      	ands	r0, r6
    3550:	1836      	adds	r6, r6, r0
    3552:	2002      	movs	r0, #2
    3554:	4030      	ands	r0, r6
    3556:	1836      	adds	r6, r6, r0
    3558:	4827      	ldr	r0, [pc, #156]	; (35f8 <rambuffer_ram+0x44>)
    355a:	6801      	ldr	r1, [r0, #0]
    355c:	4a26      	ldr	r2, [pc, #152]	; (35f8 <rambuffer_ram+0x44>)
    355e:	4291      	cmp	r1, r2
    3560:	d228      	bcs.n	35b4 <rambuffer_ram>
    3562:	482b      	ldr	r0, [pc, #172]	; (3610 <rambuffer_ram+0x5c>)
    3564:	6801      	ldr	r1, [r0, #0]
    3566:	1b89      	subs	r1, r1, r6
    3568:	4a2a      	ldr	r2, [pc, #168]	; (3614 <rambuffer_ram+0x60>)
    356a:	4291      	cmp	r1, r2
    356c:	d20b      	bcs.n	3586 <Code_859+0x40>
    356e:	f7ff f89c 	bl	26aa <dotgaensefuesschen>
    3572:	746f4e0f 	strbtvc	r4, [pc], #-3599	; 357a <Code_859+0x34>
    3576:	6f6e6520 	svcvs	0x006e6520
    357a:	20686775 	rsbcs	r6, r8, r5, ror r7
    357e:	0a4d4152 	beq	1353ace <BIT24+0x353ace>
    3582:	f000 bf9e 	b.w	44c2 <Code_1174>
    3586:	6001      	str	r1, [r0, #0]
    3588:	f847 6d04 	str.w	r6, [r7, #-4]!
    358c:	000e      	movs	r6, r1
    358e:	f7ff fb19 	bl	2bc4 <Code_676>
    3592:	f847 6d04 	str.w	r6, [r7, #-4]!
    3596:	f244 7670 	movw	r6, #18288	; 0x4770
    359a:	f7ff fdd7 	bl	314c <Code_787>
    359e:	f7ff fdef 	bl	3180 <Code_793>
    35a2:	f847 6d04 	str.w	r6, [r7, #-4]!
    35a6:	f240 1640 	movw	r6, #320	; 0x140
    35aa:	f7ff fd39 	bl	3020 <Code_770>
    35ae:	f7ff fd08 	bl	2fc2 <Code_764>
    35b2:	bd00      	pop	{pc}

000035b4 <rambuffer_ram>:
    35b4:	f000 f91b 	bl	37ee <Code_903>
    35b8:	2002      	movs	r0, #2
    35ba:	4006      	ands	r6, r0
    35bc:	cf40      	ldmia	r7!, {r6}
    35be:	d104      	bne.n	35ca <rambuffer_ram+0x16>
    35c0:	f847 6d04 	str.w	r6, [r7, #-4]!
    35c4:	2636      	movs	r6, #54	; 0x36
    35c6:	f7ff fdc1 	bl	314c <Code_787>
    35ca:	f847 6d04 	str.w	r6, [r7, #-4]!
    35ce:	4e12      	ldr	r6, [pc, #72]	; (3618 <rambuffer_ram+0x64>)
    35d0:	f7ff fde4 	bl	319c <Code_796>
    35d4:	f847 6d04 	str.w	r6, [r7, #-4]!
    35d8:	4e10      	ldr	r6, [pc, #64]	; (361c <rambuffer_ram+0x68>)
    35da:	f7ff fddf 	bl	319c <Code_796>
    35de:	f847 6d04 	str.w	r6, [r7, #-4]!
    35e2:	f244 7670 	movw	r6, #18288	; 0x4770
    35e6:	f7ff fdb1 	bl	314c <Code_787>
    35ea:	f7ff fe1a 	bl	3222 <Code_807>
    35ee:	f7ff fc59 	bl	2ea4 <Code_735>
    35f2:	f7ff fce6 	bl	2fc2 <Code_764>
    35f6:	bd00      	pop	{pc}
    35f8:	20000000 	andcs	r0, r0, r0
    35fc:	20000020 	andcs	r0, r0, r0, lsr #32
    3600:	20000004 	andcs	r0, r0, r4
    3604:	ffffffff 			; <UNDEFINED> instruction: 0xffffffff
    3608:	0000ffff 	strdeq	pc, [r0], -pc	; <UNPREDICTABLE>
    360c:	20000014 	andcs	r0, r0, r4, lsl r0
    3610:	20000024 	andcs	r0, r0, r4, lsr #32
    3614:	2000035c 	andcs	r0, r0, ip, asr r3
    3618:	3f04603e 	svccc	0x0004603e
    361c:	467e3602 	ldrbtmi	r3, [lr], -r2, lsl #12

00003620 <Dictionary_874>:
    3620:	0000364e 	andeq	r3, r0, lr, asr #12
    3624:	640f0000 	strvs	r0, [pc], #-0	; 362c <Dictionary_874+0xc>
    3628:	69746369 	ldmdbvs	r4!, {r0, r3, r5, r6, r8, r9, sp, lr}^
    362c:	72616e6f 	rsbvc	r6, r1, #1776	; 0x6f0
    3630:	61747379 	cmnvs	r4, r9, ror r3
    3634:	48417472 	stmdami	r1, {r1, r4, r5, r6, sl, ip, sp, lr}^

00003636 <Code_874>:
    3636:	4841      	ldr	r0, [pc, #260]	; (373c <find_not_found+0x18>)
    3638:	6800      	ldr	r0, [r0, #0]
    363a:	4940      	ldr	r1, [pc, #256]	; (373c <find_not_found+0x18>)
    363c:	f847 6d04 	str.w	r6, [r7, #-4]!
    3640:	4288      	cmp	r0, r1
    3642:	d201      	bcs.n	3648 <Code_874+0x12>
    3644:	4e3e      	ldr	r6, [pc, #248]	; (3740 <find_not_found+0x1c>)
    3646:	4770      	bx	lr
    3648:	4e3e      	ldr	r6, [pc, #248]	; (3744 <find_not_found+0x20>)
    364a:	6836      	ldr	r6, [r6, #0]
    364c:	4770      	bx	lr

0000364e <Dictionary_876>:
    364e:	00003688 	andeq	r3, r0, r8, lsl #13
    3652:	640e0000 	strvs	r0, [lr], #-0
    3656:	69746369 	ldmdbvs	r4!, {r0, r3, r5, r6, r8, r9, sp, lr}^
    365a:	72616e6f 	rsbvc	r6, r1, #1776	; 0x6f0
    365e:	78656e79 	stmdavc	r5!, {r0, r3, r4, r5, r6, r9, sl, fp, sp, lr}^
    3662:	b5030074 	strlt	r0, [r3, #-116]	; 0x74

00003664 <Code_876>:
    3664:	b503      	push	{r0, r1, lr}
    3666:	6831      	ldr	r1, [r6, #0]
    3668:	4837      	ldr	r0, [pc, #220]	; (3748 <find_not_found+0x24>)
    366a:	4281      	cmp	r1, r0
    366c:	d007      	beq.n	367e <Code_876+0x1a>
    366e:	7988      	ldrb	r0, [r1, #6]
    3670:	28ff      	cmp	r0, #255	; 0xff
    3672:	d004      	beq.n	367e <Code_876+0x1a>
    3674:	000e      	movs	r6, r1
    3676:	f847 6d04 	str.w	r6, [r7, #-4]!
    367a:	2600      	movs	r6, #0
    367c:	bd03      	pop	{r0, r1, pc}
    367e:	f847 6d04 	str.w	r6, [r7, #-4]!
    3682:	2600      	movs	r6, #0
    3684:	43f6      	mvns	r6, r6
    3686:	bd03      	pop	{r0, r1, pc}

00003688 <Dictionary_880>:
    3688:	000036ba 			; <UNDEFINED> instruction: 0x000036ba
    368c:	730a0000 	movwvc	r0, #40960	; 0xa000
    3690:	7370696b 	cmnvc	r0, #1753088	; 0x1ac000
    3694:	6e697274 	mcrvs	2, 3, r7, cr9, cr4, {3}
    3698:	78310067 	ldmdavc	r1!, {r0, r1, r2, r5, r6}

0000369a <Code_880>:
    369a:	7831      	ldrb	r1, [r6, #0]
    369c:	3101      	adds	r1, #1
    369e:	2201      	movs	r2, #1
    36a0:	400a      	ands	r2, r1
    36a2:	1889      	adds	r1, r1, r2
    36a4:	1876      	adds	r6, r6, r1
    36a6:	4770      	bx	lr

000036a8 <skipstring>:
    36a8:	b406      	push	{r1, r2}
    36aa:	7801      	ldrb	r1, [r0, #0]
    36ac:	3101      	adds	r1, #1
    36ae:	2201      	movs	r2, #1
    36b0:	400a      	ands	r2, r1
    36b2:	1889      	adds	r1, r1, r2
    36b4:	1840      	adds	r0, r0, r1
    36b6:	bc06      	pop	{r1, r2}
    36b8:	4770      	bx	lr

000036ba <Dictionary_881>:
    36ba:	00003750 	andeq	r3, r0, r0, asr r7
    36be:	66040000 	strvs	r0, [r4], -r0
    36c2:	00646e69 	rsbeq	r6, r4, r9, ror #28

000036c6 <Code_881>:
    36c6:	b53f      	push	{r0, r1, r2, r3, r4, r5, lr}
    36c8:	2200      	movs	r2, #0
    36ca:	2300      	movs	r3, #0
    36cc:	0035      	movs	r5, r6
    36ce:	cf40      	ldmia	r7!, {r6}
    36d0:	0034      	movs	r4, r6
    36d2:	cf40      	ldmia	r7!, {r6}
    36d4:	f7ff ffaf 	bl	3636 <Code_874>
    36d8:	481c      	ldr	r0, [pc, #112]	; (374c <find_not_found+0x28>)
    36da:	88b1      	ldrh	r1, [r6, #4]
    36dc:	4288      	cmp	r0, r1
    36de:	d017      	beq.n	3710 <Code_881+0x4a>
    36e0:	f847 6d04 	str.w	r6, [r7, #-4]!
    36e4:	3606      	adds	r6, #6
    36e6:	f7ff f81c 	bl	2722 <Code_603>
    36ea:	f847 6d04 	str.w	r6, [r7, #-4]!
    36ee:	0026      	movs	r6, r4
    36f0:	f847 6d04 	str.w	r6, [r7, #-4]!
    36f4:	002e      	movs	r6, r5
    36f6:	f7fe ff4e 	bl	2596 <Code_565>
    36fa:	2e00      	cmp	r6, #0
    36fc:	cf40      	ldmia	r7!, {r6}
    36fe:	d007      	beq.n	3710 <Code_881+0x4a>
    3700:	1db0      	adds	r0, r6, #6
    3702:	f7ff ffd1 	bl	36a8 <skipstring>
    3706:	0002      	movs	r2, r0
    3708:	000b      	movs	r3, r1
    370a:	480c      	ldr	r0, [pc, #48]	; (373c <find_not_found+0x18>)
    370c:	4282      	cmp	r2, r0
    370e:	d204      	bcs.n	371a <Code_881+0x54>
    3710:	f7ff ffa8 	bl	3664 <Code_876>
    3714:	0030      	movs	r0, r6
    3716:	cf40      	ldmia	r7!, {r6}
    3718:	d0de      	beq.n	36d8 <Code_881+0x12>
    371a:	0016      	movs	r6, r2
    371c:	f847 6d04 	str.w	r6, [r7, #-4]!
    3720:	001e      	movs	r6, r3
    3722:	bd3f      	pop	{r0, r1, r2, r3, r4, r5, pc}

00003724 <find_not_found>:
    3724:	b500      	push	{lr}
    3726:	0031      	movs	r1, r6
    3728:	6838      	ldr	r0, [r7, #0]
    372a:	f7ff ffcc 	bl	36c6 <Code_881>
    372e:	683a      	ldr	r2, [r7, #0]
    3730:	2a00      	cmp	r2, #0
    3732:	d101      	bne.n	3738 <find_not_found+0x14>
    3734:	f000 fe46 	bl	43c4 <not_found_addr_r0_len_r1>
    3738:	bd00      	pop	{pc}
    373a:	00000000 	andeq	r0, r0, r0
    373e:	01ec2000 	mvneq	r2, r0
    3742:	00040000 	andeq	r0, r4, r0
    3746:	ffff2000 			; <UNDEFINED> instruction: 0xffff2000
    374a:	ffffffff 			; <UNDEFINED> instruction: 0xffffffff
	...

00003750 <Dictionary_894>:
    3750:	000037aa 	andeq	r3, r0, sl, lsr #15
    3754:	63060000 	movwvs	r0, #24576	; 0x6000
    3758:	706d756a 	rsbvc	r7, sp, sl, ror #10
    375c:	0032002c 	eorseq	r0, r2, ip, lsr #32

0000375e <Code_894>:
    375e:	0032      	movs	r2, r6
    3760:	cf40      	ldmia	r7!, {r6}
    3762:	0031      	movs	r1, r6
    3764:	cf40      	ldmia	r7!, {r6}
    3766:	1b8b      	subs	r3, r1, r6
    3768:	3b04      	subs	r3, #4
    376a:	49ec      	ldr	r1, [pc, #944]	; (3b1c <Code_975+0xe>)
    376c:	4019      	ands	r1, r3
    376e:	2900      	cmp	r1, #0
    3770:	d00d      	beq.n	378e <jump_too_far+0x16>
    3772:	48eb      	ldr	r0, [pc, #940]	; (3b20 <Code_975+0x12>)
    3774:	4281      	cmp	r1, r0
    3776:	d00a      	beq.n	378e <jump_too_far+0x16>

00003778 <jump_too_far>:
    3778:	f7fe ff97 	bl	26aa <dotgaensefuesschen>
    377c:	6d754a0d 	vldmdbvs	r5!, {s9-s21}
    3780:	6f742070 	svcvs	0x00742070
    3784:	6166206f 	cmnvs	r6, pc, rrx
    3788:	f0000a72 			; <UNDEFINED> instruction: 0xf0000a72
    378c:	be9a      	bkpt	0x009a
    378e:	105b      	asrs	r3, r3, #1
    3790:	21ff      	movs	r1, #255	; 0xff
    3792:	400b      	ands	r3, r1
    3794:	4313      	orrs	r3, r2
    3796:	0030      	movs	r0, r6
    3798:	001e      	movs	r6, r3

0000379a <sprungbefehl_einfuegen>:
    379a:	b500      	push	{lr}
    379c:	4ae1      	ldr	r2, [pc, #900]	; (3b24 <Code_975+0x16>)
    379e:	6813      	ldr	r3, [r2, #0]
    37a0:	6010      	str	r0, [r2, #0]
    37a2:	f7ff fcd3 	bl	314c <Code_787>
    37a6:	6013      	str	r3, [r2, #0]
    37a8:	bd00      	pop	{pc}

000037aa <Dictionary_898>:
    37aa:	000037e2 	andeq	r3, r0, r2, ror #15
    37ae:	6a050000 	bvs	1437b6 <BIT20+0x437b6>
    37b2:	2c706d75 	ldclcs	13, cr6, [r0], #-468	; 0xfffffe2c

000037b6 <Code_898>:
    37b6:	0031      	movs	r1, r6
    37b8:	cf40      	ldmia	r7!, {r6}
    37ba:	0030      	movs	r0, r6
    37bc:	cf40      	ldmia	r7!, {r6}
    37be:	1a0b      	subs	r3, r1, r0
    37c0:	3b04      	subs	r3, #4
    37c2:	49d9      	ldr	r1, [pc, #868]	; (3b28 <Code_975+0x1a>)
    37c4:	4019      	ands	r1, r3
    37c6:	2900      	cmp	r1, #0
    37c8:	d002      	beq.n	37d0 <Code_898+0x1a>
    37ca:	4ad8      	ldr	r2, [pc, #864]	; (3b2c <Code_975+0x1e>)
    37cc:	4291      	cmp	r1, r2
    37ce:	d1d3      	bne.n	3778 <jump_too_far>
    37d0:	105b      	asrs	r3, r3, #1
    37d2:	4ad7      	ldr	r2, [pc, #860]	; (3b30 <Code_975+0x22>)
    37d4:	4013      	ands	r3, r2
    37d6:	f453 4360 	orrs.w	r3, r3, #57344	; 0xe000
    37da:	f847 6d04 	str.w	r6, [r7, #-4]!
    37de:	001e      	movs	r6, r3
    37e0:	e7db      	b.n	379a <sprungbefehl_einfuegen>

000037e2 <Dictionary_903>:
    37e2:	000037f8 	strdeq	r3, [r0], -r8
    37e6:	68040000 	stmdavs	r4, {}	; <UNPREDICTABLE>
    37ea:	00657265 	rsbeq	r7, r5, r5, ror #4

000037ee <Code_903>:
    37ee:	f847 6d04 	str.w	r6, [r7, #-4]!
    37f2:	4ecc      	ldr	r6, [pc, #816]	; (3b24 <Code_975+0x16>)
    37f4:	6836      	ldr	r6, [r6, #0]
    37f6:	4770      	bx	lr

000037f8 <Dictionary_905>:
    37f8:	00003944 	andeq	r3, r0, r4, asr #18
    37fc:	660d0000 	strvs	r0, [sp], -r0
    3800:	6873616c 	ldmdavs	r3!, {r2, r3, r5, r6, r8, sp, lr}^
    3804:	2d726176 	ldfcse	f6, [r2, #-472]!	; 0xfffffe28
    3808:	65726568 	ldrbvs	r6, [r2, #-1384]!	; 0x568

0000380c <Code_905>:
    380c:	f847 6d04 	str.w	r6, [r7, #-4]!
    3810:	4ec8      	ldr	r6, [pc, #800]	; (3b34 <Code_975+0x26>)
    3812:	6836      	ldr	r6, [r6, #0]
    3814:	4770      	bx	lr

00003816 <nullprobekomma>:
    3816:	b500      	push	{lr}
    3818:	f847 6d04 	str.w	r6, [r7, #-4]!
    381c:	f642 6600 	movw	r6, #11776	; 0x2e00
    3820:	f7ff fc94 	bl	314c <Code_787>
    3824:	f847 6d04 	str.w	r6, [r7, #-4]!
    3828:	f64c 7640 	movw	r6, #53056	; 0xcf40
    382c:	f7ff fc8e 	bl	314c <Code_787>
    3830:	bd00      	pop	{pc}

00003832 <branch_r>:
    3832:	e7dc      	b.n	37ee <Code_903>

00003834 <r_branch_jne>:
    3834:	b500      	push	{lr}
    3836:	f000 f83a 	bl	38ae <branch_v>
    383a:	6839      	ldr	r1, [r7, #0]
    383c:	603e      	str	r6, [r7, #0]
    383e:	460e      	mov	r6, r1
    3840:	f847 6d04 	str.w	r6, [r7, #-4]!
    3844:	f24d 1600 	movw	r6, #53504	; 0xd100
    3848:	f7ff ff89 	bl	375e <Code_894>
    384c:	bd00      	pop	{pc}

0000384e <r_branch_jvc>:
    384e:	b500      	push	{lr}
    3850:	f000 f82d 	bl	38ae <branch_v>
    3854:	6839      	ldr	r1, [r7, #0]
    3856:	603e      	str	r6, [r7, #0]
    3858:	460e      	mov	r6, r1
    385a:	f847 6d04 	str.w	r6, [r7, #-4]!
    385e:	f24d 7600 	movw	r6, #55040	; 0xd700
    3862:	f7ff ff7c 	bl	375e <Code_894>
    3866:	bd00      	pop	{pc}

00003868 <r_nullbranch>:
    3868:	b500      	push	{lr}
    386a:	f7ff ffd4 	bl	3816 <nullprobekomma>
    386e:	f000 f81e 	bl	38ae <branch_v>
    3872:	6839      	ldr	r1, [r7, #0]
    3874:	603e      	str	r6, [r7, #0]
    3876:	460e      	mov	r6, r1
    3878:	f847 6d04 	str.w	r6, [r7, #-4]!
    387c:	f24d 0600 	movw	r6, #53248	; 0xd000
    3880:	f7ff ff6d 	bl	375e <Code_894>
    3884:	bd00      	pop	{pc}

00003886 <r_branch>:
    3886:	b500      	push	{lr}
    3888:	f000 f811 	bl	38ae <branch_v>
    388c:	6839      	ldr	r1, [r7, #0]
    388e:	603e      	str	r6, [r7, #0]
    3890:	460e      	mov	r6, r1
    3892:	f7ff ff90 	bl	37b6 <Code_898>
    3896:	bd00      	pop	{pc}

00003898 <nullbranch_v>:
    3898:	b500      	push	{lr}
    389a:	f7ff ffbc 	bl	3816 <nullprobekomma>
    389e:	f7ff ffa6 	bl	37ee <Code_903>
    38a2:	f847 6d04 	str.w	r6, [r7, #-4]!
    38a6:	2602      	movs	r6, #2
    38a8:	f7ff fcbb 	bl	3222 <Code_807>
    38ac:	bd00      	pop	{pc}

000038ae <branch_v>:
    38ae:	b500      	push	{lr}
    38b0:	f7ff ff9d 	bl	37ee <Code_903>
    38b4:	f847 6d04 	str.w	r6, [r7, #-4]!
    38b8:	2602      	movs	r6, #2
    38ba:	f7ff fcb2 	bl	3222 <Code_807>
    38be:	bd00      	pop	{pc}

000038c0 <v_branch>:
    38c0:	b500      	push	{lr}
    38c2:	f7ff ff94 	bl	37ee <Code_903>
    38c6:	f7ff ff76 	bl	37b6 <Code_898>
    38ca:	bd00      	pop	{pc}

000038cc <v_nullbranch>:
    38cc:	b500      	push	{lr}
    38ce:	f7ff ff8e 	bl	37ee <Code_903>
    38d2:	f847 6d04 	str.w	r6, [r7, #-4]!
    38d6:	f24d 0600 	movw	r6, #53248	; 0xd000
    38da:	f7ff ff40 	bl	375e <Code_894>
    38de:	bd00      	pop	{pc}

000038e0 <v_casebranch>:
    38e0:	b500      	push	{lr}
    38e2:	f7ff ff84 	bl	37ee <Code_903>
    38e6:	f847 6d04 	str.w	r6, [r7, #-4]!
    38ea:	f24d 1600 	movw	r6, #53504	; 0xd100
    38ee:	f7ff ff36 	bl	375e <Code_894>
    38f2:	bd00      	pop	{pc}

000038f4 <allocator_nullsprungprobe>:
    38f4:	b500      	push	{lr}
    38f6:	f7fc fd5c 	bl	3b2 <expect_one_element>
    38fa:	6901      	ldr	r1, [r0, #16]
    38fc:	6942      	ldr	r2, [r0, #20]
    38fe:	f7fc fd91 	bl	424 <eliminiere_tos>
    3902:	f7fc fe75 	bl	5f0 <tidyup_register_allocator_3os>
    3906:	f7fc fe78 	bl	5fa <tidyup_register_allocator_nos>
    390a:	6903      	ldr	r3, [r0, #16]
    390c:	2b28      	cmp	r3, #40	; 0x28
    390e:	d102      	bne.n	3916 <allocator_nullsprungprobe+0x22>
    3910:	6943      	ldr	r3, [r0, #20]
    3912:	f7fc fcf6 	bl	302 <generiere_konstante>
    3916:	2928      	cmp	r1, #40	; 0x28
    3918:	d109      	bne.n	392e <allocator_nullsprungprobe+0x3a>
    391a:	f847 6d04 	str.w	r6, [r7, #-4]!
    391e:	f242 2600 	movw	r6, #8704	; 0x2200
    3922:	2a00      	cmp	r2, #0
    3924:	d000      	beq.n	3928 <allocator_nullsprungprobe+0x34>
    3926:	3601      	adds	r6, #1
    3928:	f7ff fc10 	bl	314c <Code_787>
    392c:	e007      	b.n	393e <allocator_nullsprungprobe+0x4a>
    392e:	f847 6d04 	str.w	r6, [r7, #-4]!
    3932:	f642 0600 	movw	r6, #10240	; 0x2800
    3936:	0209      	lsls	r1, r1, #8
    3938:	430e      	orrs	r6, r1
    393a:	f7ff fc07 	bl	314c <Code_787>
    393e:	f7fc fe61 	bl	604 <tidyup_register_allocator_tos>
    3942:	bd00      	pop	{pc}

00003944 <Dictionary_933>:
    3944:	000039b4 			; <UNDEFINED> instruction: 0x000039b4
    3948:	69020630 	stmdbvs	r2, {r4, r5, r9, sl}
    394c:	b5000066 	strlt	r0, [r0, #-102]	; 0x66

0000394e <Code_933>:
    394e:	b500      	push	{lr}
    3950:	f7ff ffa2 	bl	3898 <nullbranch_v>
    3954:	f847 6d04 	str.w	r6, [r7, #-4]!
    3958:	f24d 0600 	movw	r6, #53248	; 0xd000
    395c:	f847 6d04 	str.w	r6, [r7, #-4]!
    3960:	2602      	movs	r6, #2
    3962:	bd00      	pop	{pc}

00003964 <struktur_if_allokator>:
    3964:	b500      	push	{lr}
    3966:	f7fd fe4c 	bl	1602 <eliminiere_tos_wenn_bmi>
    396a:	6a81      	ldr	r1, [r0, #40]	; 0x28
    396c:	2900      	cmp	r1, #0
    396e:	d010      	beq.n	3992 <struktur_if_allokator+0x2e>
    3970:	b402      	push	{r1}
    3972:	f7fc fe35 	bl	5e0 <Code_63>
    3976:	f7ff ff3a 	bl	37ee <Code_903>
    397a:	f847 6d04 	str.w	r6, [r7, #-4]!
    397e:	2602      	movs	r6, #2
    3980:	f7ff fc4f 	bl	3222 <Code_807>
    3984:	f847 6d04 	str.w	r6, [r7, #-4]!
    3988:	bc40      	pop	{r6}
    398a:	f847 6d04 	str.w	r6, [r7, #-4]!
    398e:	2602      	movs	r6, #2
    3990:	bd00      	pop	{pc}
    3992:	f7ff ffaf 	bl	38f4 <allocator_nullsprungprobe>
    3996:	f7ff ff2a 	bl	37ee <Code_903>
    399a:	f847 6d04 	str.w	r6, [r7, #-4]!
    399e:	2602      	movs	r6, #2
    39a0:	f7ff fc3f 	bl	3222 <Code_807>
    39a4:	f847 6d04 	str.w	r6, [r7, #-4]!
    39a8:	f24d 0600 	movw	r6, #53248	; 0xd000
    39ac:	f847 6d04 	str.w	r6, [r7, #-4]!
    39b0:	2602      	movs	r6, #2
    39b2:	bd00      	pop	{pc}

000039b4 <Dictionary_949>:
    39b4:	000039e8 	andeq	r3, r0, r8, ror #19
    39b8:	65040030 	strvs	r0, [r4, #-48]	; 0x30
    39bc:	0065736c 	rsbeq	r7, r5, ip, ror #6

000039c0 <Code_949>:
    39c0:	b500      	push	{lr}
    39c2:	2e02      	cmp	r6, #2
    39c4:	f040 8026 	bne.w	3a14 <strukturen_passen_nicht>
    39c8:	cf40      	ldmia	r7!, {r6}
    39ca:	f7ff ff70 	bl	38ae <branch_v>
    39ce:	f7fd facd 	bl	f6c <Code_206>
    39d2:	f7ff ff0c 	bl	37ee <Code_903>
    39d6:	6839      	ldr	r1, [r7, #0]
    39d8:	603e      	str	r6, [r7, #0]
    39da:	460e      	mov	r6, r1
    39dc:	f7ff febf 	bl	375e <Code_894>
    39e0:	f847 6d04 	str.w	r6, [r7, #-4]!
    39e4:	2605      	movs	r6, #5
    39e6:	bd00      	pop	{pc}

000039e8 <Dictionary_954>:
    39e8:	00003a34 	andeq	r3, r0, r4, lsr sl
    39ec:	74040030 	strvc	r0, [r4], #-48	; 0x30
    39f0:	006e6568 	rsbeq	r6, lr, r8, ror #10

000039f4 <Code_954>:
    39f4:	2e05      	cmp	r6, #5
    39f6:	d101      	bne.n	39fc <Code_954+0x8>
    39f8:	cf40      	ldmia	r7!, {r6}
    39fa:	e761      	b.n	38c0 <v_branch>
    39fc:	2e02      	cmp	r6, #2
    39fe:	d109      	bne.n	3a14 <strukturen_passen_nicht>
    3a00:	cf40      	ldmia	r7!, {r6}
    3a02:	b500      	push	{lr}
    3a04:	f7ff fef3 	bl	37ee <Code_903>
    3a08:	6839      	ldr	r1, [r7, #0]
    3a0a:	603e      	str	r6, [r7, #0]
    3a0c:	460e      	mov	r6, r1
    3a0e:	f7ff fea6 	bl	375e <Code_894>
    3a12:	bd00      	pop	{pc}

00003a14 <strukturen_passen_nicht>:
    3a14:	f7fe fe49 	bl	26aa <dotgaensefuesschen>
    3a18:	72745317 	rsbsvc	r5, r4, #1543503872	; 0x5c000000
    3a1c:	75746375 	ldrbvc	r6, [r4, #-885]!	; 0x375
    3a20:	20736572 	rsbscs	r6, r3, r2, ror r5
    3a24:	276e6f64 	strbcs	r6, [lr, -r4, ror #30]!
    3a28:	616d2074 	smcvs	53764	; 0xd204
    3a2c:	0a686374 	beq	1a1c804 <BIT24+0xa1c804>
    3a30:	f000 bd47 	b.w	44c2 <Code_1174>

00003a34 <Dictionary_959>:
    3a34:	00003a62 	andeq	r3, r0, r2, ror #20
    3a38:	72060030 	andvc	r0, r6, #48	; 0x30
    3a3c:	61657065 	cmnvs	r5, r5, rrx
    3a40:	2e040074 	mcrcs	0, 0, r0, cr4, cr4, {3}

00003a42 <Code_959>:
    3a42:	2e04      	cmp	r6, #4
    3a44:	d1e6      	bne.n	3a14 <strukturen_passen_nicht>
    3a46:	cf40      	ldmia	r7!, {r6}
    3a48:	b500      	push	{lr}
    3a4a:	f7fd fa73 	bl	f34 <Code_205>
    3a4e:	f7ff ff1a 	bl	3886 <r_branch>
    3a52:	f7ff fecc 	bl	37ee <Code_903>
    3a56:	6839      	ldr	r1, [r7, #0]
    3a58:	603e      	str	r6, [r7, #0]
    3a5a:	460e      	mov	r6, r1
    3a5c:	f7ff fe7f 	bl	375e <Code_894>
    3a60:	bd00      	pop	{pc}

00003a62 <Dictionary_962>:
    3a62:	00003a8e 	andeq	r3, r0, lr, lsl #21
    3a66:	77050630 	smladxvc	r5, r0, r6, r0
    3a6a:	656c6968 	strbvs	r6, [ip, #-2408]!	; 0x968

00003a6e <Code_962>:
    3a6e:	2e01      	cmp	r6, #1
    3a70:	d1d0      	bne.n	3a14 <strukturen_passen_nicht>
    3a72:	cf40      	ldmia	r7!, {r6}
    3a74:	b500      	push	{lr}
    3a76:	f7ff ff6a 	bl	394e <Code_933>
    3a7a:	3602      	adds	r6, #2
    3a7c:	bd00      	pop	{pc}
    3a7e:	2e01      	cmp	r6, #1
    3a80:	d1c8      	bne.n	3a14 <strukturen_passen_nicht>
    3a82:	cf40      	ldmia	r7!, {r6}
    3a84:	b500      	push	{lr}
    3a86:	f7ff ff6d 	bl	3964 <struktur_if_allokator>
    3a8a:	3602      	adds	r6, #2
    3a8c:	bd00      	pop	{pc}

00003a8e <Dictionary_965>:
    3a8e:	00003aee 	andeq	r3, r0, lr, ror #21
    3a92:	75050630 	strvc	r0, [r5, #-1584]	; 0x630
    3a96:	6c69746e 	cfstrdvs	mvd7, [r9], #-440	; 0xfffffe48

00003a9a <Code_965>:
    3a9a:	2e01      	cmp	r6, #1
    3a9c:	d1ba      	bne.n	3a14 <strukturen_passen_nicht>
    3a9e:	cf40      	ldmia	r7!, {r6}
    3aa0:	e6e2      	b.n	3868 <r_nullbranch>
    3aa2:	4770      	bx	lr
    3aa4:	2e01      	cmp	r6, #1
    3aa6:	d1b5      	bne.n	3a14 <strukturen_passen_nicht>
    3aa8:	cf40      	ldmia	r7!, {r6}
    3aaa:	b500      	push	{lr}
    3aac:	f7fd fda9 	bl	1602 <eliminiere_tos_wenn_bmi>
    3ab0:	6a81      	ldr	r1, [r0, #40]	; 0x28
    3ab2:	2900      	cmp	r1, #0
    3ab4:	d00d      	beq.n	3ad2 <Code_965+0x38>
    3ab6:	b402      	push	{r1}
    3ab8:	f7fc fd92 	bl	5e0 <Code_63>
    3abc:	f7ff fef7 	bl	38ae <branch_v>
    3ac0:	6839      	ldr	r1, [r7, #0]
    3ac2:	603e      	str	r6, [r7, #0]
    3ac4:	460e      	mov	r6, r1
    3ac6:	f847 6d04 	str.w	r6, [r7, #-4]!
    3aca:	bc40      	pop	{r6}
    3acc:	f7ff fe47 	bl	375e <Code_894>
    3ad0:	bd00      	pop	{pc}
    3ad2:	f7ff ff0f 	bl	38f4 <allocator_nullsprungprobe>
    3ad6:	f7ff feea 	bl	38ae <branch_v>
    3ada:	6839      	ldr	r1, [r7, #0]
    3adc:	603e      	str	r6, [r7, #0]
    3ade:	460e      	mov	r6, r1
    3ae0:	f847 6d04 	str.w	r6, [r7, #-4]!
    3ae4:	f24d 0600 	movw	r6, #53248	; 0xd000
    3ae8:	f7ff fe39 	bl	375e <Code_894>
    3aec:	bd00      	pop	{pc}

00003aee <Dictionary_973>:
    3aee:	00003b02 	andeq	r3, r0, r2, lsl #22
    3af2:	61050030 	tstvs	r5, r0, lsr r0
    3af6:	6e696167 	powvsez	f6, f1, f7

00003afa <Code_973>:
    3afa:	2e01      	cmp	r6, #1
    3afc:	d18a      	bne.n	3a14 <strukturen_passen_nicht>
    3afe:	cf40      	ldmia	r7!, {r6}
    3b00:	e6c1      	b.n	3886 <r_branch>

00003b02 <Dictionary_975>:
    3b02:	00003b38 	andeq	r3, r0, r8, lsr fp
    3b06:	62050030 	andvs	r0, r5, #48	; 0x30
    3b0a:	6e696765 	cdpvs	7, 6, cr6, cr9, cr5, {3}

00003b0e <Code_975>:
    3b0e:	b500      	push	{lr}
    3b10:	f7ff fe8f 	bl	3832 <branch_r>
    3b14:	f847 6d04 	str.w	r6, [r7, #-4]!
    3b18:	2601      	movs	r6, #1
    3b1a:	bd00      	pop	{pc}
    3b1c:	ffffff01 			; <UNDEFINED> instruction: 0xffffff01
    3b20:	ffffff00 			; <UNDEFINED> instruction: 0xffffff00
    3b24:	20000000 	andcs	r0, r0, r0
    3b28:	fffff801 			; <UNDEFINED> instruction: 0xfffff801
    3b2c:	fffff800 			; <UNDEFINED> instruction: 0xfffff800
    3b30:	000007ff 	strdeq	r0, [r0], -pc	; <UNPREDICTABLE>
    3b34:	20000024 	andcs	r0, r0, r4, lsr #32

00003b38 <Dictionary_978>:
    3b38:	00003b52 	andeq	r3, r0, r2, asr fp
    3b3c:	6b010220 	blvs	443c4 <BIT18+0x43c4>

00003b40 <Code_978>:
    3b40:	f847 6d04 	str.w	r6, [r7, #-4]!
    3b44:	9e02      	ldr	r6, [sp, #8]
    3b46:	4770      	bx	lr
    3b48:	f847 6d04 	str.w	r6, [r7, #-4]!
    3b4c:	f649 0602 	movw	r6, #38914	; 0x9802
    3b50:	e00b      	b.n	3b6a <loop_j_allocator>

00003b52 <Dictionary_982>:
    3b52:	00003b80 	andeq	r3, r0, r0, lsl #23
    3b56:	6a010220 	bvs	443de <BIT18+0x43de>

00003b5a <Code_982>:
    3b5a:	f847 6d04 	str.w	r6, [r7, #-4]!
    3b5e:	9e00      	ldr	r6, [sp, #0]
    3b60:	4770      	bx	lr

00003b62 <rfetch_allocator>:
    3b62:	f847 6d04 	str.w	r6, [r7, #-4]!
    3b66:	f649 0600 	movw	r6, #38912	; 0x9800

00003b6a <loop_j_allocator>:
    3b6a:	b500      	push	{lr}
    3b6c:	f7fc fb98 	bl	2a0 <befreie_tos>
    3b70:	f7fc fbfa 	bl	368 <get_free_register>
    3b74:	6103      	str	r3, [r0, #16]
    3b76:	021b      	lsls	r3, r3, #8
    3b78:	431e      	orrs	r6, r3
    3b7a:	f7ff fae7 	bl	314c <Code_787>
    3b7e:	bd00      	pop	{pc}

00003b80 <Dictionary_986>:
    3b80:	00003bac 	andeq	r3, r0, ip, lsr #23
    3b84:	69010220 	stmdbvs	r1, {r5, r9}

00003b88 <Code_986>:
    3b88:	f847 6d04 	str.w	r6, [r7, #-4]!
    3b8c:	0026      	movs	r6, r4
    3b8e:	4770      	bx	lr
    3b90:	b500      	push	{lr}
    3b92:	f847 6d04 	str.w	r6, [r7, #-4]!
    3b96:	f240 0620 	movw	r6, #32
    3b9a:	f7fc fb81 	bl	2a0 <befreie_tos>
    3b9e:	f7fc fbe3 	bl	368 <get_free_register>
    3ba2:	6103      	str	r3, [r0, #16]
    3ba4:	431e      	orrs	r6, r3
    3ba6:	f7ff fad1 	bl	314c <Code_787>
    3baa:	bd00      	pop	{pc}

00003bac <Dictionary_991>:
    3bac:	00003bea 	andeq	r3, r0, sl, ror #23
    3bb0:	6c050030 	stcvs	0, cr0, [r5], {48}	; 0x30
    3bb4:	65766165 	ldrbvs	r6, [r6, #-357]!	; 0x165

00003bb8 <Code_991>:
    3bb8:	b500      	push	{lr}
    3bba:	4872      	ldr	r0, [pc, #456]	; (3d84 <gemeinsame_schleifenoptimierung+0x76>)
    3bbc:	6801      	ldr	r1, [r0, #0]
    3bbe:	003b      	movs	r3, r7
    3bc0:	3f04      	subs	r7, #4
    3bc2:	681a      	ldr	r2, [r3, #0]
    3bc4:	3b04      	subs	r3, #4
    3bc6:	601a      	str	r2, [r3, #0]
    3bc8:	3308      	adds	r3, #8
    3bca:	428b      	cmp	r3, r1
    3bcc:	d1f9      	bne.n	3bc2 <Code_991+0xa>
    3bce:	b403      	push	{r0, r1}
    3bd0:	f7ff fe6d 	bl	38ae <branch_v>
    3bd4:	bc03      	pop	{r0, r1}
    3bd6:	0033      	movs	r3, r6
    3bd8:	cf40      	ldmia	r7!, {r6}
    3bda:	3904      	subs	r1, #4
    3bdc:	600b      	str	r3, [r1, #0]
    3bde:	6001      	str	r1, [r0, #0]
    3be0:	3904      	subs	r1, #4
    3be2:	680a      	ldr	r2, [r1, #0]
    3be4:	3201      	adds	r2, #1
    3be6:	600a      	str	r2, [r1, #0]
    3be8:	bd00      	pop	{pc}

00003bea <Dictionary_993>:
    3bea:	00003bfc 	strdeq	r3, [r0], -ip
    3bee:	75060020 	strvc	r0, [r6, #-32]
    3bf2:	6f6f6c6e 	svcvs	0x006f6c6e
    3bf6:	bc300070 	ldclt	0, cr0, [r0], #-448	; 0xfffffe40

00003bf8 <Code_993>:
    3bf8:	bc30      	pop	{r4, r5}
    3bfa:	4770      	bx	lr

00003bfc <Dictionary_994>:
    3bfc:	00003c34 	andeq	r3, r0, r4, lsr ip
    3c00:	2b050030 	blcs	143cc8 <BIT20+0x43cc8>
    3c04:	706f6f6c 	rsbvc	r6, pc, ip, ror #30

00003c08 <Code_994>:
    3c08:	2e03      	cmp	r6, #3
    3c0a:	d000      	beq.n	3c0e <Code_994+0x6>
    3c0c:	e702      	b.n	3a14 <strukturen_passen_nicht>
    3c0e:	cf40      	ldmia	r7!, {r6}
    3c10:	b500      	push	{lr}
    3c12:	f847 6d04 	str.w	r6, [r7, #-4]!
    3c16:	4e5c      	ldr	r6, [pc, #368]	; (3d88 <gemeinsame_schleifenoptimierung+0x7a>)
    3c18:	f7ff f876 	bl	2d08 <Code_702>
    3c1c:	f7ff fe17 	bl	384e <r_branch_jvc>
    3c20:	e01a      	b.n	3c58 <loop_intern>

00003c22 <struktur_plusloop>:
    3c22:	f114 4400 	adds.w	r4, r4, #2147483648	; 0x80000000
    3c26:	1b64      	subs	r4, r4, r5
    3c28:	19a4      	adds	r4, r4, r6
    3c2a:	cf40      	ldmia	r7!, {r6}
    3c2c:	442c      	add	r4, r5
    3c2e:	f1a4 4400 	sub.w	r4, r4, #2147483648	; 0x80000000
    3c32:	4770      	bx	lr

00003c34 <Dictionary_998>:
    3c34:	00003c76 	andeq	r3, r0, r6, ror ip
    3c38:	6c040030 	stcvs	0, cr0, [r4], {48}	; 0x30
    3c3c:	00706f6f 	rsbseq	r6, r0, pc, ror #30

00003c40 <Code_998>:
    3c40:	2e03      	cmp	r6, #3
    3c42:	d000      	beq.n	3c46 <Code_998+0x6>
    3c44:	e6e6      	b.n	3a14 <strukturen_passen_nicht>
    3c46:	cf40      	ldmia	r7!, {r6}
    3c48:	b500      	push	{lr}
    3c4a:	f847 6d04 	str.w	r6, [r7, #-4]!
    3c4e:	4e4f      	ldr	r6, [pc, #316]	; (3d8c <gemeinsame_schleifenoptimierung+0x7e>)
    3c50:	f7ff f85a 	bl	2d08 <Code_702>
    3c54:	f7ff fdee 	bl	3834 <r_branch_jne>

00003c58 <loop_intern>:
    3c58:	f000 f94d 	bl	3ef6 <spruenge_einpflegen>
    3c5c:	4849      	ldr	r0, [pc, #292]	; (3d84 <gemeinsame_schleifenoptimierung+0x76>)
    3c5e:	0031      	movs	r1, r6
    3c60:	cf40      	ldmia	r7!, {r6}
    3c62:	6001      	str	r1, [r0, #0]
    3c64:	f847 6d04 	str.w	r6, [r7, #-4]!
    3c68:	4e49      	ldr	r6, [pc, #292]	; (3d90 <gemeinsame_schleifenoptimierung+0x82>)
    3c6a:	f7ff f84d 	bl	2d08 <Code_702>
    3c6e:	bd00      	pop	{pc}

00003c70 <struktur_loop>:
    3c70:	3401      	adds	r4, #1
    3c72:	42ac      	cmp	r4, r5
    3c74:	4770      	bx	lr

00003c76 <Dictionary_1003>:
    3c76:	00003cbe 			; <UNDEFINED> instruction: 0x00003cbe
    3c7a:	64020230 	strvs	r0, [r2], #-560	; 0x230
    3c7e:	b500006f 	strlt	r0, [r0, #-111]	; 0x6f

00003c80 <Code_1003>:
    3c80:	b500      	push	{lr}
    3c82:	f847 6d04 	str.w	r6, [r7, #-4]!
    3c86:	4e43      	ldr	r6, [pc, #268]	; (3d94 <gemeinsame_schleifenoptimierung+0x86>)
    3c88:	f7ff f83e 	bl	2d08 <Code_702>

00003c8c <do_rest_der_schleifenstruktur>:
    3c8c:	483d      	ldr	r0, [pc, #244]	; (3d84 <gemeinsame_schleifenoptimierung+0x76>)
    3c8e:	6801      	ldr	r1, [r0, #0]
    3c90:	f847 6d04 	str.w	r6, [r7, #-4]!
    3c94:	000e      	movs	r6, r1
    3c96:	f847 6d04 	str.w	r6, [r7, #-4]!
    3c9a:	2600      	movs	r6, #0
    3c9c:	6007      	str	r7, [r0, #0]
    3c9e:	f7ff fdc8 	bl	3832 <branch_r>
    3ca2:	f847 6d04 	str.w	r6, [r7, #-4]!
    3ca6:	2603      	movs	r6, #3
    3ca8:	bd00      	pop	{pc}
    3caa:	b500      	push	{lr}
    3cac:	f000 f82f 	bl	3d0e <gemeinsame_schleifenoptimierung>
    3cb0:	e7ec      	b.n	3c8c <do_rest_der_schleifenstruktur>

00003cb2 <struktur_do>:
    3cb2:	b430      	push	{r4, r5}
    3cb4:	0034      	movs	r4, r6
    3cb6:	cf40      	ldmia	r7!, {r6}
    3cb8:	0035      	movs	r5, r6
    3cba:	cf40      	ldmia	r7!, {r6}
    3cbc:	4770      	bx	lr

00003cbe <Dictionary_1013>:
    3cbe:	00003d98 	muleq	r0, r8, sp
    3cc2:	3f030230 	svccc	0x00030230
    3cc6:	b5006f64 	strlt	r6, [r0, #-3940]	; 0xf64

00003cc8 <Code_1013>:
    3cc8:	b500      	push	{lr}
    3cca:	f847 6d04 	str.w	r6, [r7, #-4]!
    3cce:	4e31      	ldr	r6, [pc, #196]	; (3d94 <gemeinsame_schleifenoptimierung+0x86>)
    3cd0:	f7ff f81a 	bl	2d08 <Code_702>

00003cd4 <qdo_rest_der_schleifenstruktur>:
    3cd4:	f847 6d04 	str.w	r6, [r7, #-4]!
    3cd8:	f244 26ac 	movw	r6, #17068	; 0x42ac
    3cdc:	f7ff fa36 	bl	314c <Code_787>
    3ce0:	4828      	ldr	r0, [pc, #160]	; (3d84 <gemeinsame_schleifenoptimierung+0x76>)
    3ce2:	6801      	ldr	r1, [r0, #0]
    3ce4:	f847 6d04 	str.w	r6, [r7, #-4]!
    3ce8:	000e      	movs	r6, r1
    3cea:	f7ff fde0 	bl	38ae <branch_v>
    3cee:	3601      	adds	r6, #1
    3cf0:	f847 6d04 	str.w	r6, [r7, #-4]!
    3cf4:	2601      	movs	r6, #1
    3cf6:	4823      	ldr	r0, [pc, #140]	; (3d84 <gemeinsame_schleifenoptimierung+0x76>)
    3cf8:	6007      	str	r7, [r0, #0]
    3cfa:	f7ff fd9a 	bl	3832 <branch_r>
    3cfe:	f847 6d04 	str.w	r6, [r7, #-4]!
    3d02:	2603      	movs	r6, #3
    3d04:	bd00      	pop	{pc}
    3d06:	b500      	push	{lr}
    3d08:	f000 f801 	bl	3d0e <gemeinsame_schleifenoptimierung>
    3d0c:	e7e2      	b.n	3cd4 <qdo_rest_der_schleifenstruktur>

00003d0e <gemeinsame_schleifenoptimierung>:
    3d0e:	b500      	push	{lr}
    3d10:	f7fc fb58 	bl	3c4 <expect_two_elements>
    3d14:	f7fc fc6c 	bl	5f0 <tidyup_register_allocator_3os>
    3d18:	f847 6d04 	str.w	r6, [r7, #-4]!
    3d1c:	f24b 4630 	movw	r6, #46128	; 0xb430
    3d20:	f7ff fa14 	bl	314c <Code_787>
    3d24:	6901      	ldr	r1, [r0, #16]
    3d26:	2928      	cmp	r1, #40	; 0x28
    3d28:	d008      	beq.n	3d3c <gemeinsame_schleifenoptimierung+0x2e>
    3d2a:	f847 6d04 	str.w	r6, [r7, #-4]!
    3d2e:	f240 0604 	movw	r6, #4
    3d32:	00c9      	lsls	r1, r1, #3
    3d34:	430e      	orrs	r6, r1
    3d36:	f7ff fa09 	bl	314c <Code_787>
    3d3a:	e007      	b.n	3d4c <gemeinsame_schleifenoptimierung+0x3e>
    3d3c:	f847 6d04 	str.w	r6, [r7, #-4]!
    3d40:	6946      	ldr	r6, [r0, #20]
    3d42:	f847 6d04 	str.w	r6, [r7, #-4]!
    3d46:	2604      	movs	r6, #4
    3d48:	f7fe feaa 	bl	2aa0 <Code_659>
    3d4c:	6981      	ldr	r1, [r0, #24]
    3d4e:	2928      	cmp	r1, #40	; 0x28
    3d50:	d008      	beq.n	3d64 <gemeinsame_schleifenoptimierung+0x56>
    3d52:	f847 6d04 	str.w	r6, [r7, #-4]!
    3d56:	f240 0605 	movw	r6, #5
    3d5a:	00c9      	lsls	r1, r1, #3
    3d5c:	430e      	orrs	r6, r1
    3d5e:	f7ff f9f5 	bl	314c <Code_787>
    3d62:	e007      	b.n	3d74 <gemeinsame_schleifenoptimierung+0x66>
    3d64:	f847 6d04 	str.w	r6, [r7, #-4]!
    3d68:	69c6      	ldr	r6, [r0, #28]
    3d6a:	f847 6d04 	str.w	r6, [r7, #-4]!
    3d6e:	2605      	movs	r6, #5
    3d70:	f7fe fe96 	bl	2aa0 <Code_659>
    3d74:	f7fc fb56 	bl	424 <eliminiere_tos>
    3d78:	f7fc fb54 	bl	424 <eliminiere_tos>
    3d7c:	f7fc fc42 	bl	604 <tidyup_register_allocator_tos>
    3d80:	bd00      	pop	{pc}
    3d82:	000c0000 	andeq	r0, ip, r0
    3d86:	3c222000 	stccc	0, cr2, [r2], #-0
    3d8a:	3c700000 	ldclcc	0, cr0, [r0], #-0
    3d8e:	3bf80000 	blcc	ffe03d96 <BIT31+0x7fe03d96>
    3d92:	3cb20000 	ldccc	0, cr0, [r2]
	...

00003d98 <Dictionary_1035>:
    3d98:	00003db2 			; <UNDEFINED> instruction: 0x00003db2
    3d9c:	63040030 	movwvs	r0, #16432	; 0x4030
    3da0:	00657361 	rsbeq	r7, r5, r1, ror #6

00003da4 <Code_1035>:
    3da4:	f847 6d04 	str.w	r6, [r7, #-4]!
    3da8:	2600      	movs	r6, #0
    3daa:	f847 6d04 	str.w	r6, [r7, #-4]!
    3dae:	2608      	movs	r6, #8
    3db0:	4770      	bx	lr

00003db2 <Dictionary_1040>:
    3db2:	00003dc8 	andeq	r3, r0, r8, asr #27
    3db6:	3f030030 	svccc	0x00030030
    3dba:	4872666f 	ldmdami	r2!, {r0, r1, r2, r3, r5, r6, r9, sl, sp, lr}^

00003dbc <Code_1040>:
    3dbc:	4872      	ldr	r0, [pc, #456]	; (3f88 <Code_1079+0x4a>)
    3dbe:	e009      	b.n	3dd4 <of_inneneinsprung>

00003dc0 <struktur_qof>:
    3dc0:	3e01      	subs	r6, #1
    3dc2:	41b6      	sbcs	r6, r6
    3dc4:	cf40      	ldmia	r7!, {r6}
    3dc6:	4770      	bx	lr

00003dc8 <Dictionary_1042>:
    3dc8:	00003e96 	muleq	r0, r6, lr
    3dcc:	6f020230 	svcvs	0x00020230
    3dd0:	486e0066 	stmdami	lr!, {r1, r2, r5, r6}^

00003dd2 <Code_1042>:
    3dd2:	486e      	ldr	r0, [pc, #440]	; (3f8c <Code_1079+0x4e>)

00003dd4 <of_inneneinsprung>:
    3dd4:	2e08      	cmp	r6, #8
    3dd6:	d000      	beq.n	3dda <of_inneneinsprung+0x6>
    3dd8:	e61c      	b.n	3a14 <strukturen_passen_nicht>
    3dda:	cf40      	ldmia	r7!, {r6}
    3ddc:	b500      	push	{lr}
    3dde:	f847 6d04 	str.w	r6, [r7, #-4]!
    3de2:	0006      	movs	r6, r0
    3de4:	f7fe ff90 	bl	2d08 <Code_702>

00003de8 <of_opcodiereinsprung>:
    3de8:	f7ff fd61 	bl	38ae <branch_v>
    3dec:	6839      	ldr	r1, [r7, #0]
    3dee:	603e      	str	r6, [r7, #0]
    3df0:	460e      	mov	r6, r1
    3df2:	3601      	adds	r6, #1
    3df4:	f847 6d04 	str.w	r6, [r7, #-4]!
    3df8:	2609      	movs	r6, #9
    3dfa:	f847 6d04 	str.w	r6, [r7, #-4]!
    3dfe:	f64c 7640 	movw	r6, #53056	; 0xcf40
    3e02:	f7ff f9a3 	bl	314c <Code_787>
    3e06:	bd00      	pop	{pc}
    3e08:	2e08      	cmp	r6, #8
    3e0a:	d000      	beq.n	3e0e <of_opcodiereinsprung+0x26>
    3e0c:	e602      	b.n	3a14 <strukturen_passen_nicht>
    3e0e:	cf40      	ldmia	r7!, {r6}
    3e10:	b500      	push	{lr}
    3e12:	f7fc fad7 	bl	3c4 <expect_two_elements>
    3e16:	f7fc fbeb 	bl	5f0 <tidyup_register_allocator_3os>
    3e1a:	f847 6d04 	str.w	r6, [r7, #-4]!
    3e1e:	f244 2680 	movw	r6, #17024	; 0x4280
    3e22:	f7fc faf6 	bl	412 <expect_nos_in_register>
    3e26:	430e      	orrs	r6, r1
    3e28:	6902      	ldr	r2, [r0, #16]
    3e2a:	2a28      	cmp	r2, #40	; 0x28
    3e2c:	d126      	bne.n	3e7c <of_opcodiereinsprung+0x94>
    3e2e:	6942      	ldr	r2, [r0, #20]
    3e30:	2aff      	cmp	r2, #255	; 0xff
    3e32:	d808      	bhi.n	3e46 <of_opcodiereinsprung+0x5e>
    3e34:	cf40      	ldmia	r7!, {r6}
    3e36:	f847 6d04 	str.w	r6, [r7, #-4]!
    3e3a:	f642 0600 	movw	r6, #10240	; 0x2800
    3e3e:	4316      	orrs	r6, r2
    3e40:	0209      	lsls	r1, r1, #8
    3e42:	430e      	orrs	r6, r1
    3e44:	e01c      	b.n	3e80 <of_opcodiereinsprung+0x98>
    3e46:	f847 6d04 	str.w	r6, [r7, #-4]!
    3e4a:	6946      	ldr	r6, [r0, #20]
    3e4c:	f7fe fd74 	bl	2938 <Code_650>
    3e50:	cf04      	ldmia	r7!, {r2}
    3e52:	2e00      	cmp	r6, #0
    3e54:	cf40      	ldmia	r7!, {r6}
    3e56:	d006      	beq.n	3e66 <of_opcodiereinsprung+0x7e>
    3e58:	4e4d      	ldr	r6, [pc, #308]	; (3f90 <Code_1079+0x52>)
    3e5a:	4316      	orrs	r6, r2
    3e5c:	ea56 4601 	orrs.w	r6, r6, r1, lsl #16
    3e60:	f7ff f99c 	bl	319c <Code_796>
    3e64:	e00e      	b.n	3e84 <of_opcodiereinsprung+0x9c>
    3e66:	f847 6d04 	str.w	r6, [r7, #-4]!
    3e6a:	0016      	movs	r6, r2
    3e6c:	f7fc fa7c 	bl	368 <get_free_register>
    3e70:	001a      	movs	r2, r3
    3e72:	f847 6d04 	str.w	r6, [r7, #-4]!
    3e76:	001e      	movs	r6, r3
    3e78:	f7fe fe12 	bl	2aa0 <Code_659>
    3e7c:	00d2      	lsls	r2, r2, #3
    3e7e:	4316      	orrs	r6, r2
    3e80:	f7ff f964 	bl	314c <Code_787>
    3e84:	f7fc face 	bl	424 <eliminiere_tos>
    3e88:	f7fc fbbc 	bl	604 <tidyup_register_allocator_tos>
    3e8c:	e7ac      	b.n	3de8 <of_opcodiereinsprung>

00003e8e <struktur_of>:
    3e8e:	0030      	movs	r0, r6
    3e90:	cf40      	ldmia	r7!, {r6}
    3e92:	42b0      	cmp	r0, r6
    3e94:	4770      	bx	lr

00003e96 <Dictionary_1064>:
    3e96:	00003ecc 	andeq	r3, r0, ip, asr #29
    3e9a:	65050030 	strvs	r0, [r5, #-48]	; 0x30
    3e9e:	666f646e 	strbtvs	r6, [pc], -lr, ror #8

00003ea2 <Code_1064>:
    3ea2:	2e09      	cmp	r6, #9
    3ea4:	d000      	beq.n	3ea8 <Code_1064+0x6>
    3ea6:	e5b5      	b.n	3a14 <strukturen_passen_nicht>
    3ea8:	cf40      	ldmia	r7!, {r6}
    3eaa:	b500      	push	{lr}
    3eac:	b440      	push	{r6}
    3eae:	cf40      	ldmia	r7!, {r6}
    3eb0:	f7ff fcfd 	bl	38ae <branch_v>
    3eb4:	6839      	ldr	r1, [r7, #0]
    3eb6:	603e      	str	r6, [r7, #0]
    3eb8:	460e      	mov	r6, r1
    3eba:	f7ff fd11 	bl	38e0 <v_casebranch>
    3ebe:	f847 6d04 	str.w	r6, [r7, #-4]!
    3ec2:	bc40      	pop	{r6}
    3ec4:	f847 6d04 	str.w	r6, [r7, #-4]!
    3ec8:	2608      	movs	r6, #8
    3eca:	bd00      	pop	{pc}

00003ecc <Dictionary_1072>:
    3ecc:	00003f1e 	andeq	r3, r0, lr, lsl pc
    3ed0:	65070030 	strvs	r0, [r7, #-48]	; 0x30
    3ed4:	6163646e 	cmnvs	r3, lr, ror #8
    3ed8:	2e086573 	cfrshl64cs	mvdx8, mvdx3, r6

00003eda <Code_1072>:
    3eda:	2e08      	cmp	r6, #8
    3edc:	d000      	beq.n	3ee0 <Code_1072+0x6>
    3ede:	e599      	b.n	3a14 <strukturen_passen_nicht>
    3ee0:	cf40      	ldmia	r7!, {r6}
    3ee2:	b500      	push	{lr}
    3ee4:	f847 6d04 	str.w	r6, [r7, #-4]!
    3ee8:	f64c 7640 	movw	r6, #53056	; 0xcf40
    3eec:	f7ff f92e 	bl	314c <Code_787>
    3ef0:	f000 f801 	bl	3ef6 <spruenge_einpflegen>
    3ef4:	bd00      	pop	{pc}

00003ef6 <spruenge_einpflegen>:
    3ef6:	b500      	push	{lr}
    3ef8:	0030      	movs	r0, r6
    3efa:	cf40      	ldmia	r7!, {r6}
    3efc:	2800      	cmp	r0, #0
    3efe:	d00d      	beq.n	3f1c <spruenge_einpflegen+0x26>
    3f00:	b403      	push	{r0, r1}
    3f02:	2101      	movs	r1, #1
    3f04:	4031      	ands	r1, r6
    3f06:	2900      	cmp	r1, #0
    3f08:	d003      	beq.n	3f12 <spruenge_einpflegen+0x1c>
    3f0a:	3e01      	subs	r6, #1
    3f0c:	f7ff fcde 	bl	38cc <v_nullbranch>
    3f10:	e001      	b.n	3f16 <spruenge_einpflegen+0x20>
    3f12:	f7ff fcd5 	bl	38c0 <v_branch>
    3f16:	bc03      	pop	{r0, r1}
    3f18:	3801      	subs	r0, #1
    3f1a:	e7ef      	b.n	3efc <spruenge_einpflegen+0x6>
    3f1c:	bd00      	pop	{pc}

00003f1e <Dictionary_1077>:
    3f1e:	00003f32 	andeq	r3, r0, r2, lsr pc
    3f22:	74050000 	strvc	r0, [r5], #-0
    3f26:	6e656b6f 	vnmulvs.f64	d22, d5, d31

00003f2a <Code_1077>:
    3f2a:	f847 6d04 	str.w	r6, [r7, #-4]!
    3f2e:	2620      	movs	r6, #32
    3f30:	e005      	b.n	3f3e <Code_1079>

00003f32 <Dictionary_1079>:
    3f32:	00003f98 	muleq	r0, r8, pc	; <UNPREDICTABLE>
    3f36:	70050000 	andvc	r0, r5, r0
    3f3a:	65737261 	ldrbvs	r7, [r3, #-609]!	; 0x261

00003f3e <Code_1079>:
    3f3e:	b510      	push	{r4, lr}
    3f40:	f7fe fafd 	bl	253e <Code_558>
    3f44:	0031      	movs	r1, r6
    3f46:	cf40      	ldmia	r7!, {r6}
    3f48:	0030      	movs	r0, r6
    3f4a:	cf40      	ldmia	r7!, {r6}
    3f4c:	4a11      	ldr	r2, [pc, #68]	; (3f94 <Code_1079+0x56>)
    3f4e:	6812      	ldr	r2, [r2, #0]
    3f50:	1884      	adds	r4, r0, r2
    3f52:	2e20      	cmp	r6, #32
    3f54:	d107      	bne.n	3f66 <Code_1079+0x28>
    3f56:	4291      	cmp	r1, r2
    3f58:	d00f      	beq.n	3f7a <Code_1079+0x3c>
    3f5a:	5c83      	ldrb	r3, [r0, r2]
    3f5c:	42b3      	cmp	r3, r6
    3f5e:	d102      	bne.n	3f66 <Code_1079+0x28>
    3f60:	3201      	adds	r2, #1
    3f62:	1884      	adds	r4, r0, r2
    3f64:	e7f7      	b.n	3f56 <Code_1079+0x18>
    3f66:	4291      	cmp	r1, r2
    3f68:	d007      	beq.n	3f7a <Code_1079+0x3c>
    3f6a:	5c83      	ldrb	r3, [r0, r2]
    3f6c:	3201      	adds	r2, #1
    3f6e:	42b3      	cmp	r3, r6
    3f70:	d1f9      	bne.n	3f66 <Code_1079+0x28>
    3f72:	1886      	adds	r6, r0, r2
    3f74:	1b36      	subs	r6, r6, r4
    3f76:	3e01      	subs	r6, #1
    3f78:	e001      	b.n	3f7e <Code_1079+0x40>
    3f7a:	1886      	adds	r6, r0, r2
    3f7c:	1b36      	subs	r6, r6, r4
    3f7e:	3f04      	subs	r7, #4
    3f80:	603c      	str	r4, [r7, #0]
    3f82:	4804      	ldr	r0, [pc, #16]	; (3f94 <Code_1079+0x56>)
    3f84:	6002      	str	r2, [r0, #0]
    3f86:	bd10      	pop	{r4, pc}
    3f88:	00003dc0 	andeq	r3, r0, r0, asr #27
    3f8c:	00003e8e 	andeq	r3, r0, lr, lsl #29
    3f90:	f1b00f00 			; <UNDEFINED> instruction: 0xf1b00f00
    3f94:	20007fe4 	andcs	r7, r0, r4, ror #31

00003f98 <Dictionary_1082>:
    3f98:	00003fd6 	ldrdeq	r3, [r0], -r6
    3f9c:	64050000 	strvs	r0, [r5], #-0
    3fa0:	74696769 	strbtvc	r6, [r9], #-1897	; 0x769

00003fa4 <Code_1082>:
    3fa4:	4bce      	ldr	r3, [pc, #824]	; (42e0 <Code_1145+0x8>)
    3fa6:	681b      	ldr	r3, [r3, #0]

00003fa8 <digit_base_r3>:
    3fa8:	3e30      	subs	r6, #48	; 0x30
    3faa:	d30b      	bcc.n	3fc4 <digit_base_r3+0x1c>
    3fac:	2e0a      	cmp	r6, #10
    3fae:	d30b      	bcc.n	3fc8 <digit_base_r3+0x20>
    3fb0:	3e07      	subs	r6, #7
    3fb2:	2e0a      	cmp	r6, #10
    3fb4:	d306      	bcc.n	3fc4 <digit_base_r3+0x1c>
    3fb6:	2e24      	cmp	r6, #36	; 0x24
    3fb8:	d306      	bcc.n	3fc8 <digit_base_r3+0x20>
    3fba:	3e20      	subs	r6, #32
    3fbc:	2e0a      	cmp	r6, #10
    3fbe:	d301      	bcc.n	3fc4 <digit_base_r3+0x1c>
    3fc0:	2e24      	cmp	r6, #36	; 0x24
    3fc2:	d301      	bcc.n	3fc8 <digit_base_r3+0x20>
    3fc4:	2600      	movs	r6, #0
    3fc6:	4770      	bx	lr
    3fc8:	429e      	cmp	r6, r3
    3fca:	d2fb      	bcs.n	3fc4 <digit_base_r3+0x1c>
    3fcc:	f847 6d04 	str.w	r6, [r7, #-4]!
    3fd0:	2600      	movs	r6, #0
    3fd2:	43f6      	mvns	r6, r6
    3fd4:	4770      	bx	lr

00003fd6 <Dictionary_1084>:
    3fd6:	000040e0 	andeq	r4, r0, r0, ror #1
    3fda:	6e060000 	cdpvs	0, 0, cr0, cr6, cr0, {0}
    3fde:	65626d75 	strbvs	r6, [r2, #-3445]!	; 0xd75
    3fe2:	b53f0072 	ldrlt	r0, [pc, #-114]!	; 3f78 <Code_1079+0x3a>

00003fe4 <Code_1084>:
    3fe4:	b53f      	push	{r0, r1, r2, r3, r4, r5, lr}
    3fe6:	0031      	movs	r1, r6
    3fe8:	cf40      	ldmia	r7!, {r6}
    3fea:	1e70      	subs	r0, r6, #1
    3fec:	2601      	movs	r6, #1
    3fee:	2201      	movs	r2, #1
    3ff0:	b404      	push	{r2}
    3ff2:	4bbb      	ldr	r3, [pc, #748]	; (42e0 <Code_1145+0x8>)
    3ff4:	681b      	ldr	r3, [r3, #0]
    3ff6:	2400      	movs	r4, #0
    3ff8:	2500      	movs	r5, #0
    3ffa:	2900      	cmp	r1, #0
    3ffc:	d03c      	beq.n	4078 <BIT14+0x78>
    3ffe:	3001      	adds	r0, #1
    4000:	3901      	subs	r1, #1
    4002:	7802      	ldrb	r2, [r0, #0]
    4004:	2a2d      	cmp	r2, #45	; 0x2d
    4006:	d104      	bne.n	4012 <BIT14+0x12>
    4008:	b001      	add	sp, #4
    400a:	2200      	movs	r2, #0
    400c:	43d2      	mvns	r2, r2
    400e:	b404      	push	{r2}
    4010:	e7f3      	b.n	3ffa <Code_1084+0x16>
    4012:	2a23      	cmp	r2, #35	; 0x23
    4014:	d101      	bne.n	401a <BIT14+0x1a>
    4016:	230a      	movs	r3, #10
    4018:	e7ef      	b.n	3ffa <Code_1084+0x16>
    401a:	2a24      	cmp	r2, #36	; 0x24
    401c:	d101      	bne.n	4022 <BIT14+0x22>
    401e:	2310      	movs	r3, #16
    4020:	e7eb      	b.n	3ffa <Code_1084+0x16>
    4022:	2a25      	cmp	r2, #37	; 0x25
    4024:	d101      	bne.n	402a <BIT14+0x2a>
    4026:	2302      	movs	r3, #2
    4028:	e7e7      	b.n	3ffa <Code_1084+0x16>
    402a:	2a2e      	cmp	r2, #46	; 0x2e
    402c:	d101      	bne.n	4032 <BIT14+0x32>
    402e:	2602      	movs	r6, #2
    4030:	e7e3      	b.n	3ffa <Code_1084+0x16>
    4032:	2a2c      	cmp	r2, #44	; 0x2c
    4034:	d036      	beq.n	40a4 <number_nachkommastellen>
    4036:	f847 6d04 	str.w	r6, [r7, #-4]!
    403a:	0016      	movs	r6, r2
    403c:	f7ff ffb4 	bl	3fa8 <digit_base_r3>
    4040:	2e00      	cmp	r6, #0
    4042:	cf40      	ldmia	r7!, {r6}
    4044:	d02b      	beq.n	409e <BIT14+0x9e>
    4046:	f847 6d04 	str.w	r6, [r7, #-4]!
    404a:	0026      	movs	r6, r4
    404c:	f847 6d04 	str.w	r6, [r7, #-4]!
    4050:	002e      	movs	r6, r5
    4052:	f847 6d04 	str.w	r6, [r7, #-4]!
    4056:	001e      	movs	r6, r3
    4058:	f847 6d04 	str.w	r6, [r7, #-4]!
    405c:	2600      	movs	r6, #0
    405e:	b40f      	push	{r0, r1, r2, r3}
    4060:	f7fc fcb4 	bl	9cc <Code_118>
    4064:	bc0f      	pop	{r0, r1, r2, r3}
    4066:	0035      	movs	r5, r6
    4068:	cf40      	ldmia	r7!, {r6}
    406a:	0034      	movs	r4, r6
    406c:	cf40      	ldmia	r7!, {r6}
    406e:	2200      	movs	r2, #0
    4070:	19a4      	adds	r4, r4, r6
    4072:	4155      	adcs	r5, r2
    4074:	cf40      	ldmia	r7!, {r6}
    4076:	e7c0      	b.n	3ffa <Code_1084+0x16>
    4078:	bc04      	pop	{r2}
    407a:	2a00      	cmp	r2, #0
    407c:	d504      	bpl.n	4088 <BIT14+0x88>
    407e:	2200      	movs	r2, #0
    4080:	43e4      	mvns	r4, r4
    4082:	43ed      	mvns	r5, r5
    4084:	3401      	adds	r4, #1
    4086:	4155      	adcs	r5, r2
    4088:	0033      	movs	r3, r6
    408a:	0026      	movs	r6, r4
    408c:	2b01      	cmp	r3, #1
    408e:	d002      	beq.n	4096 <BIT14+0x96>
    4090:	f847 6d04 	str.w	r6, [r7, #-4]!
    4094:	002e      	movs	r6, r5
    4096:	f847 6d04 	str.w	r6, [r7, #-4]!
    409a:	001e      	movs	r6, r3
    409c:	bd3f      	pop	{r0, r1, r2, r3, r4, r5, pc}
    409e:	b001      	add	sp, #4
    40a0:	2600      	movs	r6, #0
    40a2:	bd3f      	pop	{r0, r1, r2, r3, r4, r5, pc}

000040a4 <number_nachkommastellen>:
    40a4:	0025      	movs	r5, r4
    40a6:	2400      	movs	r4, #0
    40a8:	2602      	movs	r6, #2
    40aa:	2900      	cmp	r1, #0
    40ac:	d0e4      	beq.n	4078 <BIT14+0x78>
    40ae:	5c42      	ldrb	r2, [r0, r1]
    40b0:	3901      	subs	r1, #1
    40b2:	2a2e      	cmp	r2, #46	; 0x2e
    40b4:	d0f9      	beq.n	40aa <number_nachkommastellen+0x6>
    40b6:	f847 6d04 	str.w	r6, [r7, #-4]!
    40ba:	0016      	movs	r6, r2
    40bc:	f7ff ff74 	bl	3fa8 <digit_base_r3>
    40c0:	2e00      	cmp	r6, #0
    40c2:	cf40      	ldmia	r7!, {r6}
    40c4:	d0eb      	beq.n	409e <BIT14+0x9e>
    40c6:	3f04      	subs	r7, #4
    40c8:	603c      	str	r4, [r7, #0]
    40ca:	f847 6d04 	str.w	r6, [r7, #-4]!
    40ce:	001e      	movs	r6, r3
    40d0:	b40f      	push	{r0, r1, r2, r3}
    40d2:	f7fc fd2a 	bl	b2a <Code_154>
    40d6:	bc0f      	pop	{r0, r1, r2, r3}
    40d8:	0034      	movs	r4, r6
    40da:	cf40      	ldmia	r7!, {r6}
    40dc:	cf40      	ldmia	r7!, {r6}
    40de:	e7e4      	b.n	40aa <number_nachkommastellen+0x6>

000040e0 <Dictionary_1111>:
    40e0:	00004100 	andeq	r4, r0, r0, lsl #2
    40e4:	2e060000 	cdpcs	0, 0, cr0, cr6, cr0, {0}
    40e8:	69676964 	stmdbvs	r7!, {r2, r5, r6, r8, fp, sp, lr}^
    40ec:	2e0a0074 	mcrcs	0, 0, r0, cr10, cr4, {3}

000040ee <Code_1111>:
    40ee:	2e0a      	cmp	r6, #10
    40f0:	bf3c      	itt	cc
    40f2:	3630      	addcc	r6, #48	; 0x30
    40f4:	e003      	bcc.n	40fe <Code_1111+0x10>
    40f6:	2e24      	cmp	r6, #36	; 0x24
    40f8:	bf34      	ite	cc
    40fa:	3637      	addcc	r6, #55	; 0x37
    40fc:	2623      	movcs	r6, #35	; 0x23
    40fe:	4770      	bx	lr

00004100 <Dictionary_1112>:
    4100:	00004136 	andeq	r4, r0, r6, lsr r1
    4104:	68040000 	stmdavs	r4, {}	; <UNPREDICTABLE>
    4108:	00646c6f 	rsbeq	r6, r4, pc, ror #24

0000410c <Code_1112>:
    410c:	0033      	movs	r3, r6
    410e:	cf40      	ldmia	r7!, {r6}
    4110:	4874      	ldr	r0, [pc, #464]	; (42e4 <Code_1145+0xc>)
    4112:	7801      	ldrb	r1, [r0, #0]
    4114:	293f      	cmp	r1, #63	; 0x3f
    4116:	d20d      	bcs.n	4134 <Code_1112+0x28>
    4118:	3101      	adds	r1, #1
    411a:	7001      	strb	r1, [r0, #0]
    411c:	1840      	adds	r0, r0, r1
    411e:	2901      	cmp	r1, #1
    4120:	d007      	beq.n	4132 <Code_1112+0x26>
    4122:	3801      	subs	r0, #1
    4124:	7802      	ldrb	r2, [r0, #0]
    4126:	3001      	adds	r0, #1
    4128:	7002      	strb	r2, [r0, #0]
    412a:	3801      	subs	r0, #1
    412c:	3901      	subs	r1, #1
    412e:	2901      	cmp	r1, #1
    4130:	d1f7      	bne.n	4122 <Code_1112+0x16>
    4132:	7003      	strb	r3, [r0, #0]
    4134:	4770      	bx	lr

00004136 <Dictionary_1114>:
    4136:	00004156 	andeq	r4, r0, r6, asr r1
    413a:	68050000 	stmdavs	r5, {}	; <UNPREDICTABLE>
    413e:	3c646c6f 	stclcc	12, cr6, [r4], #-444	; 0xfffffe44

00004142 <Code_1114>:
    4142:	0033      	movs	r3, r6
    4144:	cf40      	ldmia	r7!, {r6}
    4146:	4867      	ldr	r0, [pc, #412]	; (42e4 <Code_1145+0xc>)
    4148:	7801      	ldrb	r1, [r0, #0]
    414a:	293f      	cmp	r1, #63	; 0x3f
    414c:	d202      	bcs.n	4154 <Code_1114+0x12>
    414e:	3101      	adds	r1, #1
    4150:	7001      	strb	r1, [r0, #0]
    4152:	5443      	strb	r3, [r0, r1]
    4154:	4770      	bx	lr

00004156 <Dictionary_1116>:
    4156:	0000416e 	andeq	r4, r0, lr, ror #2
    415a:	73040000 	movwvc	r0, #16384	; 0x4000
    415e:	006e6769 	rsbeq	r6, lr, r9, ror #14

00004162 <Code_1116>:
    4162:	2e00      	cmp	r6, #0
    4164:	d401      	bmi.n	416a <Code_1116+0x8>
    4166:	cf40      	ldmia	r7!, {r6}
    4168:	4770      	bx	lr
    416a:	262d      	movs	r6, #45	; 0x2d
    416c:	e7ce      	b.n	410c <Code_1112>

0000416e <Dictionary_1118>:
    416e:	00004182 	andeq	r4, r0, r2, lsl #3
    4172:	23020000 	movwcs	r0, #8192	; 0x2000
    4176:	485a003e 	ldmdami	sl, {r1, r2, r3, r4, r5}^

00004178 <Code_1118>:
    4178:	485a      	ldr	r0, [pc, #360]	; (42e4 <Code_1145+0xc>)
    417a:	7806      	ldrb	r6, [r0, #0]
    417c:	3001      	adds	r0, #1
    417e:	6038      	str	r0, [r7, #0]
    4180:	4770      	bx	lr

00004182 <Dictionary_1119>:
    4182:	0000419a 	muleq	r0, sl, r1
    4186:	66030000 	strvs	r0, [r3], -r0
    418a:	b5105323 	ldrlt	r5, [r0, #-803]	; 0x323

0000418c <Code_1119>:
    418c:	b510      	push	{r4, lr}
    418e:	2420      	movs	r4, #32
    4190:	f000 f808 	bl	41a4 <Code_1120>
    4194:	3c01      	subs	r4, #1
    4196:	d1fb      	bne.n	4190 <Code_1119+0x4>
    4198:	bd10      	pop	{r4, pc}

0000419a <Dictionary_1120>:
    419a:	000041bc 			; <UNDEFINED> instruction: 0x000041bc
    419e:	66020000 	strvs	r0, [r2], -r0
    41a2:	b5000023 	strlt	r0, [r0, #-35]	; 0x23

000041a4 <Code_1120>:
    41a4:	b500      	push	{lr}
    41a6:	f847 6d04 	str.w	r6, [r7, #-4]!
    41aa:	4e4d      	ldr	r6, [pc, #308]	; (42e0 <Code_1145+0x8>)
    41ac:	6836      	ldr	r6, [r6, #0]
    41ae:	f7fc fbc2 	bl	936 <Code_111>
    41b2:	f7ff ff9c 	bl	40ee <Code_1111>
    41b6:	f7ff ffc4 	bl	4142 <Code_1114>
    41ba:	bd00      	pop	{pc}

000041bc <Dictionary_1122>:
    41bc:	000041d8 	ldrdeq	r4, [r0], -r8
    41c0:	23020000 	movwcs	r0, #8192	; 0x2000
    41c4:	b5000053 	strlt	r0, [r0, #-83]	; 0x53

000041c6 <Code_1122>:
    41c6:	b500      	push	{lr}
    41c8:	f000 f80a 	bl	41e0 <Code_1123>
    41cc:	2e00      	cmp	r6, #0
    41ce:	d1fb      	bne.n	41c8 <Code_1122+0x2>
    41d0:	6838      	ldr	r0, [r7, #0]
    41d2:	2800      	cmp	r0, #0
    41d4:	d1f8      	bne.n	41c8 <Code_1122+0x2>
    41d6:	bd00      	pop	{pc}

000041d8 <Dictionary_1123>:
    41d8:	00004204 	andeq	r4, r0, r4, lsl #4
    41dc:	23010000 	movwcs	r0, #4096	; 0x1000

000041e0 <Code_1123>:
    41e0:	b500      	push	{lr}
    41e2:	f847 6d04 	str.w	r6, [r7, #-4]!
    41e6:	4e3e      	ldr	r6, [pc, #248]	; (42e0 <Code_1145+0x8>)
    41e8:	6836      	ldr	r6, [r6, #0]
    41ea:	f847 6d04 	str.w	r6, [r7, #-4]!
    41ee:	2600      	movs	r6, #0
    41f0:	f7fc fcba 	bl	b68 <Code_163>
    41f4:	f7fc fa8d 	bl	712 <Code_81>
    41f8:	cf40      	ldmia	r7!, {r6}
    41fa:	f7ff ff78 	bl	40ee <Code_1111>
    41fe:	f7ff ff85 	bl	410c <Code_1112>
    4202:	bd00      	pop	{pc}

00004204 <Dictionary_1128>:
    4204:	00004216 	andeq	r4, r0, r6, lsl r2
    4208:	3c020000 	stccc	0, cr0, [r2], {-0}
    420c:	48350023 	ldmdami	r5!, {r0, r1, r5}

0000420e <Code_1128>:
    420e:	4835      	ldr	r0, [pc, #212]	; (42e4 <Code_1145+0xc>)
    4210:	2100      	movs	r1, #0
    4212:	7001      	strb	r1, [r0, #0]
    4214:	4770      	bx	lr

00004216 <Dictionary_1129>:
    4216:	00004228 	andeq	r4, r0, r8, lsr #4
    421a:	66020000 	strvs	r0, [r2], -r0
    421e:	f847002e 			; <UNDEFINED> instruction: 0xf847002e

00004220 <Code_1129>:
    4220:	f847 6d04 	str.w	r6, [r7, #-4]!
    4224:	2620      	movs	r6, #32
    4226:	e004      	b.n	4232 <Code_1132>

00004228 <Dictionary_1132>:
    4228:	00004276 	andeq	r4, r0, r6, ror r2
    422c:	66030000 	strvs	r0, [r3], -r0
    4230:	b5006e2e 	strlt	r6, [r0, #-3630]	; 0xe2e

00004232 <Code_1132>:
    4232:	b500      	push	{lr}
    4234:	b410      	push	{r4}
    4236:	0034      	movs	r4, r6
    4238:	cf40      	ldmia	r7!, {r6}
    423a:	f7fc fe67 	bl	f0c <Code_204>
    423e:	f7fc fb3d 	bl	8bc <Code_105>
    4242:	f847 6d04 	str.w	r6, [r7, #-4]!
    4246:	2600      	movs	r6, #0
    4248:	f7ff ffe1 	bl	420e <Code_1128>
    424c:	f7ff ffbb 	bl	41c6 <Code_1122>
    4250:	cf40      	ldmia	r7!, {r6}
    4252:	262c      	movs	r6, #44	; 0x2c
    4254:	f7ff ff75 	bl	4142 <Code_1114>
    4258:	2c00      	cmp	r4, #0
    425a:	d003      	beq.n	4264 <Code_1132+0x32>
    425c:	f7ff ffa2 	bl	41a4 <Code_1120>
    4260:	3c01      	subs	r4, #1
    4262:	d1fb      	bne.n	425c <Code_1132+0x2a>
    4264:	bc10      	pop	{r4}
    4266:	cf40      	ldmia	r7!, {r6}
    4268:	f7ff ff7b 	bl	4162 <Code_1116>
    426c:	f847 6d04 	str.w	r6, [r7, #-4]!
    4270:	f847 6d04 	str.w	r6, [r7, #-4]!
    4274:	e01c      	b.n	42b0 <abschluss_zahlenausgabe>

00004276 <Dictionary_1140>:
    4276:	0000428c 	andeq	r4, r0, ip, lsl #5
    427a:	75030000 	strvc	r0, [r3, #-0]
    427e:	b5002e64 	strlt	r2, [r0, #-3684]	; 0xe64

00004280 <Code_1140>:
    4280:	b500      	push	{lr}
    4282:	f7ff ffc4 	bl	420e <Code_1128>
    4286:	f7ff ff9e 	bl	41c6 <Code_1122>
    428a:	e011      	b.n	42b0 <abschluss_zahlenausgabe>

0000428c <Dictionary_1141>:
    428c:	000042be 			; <UNDEFINED> instruction: 0x000042be
    4290:	64020000 	strvs	r0, [r2], #-0
    4294:	b500002e 	strlt	r0, [r0, #-46]	; 0x2e

00004296 <Code_1141>:
    4296:	b500      	push	{lr}
    4298:	f7fc fe38 	bl	f0c <Code_204>
    429c:	f7fc fb0e 	bl	8bc <Code_105>
    42a0:	f7ff ffb5 	bl	420e <Code_1128>
    42a4:	f7ff ff8f 	bl	41c6 <Code_1122>
    42a8:	f7fc fe44 	bl	f34 <Code_205>
    42ac:	f7ff ff59 	bl	4162 <Code_1116>

000042b0 <abschluss_zahlenausgabe>:
    42b0:	f7ff ff62 	bl	4178 <Code_1118>
    42b4:	f7fe fa55 	bl	2762 <Code_610>
    42b8:	f7fe f9a6 	bl	2608 <Code_575>
    42bc:	bd00      	pop	{pc}

000042be <Dictionary_1142>:
    42be:	000042d0 	ldrdeq	r4, [r0], -r0
    42c2:	75020000 	strvc	r0, [r2, #-0]
    42c6:	f847002e 			; <UNDEFINED> instruction: 0xf847002e

000042c8 <Code_1142>:
    42c8:	f847 6d04 	str.w	r6, [r7, #-4]!
    42cc:	2600      	movs	r6, #0
    42ce:	e7d7      	b.n	4280 <Code_1140>

000042d0 <Dictionary_1145>:
    42d0:	000042e8 	andeq	r4, r0, r8, ror #5
    42d4:	2e010000 	cdpcs	0, 0, cr0, cr1, cr0, {0}

000042d8 <Code_1145>:
    42d8:	f847 6d04 	str.w	r6, [r7, #-4]!
    42dc:	17f6      	asrs	r6, r6, #31
    42de:	e7da      	b.n	4296 <Code_1141>
    42e0:	20007ffc 	strdcs	r7, [r0], -ip
    42e4:	20000054 	andcs	r0, r0, r4, asr r0

000042e8 <Dictionary_1147>:
    42e8:	00004330 	andeq	r4, r0, r0, lsr r3
    42ec:	65080000 	strvs	r0, [r8, #-0]
    42f0:	756c6176 	strbvc	r6, [ip, #-374]!	; 0x176
    42f4:	00657461 	rsbeq	r7, r5, r1, ror #8

000042f8 <Code_1147>:
    42f8:	b500      	push	{lr}
    42fa:	f7fe f920 	bl	253e <Code_558>
    42fe:	cf01      	ldmia	r7!, {r0}
    4300:	b401      	push	{r0}
    4302:	b440      	push	{r6}
    4304:	cf40      	ldmia	r7!, {r6}
    4306:	487f      	ldr	r0, [pc, #508]	; (4504 <quit_innenschleife+0x16>)
    4308:	6801      	ldr	r1, [r0, #0]
    430a:	b402      	push	{r1}
    430c:	2100      	movs	r1, #0
    430e:	6001      	str	r1, [r0, #0]
    4310:	f7fe f908 	bl	2524 <Code_556>
    4314:	f000 f814 	bl	4340 <Code_1149>
    4318:	487a      	ldr	r0, [pc, #488]	; (4504 <quit_innenschleife+0x16>)
    431a:	bc02      	pop	{r1}
    431c:	6001      	str	r1, [r0, #0]
    431e:	f847 6d04 	str.w	r6, [r7, #-4]!
    4322:	bc40      	pop	{r6}
    4324:	bc01      	pop	{r0}
    4326:	3f04      	subs	r7, #4
    4328:	6038      	str	r0, [r7, #0]
    432a:	f7fe f8fb 	bl	2524 <Code_556>
    432e:	bd00      	pop	{pc}

00004330 <Dictionary_1149>:
    4330:	0000449a 	muleq	r0, sl, r4
    4334:	69090000 	stmdbvs	r9, {}	; <UNPREDICTABLE>
    4338:	7265746e 	rsbvc	r7, r5, #1845493760	; 0x6e000000
    433c:	74657270 	strbtvc	r7, [r5], #-624	; 0x270

00004340 <Code_1149>:
    4340:	b530      	push	{r4, r5, lr}
    4342:	4871      	ldr	r0, [pc, #452]	; (4508 <quit_innenschleife+0x1a>)
    4344:	4287      	cmp	r7, r0
    4346:	d90b      	bls.n	4360 <Code_1149+0x20>
    4348:	f7fe f9af 	bl	26aa <dotgaensefuesschen>
    434c:	61745310 	cmnvs	r4, r0, lsl r3
    4350:	75206b63 	strvc	r6, [r0, #-2915]!	; 0xb63
    4354:	7265646e 	rsbvc	r6, r5, #1845493760	; 0x6e000000
    4358:	776f6c66 	strbvc	r6, [pc, -r6, ror #24]!
    435c:	e0b0000a 	adcs	r0, r0, sl
    4360:	486a      	ldr	r0, [pc, #424]	; (450c <quit_innenschleife+0x1e>)
    4362:	4287      	cmp	r7, r0
    4364:	d20a      	bcs.n	437c <Code_1149+0x3c>
    4366:	f7fe f9a0 	bl	26aa <dotgaensefuesschen>
    436a:	6174530f 	cmnvs	r4, pc, lsl #6
    436e:	6f206b63 	svcvs	0x00206b63
    4372:	66726576 			; <UNDEFINED> instruction: 0x66726576
    4376:	0a776f6c 	beq	1de012e <BIT24+0xde012e>
    437a:	e0a2      	b.n	44c2 <Code_1174>
    437c:	4c64      	ldr	r4, [pc, #400]	; (4510 <quit_innenschleife+0x22>)
    437e:	6825      	ldr	r5, [r4, #0]
    4380:	2d00      	cmp	r5, #0
    4382:	d101      	bne.n	4388 <Code_1149+0x48>
    4384:	003d      	movs	r5, r7
    4386:	6025      	str	r5, [r4, #0]
    4388:	f7ff fdcf 	bl	3f2a <Code_1077>
    438c:	2e00      	cmp	r6, #0
    438e:	d102      	bne.n	4396 <Code_1149+0x56>
    4390:	3704      	adds	r7, #4
    4392:	cf40      	ldmia	r7!, {r6}
    4394:	bd30      	pop	{r4, r5, pc}
    4396:	6838      	ldr	r0, [r7, #0]
    4398:	f847 6d04 	str.w	r6, [r7, #-4]!
    439c:	3f04      	subs	r7, #4
    439e:	6038      	str	r0, [r7, #0]
    43a0:	f7ff f991 	bl	36c6 <Code_881>
    43a4:	0031      	movs	r1, r6
    43a6:	cf40      	ldmia	r7!, {r6}
    43a8:	0032      	movs	r2, r6
    43aa:	cf40      	ldmia	r7!, {r6}
    43ac:	2a00      	cmp	r2, #0
    43ae:	d115      	bne.n	43dc <not_found_addr_r0_len_r1+0x18>
    43b0:	6838      	ldr	r0, [r7, #0]
    43b2:	0031      	movs	r1, r6
    43b4:	f7fd f8e0 	bl	1578 <sprungschreiber_flaggenerator>
    43b8:	f7ff fe14 	bl	3fe4 <Code_1084>
    43bc:	0032      	movs	r2, r6
    43be:	cf40      	ldmia	r7!, {r6}
    43c0:	2a00      	cmp	r2, #0
    43c2:	d1be      	bne.n	4342 <Code_1149+0x2>

000043c4 <not_found_addr_r0_len_r1>:
    43c4:	f7fe f9d1 	bl	276a <stype_addr_r0_len_r1>
    43c8:	f7fe f96f 	bl	26aa <dotgaensefuesschen>
    43cc:	6f6e200c 	svcvs	0x006e200c
    43d0:	6f662074 	svcvs	0x00662074
    43d4:	2e646e75 	mcrcs	14, 3, r6, cr4, cr5, {3}
    43d8:	e072000a 	rsbs	r0, r2, sl
    43dc:	4b4d      	ldr	r3, [pc, #308]	; (4514 <quit_innenschleife+0x26>)
    43de:	681b      	ldr	r3, [r3, #0]
    43e0:	2b00      	cmp	r3, #0
    43e2:	d11d      	bne.n	4420 <.ausfuehren+0x12>
    43e4:	2500      	movs	r5, #0
    43e6:	6025      	str	r5, [r4, #0]
    43e8:	2330      	movs	r3, #48	; 0x30
    43ea:	400b      	ands	r3, r1
    43ec:	2b30      	cmp	r3, #48	; 0x30
    43ee:	d10e      	bne.n	440e <.ausfuehren>
    43f0:	f7fe f9b7 	bl	2762 <Code_610>
    43f4:	f7fe f959 	bl	26aa <dotgaensefuesschen>
    43f8:	73692012 	cmnvc	r9, #18
    43fc:	6d6f6320 	stclvs	3, cr6, [pc, #-128]!	; 4384 <Code_1149+0x44>
    4400:	656c6970 	strbvs	r6, [ip, #-2416]!	; 0x970
    4404:	6c6e6f2d 	stclvs	15, cr6, [lr], #-180	; 0xffffff4c
    4408:	000a2e79 	andeq	r2, sl, r9, ror lr
    440c:	e059      	b.n	44c2 <Code_1174>

0000440e <.ausfuehren>:
    440e:	3704      	adds	r7, #4
    4410:	cf40      	ldmia	r7!, {r6}
    4412:	f847 6d04 	str.w	r6, [r7, #-4]!
    4416:	0016      	movs	r6, r2
    4418:	f7fe fd14 	bl	2e44 <Code_724>
    441c:	f7ff ff91 	bl	4342 <Code_1149+0x2>
    4420:	3704      	adds	r7, #4
    4422:	cf40      	ldmia	r7!, {r6}
    4424:	483c      	ldr	r0, [pc, #240]	; (4518 <quit_innenschleife+0x2a>)
    4426:	4008      	ands	r0, r1
    4428:	d101      	bne.n	442e <.interpret_entsprungen>
    442a:	f7fd f8a5 	bl	1578 <sprungschreiber_flaggenerator>

0000442e <.interpret_entsprungen>:
    442e:	2080      	movs	r0, #128	; 0x80
    4430:	4008      	ands	r0, r1
    4432:	d108      	bne.n	4446 <.interpret_faltoptimierung>
    4434:	1beb      	subs	r3, r5, r7
    4436:	089b      	lsrs	r3, r3, #2
    4438:	2040      	movs	r0, #64	; 0x40
    443a:	4008      	ands	r0, r1
    443c:	d009      	beq.n	4452 <.interpret_allocator>

0000443e <.interpret_genugkonstanten>:
    443e:	200f      	movs	r0, #15
    4440:	4008      	ands	r0, r1
    4442:	4283      	cmp	r3, r0
    4444:	d305      	bcc.n	4452 <.interpret_allocator>

00004446 <.interpret_faltoptimierung>:
    4446:	f847 6d04 	str.w	r6, [r7, #-4]!
    444a:	0016      	movs	r6, r2
    444c:	f7fe fcfa 	bl	2e44 <Code_724>
    4450:	e777      	b.n	4342 <Code_1149+0x2>

00004452 <.interpret_allocator>:
    4452:	4832      	ldr	r0, [pc, #200]	; (451c <quit_innenschleife+0x2e>)
    4454:	4008      	ands	r0, r1
    4456:	d008      	beq.n	446a <.interpret_allocator_finished>
    4458:	f7fb fedb 	bl	212 <Code_27>
    445c:	f7fc f81e 	bl	49c <Code_53>
    4460:	0038      	movs	r0, r7
    4462:	6020      	str	r0, [r4, #0]
    4464:	f7fb fee4 	bl	230 <nfaltkonstanten_aufschwimmen>
    4468:	e76b      	b.n	4342 <Code_1149+0x2>

0000446a <.interpret_allocator_finished>:
    446a:	f7fb fed2 	bl	212 <Code_27>
    446e:	f7fc f8b7 	bl	5e0 <Code_63>
    4472:	2500      	movs	r5, #0
    4474:	6025      	str	r5, [r4, #0]
    4476:	f847 6d04 	str.w	r6, [r7, #-4]!
    447a:	0016      	movs	r6, r2
    447c:	2210      	movs	r2, #16
    447e:	400a      	ands	r2, r1
    4480:	d002      	beq.n	4488 <.interpret_allocator_finished+0x1e>
    4482:	f7fe fcdf 	bl	2e44 <Code_724>
    4486:	e75c      	b.n	4342 <Code_1149+0x2>
    4488:	2220      	movs	r2, #32
    448a:	400a      	ands	r2, r1
    448c:	d002      	beq.n	4494 <.interpret_allocator_finished+0x2a>
    448e:	f7fe fc3b 	bl	2d08 <Code_702>
    4492:	e756      	b.n	4342 <Code_1149+0x2>
    4494:	f7fe fb61 	bl	2b5a <Code_671>
    4498:	e753      	b.n	4342 <Code_1149+0x2>

0000449a <Dictionary_1171>:
    449a:	000044b6 			; <UNDEFINED> instruction: 0x000044b6
    449e:	68090081 	stmdavs	r9, {r0, r7}
    44a2:	2d6b6f6f 	stclcs	15, cr6, [fp, #-444]!	; 0xfffffe44
    44a6:	74697571 	strbtvc	r7, [r9], #-1393	; 0x571

000044aa <Code_1171>:
    44aa:	f847 6d04 	str.w	r6, [r7, #-4]!
    44ae:	4e1c      	ldr	r6, [pc, #112]	; (4520 <quit_innenschleife+0x32>)
    44b0:	4770      	bx	lr
    44b2:	000044ee 	andeq	r4, r0, lr, ror #9

000044b6 <Dictionary_1174>:
    44b6:	00004534 	andeq	r4, r0, r4, lsr r5
    44ba:	71040000 	mrsvc	r0, (UNDEF: 4)
    44be:	00746975 	rsbseq	r6, r4, r5, ror r9

000044c2 <Code_1174>:
    44c2:	f8df d060 	ldr.w	sp, [pc, #96]	; 4524 <quit_innenschleife+0x36>
    44c6:	4f10      	ldr	r7, [pc, #64]	; (4508 <quit_innenschleife+0x1a>)
    44c8:	4817      	ldr	r0, [pc, #92]	; (4528 <quit_innenschleife+0x3a>)
    44ca:	210a      	movs	r1, #10
    44cc:	6001      	str	r1, [r0, #0]
    44ce:	4811      	ldr	r0, [pc, #68]	; (4514 <quit_innenschleife+0x26>)
    44d0:	2100      	movs	r1, #0
    44d2:	6001      	str	r1, [r0, #0]
    44d4:	480e      	ldr	r0, [pc, #56]	; (4510 <quit_innenschleife+0x22>)
    44d6:	6001      	str	r1, [r0, #0]
    44d8:	f7fc f8e3 	bl	6a2 <Code_76>
    44dc:	4809      	ldr	r0, [pc, #36]	; (4504 <quit_innenschleife+0x16>)
    44de:	6001      	str	r1, [r0, #0]
    44e0:	4812      	ldr	r0, [pc, #72]	; (452c <quit_innenschleife+0x3e>)
    44e2:	6001      	str	r1, [r0, #0]
    44e4:	4912      	ldr	r1, [pc, #72]	; (4530 <quit_innenschleife+0x42>)
    44e6:	6041      	str	r1, [r0, #4]

000044e8 <quit_intern>:
    44e8:	480d      	ldr	r0, [pc, #52]	; (4520 <quit_innenschleife+0x32>)
    44ea:	6800      	ldr	r0, [r0, #0]
    44ec:	4687      	mov	pc, r0

000044ee <quit_innenschleife>:
    44ee:	f7fe f834 	bl	255a <Code_560>
    44f2:	f7ff ff25 	bl	4340 <Code_1149>
    44f6:	f7fe f8d8 	bl	26aa <dotgaensefuesschen>
    44fa:	6b6f2005 	blvs	1bcc516 <BIT24+0xbcc516>
    44fe:	e7f50a2e 	ldrb	r0, [r5, lr, lsr #20]!
    4502:	7fe40000 	svcvc	0x00e40000
    4506:	025c2000 	subseq	r2, ip, #0
    450a:	015c2000 	cmpeq	ip, r0
    450e:	00082000 	andeq	r2, r8, r0
    4512:	7fd82000 	svcvc	0x00d82000
    4516:	04002000 	streq	r2, [r0], #-0
    451a:	02000000 	andeq	r0, r0, #0
    451e:	7fd40000 	svcvc	0x00d40000
    4522:	035c2000 	cmpeq	ip, #0
    4526:	7ffc2000 	svcvc	0x00fc2000
    452a:	7fdc2000 	svcvc	0x00dc2000
    452e:	00942000 	addseq	r2, r4, r0
    4532:	454e2000 	strbmi	r2, [lr, #-0]

00004534 <Dictionary_1176>:
    4534:	0000454e 	andeq	r4, r0, lr, asr #10
    4538:	65050000 	strvs	r0, [r5, #-0]
    453c:	3f746e69 	svccc	0x00746e69

00004540 <Code_1176>:
    4540:	f847 6d04 	str.w	r6, [r7, #-4]!
    4544:	f3ef 8610 	mrs	r6, PRIMASK
    4548:	3e01      	subs	r6, #1
    454a:	41b6      	sbcs	r6, r6
    454c:	4770      	bx	lr

0000454e <Dictionary_1178>:
    454e:	0000455e 	andeq	r4, r0, lr, asr r5
    4552:	65040020 	strvs	r0, [r4, #-32]
    4556:	00746e69 	rsbseq	r6, r4, r9, ror #28

0000455a <Code_1178>:
    455a:	b662      	cpsie	i
    455c:	4770      	bx	lr

0000455e <Dictionary_1179>:
    455e:	0000456e 	andeq	r4, r0, lr, ror #10
    4562:	64040020 	strvs	r0, [r4], #-32
    4566:	00746e69 	rsbseq	r6, r4, r9, ror #28

0000456a <Code_1179>:
    456a:	b672      	cpsid	i
    456c:	4770      	bx	lr

0000456e <Dictionary_1180>:
    456e:	00004584 	andeq	r4, r0, r4, lsl #11
    4572:	69040020 	stmdbvs	r4, {r5}
    4576:	00727370 	rsbseq	r7, r2, r0, ror r3

0000457a <Code_1180>:
    457a:	f847 6d04 	str.w	r6, [r7, #-4]!
    457e:	f3ef 8605 	mrs	r6, IPSR
    4582:	4770      	bx	lr

00004584 <Dictionary_1182>:
    4584:	00004590 	muleq	r0, r0, r5
    4588:	6e030000 	cdpvs	0, 0, cr0, cr3, cr0, {0}
    458c:	4770706f 	ldrbmi	r7, [r0, -pc, rrx]!

0000458e <Code_1182>:
    458e:	4770      	bx	lr

00004590 <Dictionary_1183>:
    4590:	000045d2 	ldrdeq	r4, [r0], -r2
    4594:	75090000 	strvc	r0, [r9, #-0]
    4598:	6e61686e 	cdpvs	8, 6, cr6, cr1, cr14, {3}
    459c:	64656c64 	strbtvs	r6, [r5], #-3172	; 0xc64

000045a0 <Code_1183>:
    45a0:	b500      	push	{lr}
    45a2:	f7fe f882 	bl	26aa <dotgaensefuesschen>
    45a6:	686e5514 	stmdavs	lr!, {r2, r4, r8, sl, ip, lr}^
    45aa:	6c646e61 	stclvs	14, cr6, [r4], #-388	; 0xfffffe7c
    45ae:	49206465 	stmdbmi	r0!, {r0, r2, r5, r6, sl, sp, lr}
    45b2:	7265746e 	rsbvc	r7, r5, #1845493760	; 0x6e000000
    45b6:	74707572 	ldrbtvc	r7, [r0], #-1394	; 0x572
    45ba:	f8470020 			; <UNDEFINED> instruction: 0xf8470020
    45be:	6d04      	ldr	r4, [r0, #80]	; 0x50
    45c0:	f3ef 8605 	mrs	r6, IPSR
    45c4:	f7fe f8e4 	bl	2790 <Code_614>
    45c8:	f7fe f86f 	bl	26aa <dotgaensefuesschen>
    45cc:	000a2102 	andeq	r2, sl, r2, lsl #2
    45d0:	bd00      	pop	{pc}

000045d2 <Dictionary_1187>:
    45d2:	000045e8 	andeq	r4, r0, r8, ror #11
    45d6:	72050000 	andvc	r0, r5, #0
    45da:	74657365 	strbtvc	r7, [r5], #-869	; 0x365

000045de <Code_1187>:
    45de:	f8df 0488 	ldr.w	r0, [pc, #1160]	; 4a68 <init_name+0x6>
    45e2:	f8df 1488 	ldr.w	r1, [pc, #1160]	; 4a6c <init_name+0xa>
    45e6:	6001      	str	r1, [r0, #0]

000045e8 <Dictionary_1189>:
    45e8:	00004614 	andeq	r4, r0, r4, lsl r6
    45ec:	690b0081 	stmdbvs	fp, {r0, r7}
    45f0:	732d7172 	teqvc	sp, #-2147483620	; 0x8000001c
    45f4:	69747379 	ldmdbvs	r4!, {r0, r3, r4, r5, r6, r8, r9, ip, sp, lr}^
    45f8:	f8476b63 			; <UNDEFINED> instruction: 0xf8476b63

000045fa <Code_1189>:
    45fa:	f847 6d04 	str.w	r6, [r7, #-4]!
    45fe:	f8df 6470 	ldr.w	r6, [pc, #1136]	; 4a70 <init_name+0xe>
    4602:	4770      	bx	lr
    4604:	000045a0 	andeq	r4, r0, r0, lsr #11

00004608 <irq_vektor_systick>:
    4608:	f647 70d0 	movw	r0, #32720	; 0x7fd0
    460c:	f2c2 0000 	movt	r0, #8192	; 0x2000
    4610:	6800      	ldr	r0, [r0, #0]
    4612:	4687      	mov	pc, r0

00004614 <Dictionary_1193>:
    4614:	0000463e 	andeq	r4, r0, lr, lsr r6
    4618:	69090081 	stmdbvs	r9, {r0, r7}
    461c:	662d7172 			; <UNDEFINED> instruction: 0x662d7172
    4620:	746c7561 	strbtvc	r7, [ip], #-1377	; 0x561

00004624 <Code_1193>:
    4624:	f847 6d04 	str.w	r6, [r7, #-4]!
    4628:	f8df 6448 	ldr.w	r6, [pc, #1096]	; 4a74 <init_name+0x12>
    462c:	4770      	bx	lr
    462e:	000045a0 	andeq	r4, r0, r0, lsr #11

00004632 <faulthandler>:
    4632:	f647 70cc 	movw	r0, #32716	; 0x7fcc
    4636:	f2c2 0000 	movt	r0, #8192	; 0x2000
    463a:	6800      	ldr	r0, [r0, #0]
    463c:	4687      	mov	pc, r0

0000463e <Dictionary_1197>:
    463e:	0000466e 	andeq	r4, r0, lr, ror #12
    4642:	690e0081 	stmdbvs	lr, {r0, r7}
    4646:	632d7172 	teqvs	sp, #-2147483620	; 0x8000001c
    464a:	656c6c6f 	strbvs	r6, [ip, #-3183]!	; 0xc6f
    464e:	6f697463 	svcvs	0x00697463
    4652:	f847006e 			; <UNDEFINED> instruction: 0xf847006e

00004654 <Code_1197>:
    4654:	f847 6d04 	str.w	r6, [r7, #-4]!
    4658:	f8df 641c 	ldr.w	r6, [pc, #1052]	; 4a78 <init_name+0x16>
    465c:	4770      	bx	lr
    465e:	000045a0 	andeq	r4, r0, r0, lsr #11

00004662 <nullhandler>:
    4662:	f647 70c8 	movw	r0, #32712	; 0x7fc8
    4666:	f2c2 0000 	movt	r0, #8192	; 0x2000
    466a:	6800      	ldr	r0, [r0, #0]
    466c:	4687      	mov	pc, r0

0000466e <Dictionary_1201>:
    466e:	0000469a 	muleq	r0, sl, r6
    4672:	690c0081 	stmdbvs	ip, {r0, r7}
    4676:	742d7172 	strtvc	r7, [sp], #-370	; 0x172
    467a:	696d7265 	stmdbvs	sp!, {r0, r2, r5, r6, r9, ip, sp, lr}^
    467e:	006c616e 	rsbeq	r6, ip, lr, ror #2

00004682 <Code_1201>:
    4682:	f847 6d04 	str.w	r6, [r7, #-4]!
    4686:	4efd      	ldr	r6, [pc, #1012]	; (4a7c <init_name+0x1a>)
    4688:	4770      	bx	lr
    468a:	000045a0 	andeq	r4, r0, r0, lsr #11

0000468e <irq_vektor_terminal>:
    468e:	f647 70c4 	movw	r0, #32708	; 0x7fc4
    4692:	f2c2 0000 	movt	r0, #8192	; 0x2000
    4696:	6800      	ldr	r0, [r0, #0]
    4698:	4687      	mov	pc, r0

0000469a <Dictionary_1205>:
    469a:	000046c2 	andeq	r4, r0, r2, asr #13
    469e:	69090081 	stmdbvs	r9, {r0, r7}
    46a2:	702d7172 	eorvc	r7, sp, r2, ror r1
    46a6:	6174726f 	cmnvs	r4, pc, ror #4

000046aa <Code_1205>:
    46aa:	f847 6d04 	str.w	r6, [r7, #-4]!
    46ae:	4ef4      	ldr	r6, [pc, #976]	; (4a80 <init_name+0x1e>)
    46b0:	4770      	bx	lr
    46b2:	000045a0 	andeq	r4, r0, r0, lsr #11

000046b6 <irq_vektor_porta>:
    46b6:	f647 70c0 	movw	r0, #32704	; 0x7fc0
    46ba:	f2c2 0000 	movt	r0, #8192	; 0x2000
    46be:	6800      	ldr	r0, [r0, #0]
    46c0:	4687      	mov	pc, r0

000046c2 <Dictionary_1209>:
    46c2:	000046ea 	andeq	r4, r0, sl, ror #13
    46c6:	69090081 	stmdbvs	r9, {r0, r7}
    46ca:	702d7172 	eorvc	r7, sp, r2, ror r1
    46ce:	6274726f 	rsbsvs	r7, r4, #-268435450	; 0xf0000006

000046d2 <Code_1209>:
    46d2:	f847 6d04 	str.w	r6, [r7, #-4]!
    46d6:	4eeb      	ldr	r6, [pc, #940]	; (4a84 <init_name+0x22>)
    46d8:	4770      	bx	lr
    46da:	000045a0 	andeq	r4, r0, r0, lsr #11

000046de <irq_vektor_portb>:
    46de:	f647 70bc 	movw	r0, #32700	; 0x7fbc
    46e2:	f2c2 0000 	movt	r0, #8192	; 0x2000
    46e6:	6800      	ldr	r0, [r0, #0]
    46e8:	4687      	mov	pc, r0

000046ea <Dictionary_1213>:
    46ea:	00004712 	andeq	r4, r0, r2, lsl r7
    46ee:	69090081 	stmdbvs	r9, {r0, r7}
    46f2:	702d7172 	eorvc	r7, sp, r2, ror r1
    46f6:	6374726f 	cmnvs	r4, #-268435450	; 0xf0000006

000046fa <Code_1213>:
    46fa:	f847 6d04 	str.w	r6, [r7, #-4]!
    46fe:	4ee2      	ldr	r6, [pc, #904]	; (4a88 <init_name+0x26>)
    4700:	4770      	bx	lr
    4702:	000045a0 	andeq	r4, r0, r0, lsr #11

00004706 <irq_vektor_portc>:
    4706:	f647 70b8 	movw	r0, #32696	; 0x7fb8
    470a:	f2c2 0000 	movt	r0, #8192	; 0x2000
    470e:	6800      	ldr	r0, [r0, #0]
    4710:	4687      	mov	pc, r0

00004712 <Dictionary_1217>:
    4712:	0000473a 	andeq	r4, r0, sl, lsr r7
    4716:	69090081 	stmdbvs	r9, {r0, r7}
    471a:	702d7172 	eorvc	r7, sp, r2, ror r1
    471e:	6474726f 	ldrbtvs	r7, [r4], #-623	; 0x26f

00004722 <Code_1217>:
    4722:	f847 6d04 	str.w	r6, [r7, #-4]!
    4726:	4ed9      	ldr	r6, [pc, #868]	; (4a8c <init_name+0x2a>)
    4728:	4770      	bx	lr
    472a:	000045a0 	andeq	r4, r0, r0, lsr #11

0000472e <irq_vektor_portd>:
    472e:	f647 70b4 	movw	r0, #32692	; 0x7fb4
    4732:	f2c2 0000 	movt	r0, #8192	; 0x2000
    4736:	6800      	ldr	r0, [r0, #0]
    4738:	4687      	mov	pc, r0

0000473a <Dictionary_1221>:
    473a:	00004762 	andeq	r4, r0, r2, ror #14
    473e:	69090081 	stmdbvs	r9, {r0, r7}
    4742:	702d7172 	eorvc	r7, sp, r2, ror r1
    4746:	6574726f 	ldrbvs	r7, [r4, #-623]!	; 0x26f

0000474a <Code_1221>:
    474a:	f847 6d04 	str.w	r6, [r7, #-4]!
    474e:	4ed0      	ldr	r6, [pc, #832]	; (4a90 <init_name+0x2e>)
    4750:	4770      	bx	lr
    4752:	000045a0 	andeq	r4, r0, r0, lsr #11

00004756 <irq_vektor_porte>:
    4756:	f647 70b0 	movw	r0, #32688	; 0x7fb0
    475a:	f2c2 0000 	movt	r0, #8192	; 0x2000
    475e:	6800      	ldr	r0, [r0, #0]
    4760:	4687      	mov	pc, r0

00004762 <Dictionary_1225>:
    4762:	0000478a 	andeq	r4, r0, sl, lsl #15
    4766:	69090081 	stmdbvs	r9, {r0, r7}
    476a:	702d7172 	eorvc	r7, sp, r2, ror r1
    476e:	6674726f 	ldrbtvs	r7, [r4], -pc, ror #4

00004772 <Code_1225>:
    4772:	f847 6d04 	str.w	r6, [r7, #-4]!
    4776:	4ec7      	ldr	r6, [pc, #796]	; (4a94 <init_name+0x32>)
    4778:	4770      	bx	lr
    477a:	000045a0 	andeq	r4, r0, r0, lsr #11

0000477e <irq_vektor_portf>:
    477e:	f647 70ac 	movw	r0, #32684	; 0x7fac
    4782:	f2c2 0000 	movt	r0, #8192	; 0x2000
    4786:	6800      	ldr	r0, [r0, #0]
    4788:	4687      	mov	pc, r0

0000478a <Dictionary_1229>:
    478a:	000047b6 			; <UNDEFINED> instruction: 0x000047b6
    478e:	690c0081 	stmdbvs	ip, {r0, r7}
    4792:	612d7172 	teqvs	sp, r2, ror r1
    4796:	73306364 	teqvc	r0, #-1879048191	; 0x90000001
    479a:	00307165 	eorseq	r7, r0, r5, ror #2

0000479e <Code_1229>:
    479e:	f847 6d04 	str.w	r6, [r7, #-4]!
    47a2:	4ebd      	ldr	r6, [pc, #756]	; (4a98 <init_name+0x36>)
    47a4:	4770      	bx	lr
    47a6:	000045a0 	andeq	r4, r0, r0, lsr #11

000047aa <irq_vektor_adc0seq0>:
    47aa:	f647 70a8 	movw	r0, #32680	; 0x7fa8
    47ae:	f2c2 0000 	movt	r0, #8192	; 0x2000
    47b2:	6800      	ldr	r0, [r0, #0]
    47b4:	4687      	mov	pc, r0

000047b6 <Dictionary_1233>:
    47b6:	000047e2 	andeq	r4, r0, r2, ror #15
    47ba:	690c0081 	stmdbvs	ip, {r0, r7}
    47be:	612d7172 	teqvs	sp, r2, ror r1
    47c2:	73306364 	teqvc	r0, #-1879048191	; 0x90000001
    47c6:	00317165 	eorseq	r7, r1, r5, ror #2

000047ca <Code_1233>:
    47ca:	f847 6d04 	str.w	r6, [r7, #-4]!
    47ce:	4eb3      	ldr	r6, [pc, #716]	; (4a9c <init_name+0x3a>)
    47d0:	4770      	bx	lr
    47d2:	000045a0 	andeq	r4, r0, r0, lsr #11

000047d6 <irq_vektor_adc0seq1>:
    47d6:	f647 70a4 	movw	r0, #32676	; 0x7fa4
    47da:	f2c2 0000 	movt	r0, #8192	; 0x2000
    47de:	6800      	ldr	r0, [r0, #0]
    47e0:	4687      	mov	pc, r0

000047e2 <Dictionary_1237>:
    47e2:	0000480e 	andeq	r4, r0, lr, lsl #16
    47e6:	690c0081 	stmdbvs	ip, {r0, r7}
    47ea:	612d7172 	teqvs	sp, r2, ror r1
    47ee:	73306364 	teqvc	r0, #-1879048191	; 0x90000001
    47f2:	00327165 	eorseq	r7, r2, r5, ror #2

000047f6 <Code_1237>:
    47f6:	f847 6d04 	str.w	r6, [r7, #-4]!
    47fa:	4ea9      	ldr	r6, [pc, #676]	; (4aa0 <init_name+0x3e>)
    47fc:	4770      	bx	lr
    47fe:	000045a0 	andeq	r4, r0, r0, lsr #11

00004802 <irq_vektor_adc0seq2>:
    4802:	f647 70a0 	movw	r0, #32672	; 0x7fa0
    4806:	f2c2 0000 	movt	r0, #8192	; 0x2000
    480a:	6800      	ldr	r0, [r0, #0]
    480c:	4687      	mov	pc, r0

0000480e <Dictionary_1241>:
    480e:	0000483a 	andeq	r4, r0, sl, lsr r8
    4812:	690c0081 	stmdbvs	ip, {r0, r7}
    4816:	612d7172 	teqvs	sp, r2, ror r1
    481a:	73306364 	teqvc	r0, #-1879048191	; 0x90000001
    481e:	00337165 	eorseq	r7, r3, r5, ror #2

00004822 <Code_1241>:
    4822:	f847 6d04 	str.w	r6, [r7, #-4]!
    4826:	4e9f      	ldr	r6, [pc, #636]	; (4aa4 <init_name+0x42>)
    4828:	4770      	bx	lr
    482a:	000045a0 	andeq	r4, r0, r0, lsr #11

0000482e <irq_vektor_adc0seq3>:
    482e:	f647 709c 	movw	r0, #32668	; 0x7f9c
    4832:	f2c2 0000 	movt	r0, #8192	; 0x2000
    4836:	6800      	ldr	r0, [r0, #0]
    4838:	4687      	mov	pc, r0

0000483a <Dictionary_1245>:
    483a:	00004864 	andeq	r4, r0, r4, ror #16
    483e:	690b0081 	stmdbvs	fp, {r0, r7}
    4842:	742d7172 	strtvc	r7, [sp], #-370	; 0x172
    4846:	72656d69 	rsbvc	r6, r5, #6720	; 0x1a40
    484a:	f8476130 			; <UNDEFINED> instruction: 0xf8476130

0000484c <Code_1245>:
    484c:	f847 6d04 	str.w	r6, [r7, #-4]!
    4850:	4e95      	ldr	r6, [pc, #596]	; (4aa8 <init_name+0x46>)
    4852:	4770      	bx	lr
    4854:	000045a0 	andeq	r4, r0, r0, lsr #11

00004858 <irq_vektor_timer0a>:
    4858:	f647 7098 	movw	r0, #32664	; 0x7f98
    485c:	f2c2 0000 	movt	r0, #8192	; 0x2000
    4860:	6800      	ldr	r0, [r0, #0]
    4862:	4687      	mov	pc, r0

00004864 <Dictionary_1249>:
    4864:	0000488e 	andeq	r4, r0, lr, lsl #17
    4868:	690b0081 	stmdbvs	fp, {r0, r7}
    486c:	742d7172 	strtvc	r7, [sp], #-370	; 0x172
    4870:	72656d69 	rsbvc	r6, r5, #6720	; 0x1a40
    4874:	f8476230 			; <UNDEFINED> instruction: 0xf8476230

00004876 <Code_1249>:
    4876:	f847 6d04 	str.w	r6, [r7, #-4]!
    487a:	4e8c      	ldr	r6, [pc, #560]	; (4aac <init_name+0x4a>)
    487c:	4770      	bx	lr
    487e:	000045a0 	andeq	r4, r0, r0, lsr #11

00004882 <irq_vektor_timer0b>:
    4882:	f647 7094 	movw	r0, #32660	; 0x7f94
    4886:	f2c2 0000 	movt	r0, #8192	; 0x2000
    488a:	6800      	ldr	r0, [r0, #0]
    488c:	4687      	mov	pc, r0

0000488e <Dictionary_1253>:
    488e:	000048b8 			; <UNDEFINED> instruction: 0x000048b8
    4892:	690b0081 	stmdbvs	fp, {r0, r7}
    4896:	742d7172 	strtvc	r7, [sp], #-370	; 0x172
    489a:	72656d69 	rsbvc	r6, r5, #6720	; 0x1a40
    489e:	f8476131 			; <UNDEFINED> instruction: 0xf8476131

000048a0 <Code_1253>:
    48a0:	f847 6d04 	str.w	r6, [r7, #-4]!
    48a4:	4e82      	ldr	r6, [pc, #520]	; (4ab0 <init_name+0x4e>)
    48a6:	4770      	bx	lr
    48a8:	000045a0 	andeq	r4, r0, r0, lsr #11

000048ac <irq_vektor_timer1a>:
    48ac:	f647 7090 	movw	r0, #32656	; 0x7f90
    48b0:	f2c2 0000 	movt	r0, #8192	; 0x2000
    48b4:	6800      	ldr	r0, [r0, #0]
    48b6:	4687      	mov	pc, r0

000048b8 <Dictionary_1257>:
    48b8:	000048e2 	andeq	r4, r0, r2, ror #17
    48bc:	690b0081 	stmdbvs	fp, {r0, r7}
    48c0:	742d7172 	strtvc	r7, [sp], #-370	; 0x172
    48c4:	72656d69 	rsbvc	r6, r5, #6720	; 0x1a40
    48c8:	f8476231 			; <UNDEFINED> instruction: 0xf8476231

000048ca <Code_1257>:
    48ca:	f847 6d04 	str.w	r6, [r7, #-4]!
    48ce:	4e79      	ldr	r6, [pc, #484]	; (4ab4 <init_name+0x52>)
    48d0:	4770      	bx	lr
    48d2:	000045a0 	andeq	r4, r0, r0, lsr #11

000048d6 <irq_vektor_timer1b>:
    48d6:	f647 708c 	movw	r0, #32652	; 0x7f8c
    48da:	f2c2 0000 	movt	r0, #8192	; 0x2000
    48de:	6800      	ldr	r0, [r0, #0]
    48e0:	4687      	mov	pc, r0

000048e2 <Dictionary_1261>:
    48e2:	0000490c 	andeq	r4, r0, ip, lsl #18
    48e6:	690b0081 	stmdbvs	fp, {r0, r7}
    48ea:	742d7172 	strtvc	r7, [sp], #-370	; 0x172
    48ee:	72656d69 	rsbvc	r6, r5, #6720	; 0x1a40
    48f2:	f8476132 			; <UNDEFINED> instruction: 0xf8476132

000048f4 <Code_1261>:
    48f4:	f847 6d04 	str.w	r6, [r7, #-4]!
    48f8:	4e6f      	ldr	r6, [pc, #444]	; (4ab8 <init_name+0x56>)
    48fa:	4770      	bx	lr
    48fc:	000045a0 	andeq	r4, r0, r0, lsr #11

00004900 <irq_vektor_timer2a>:
    4900:	f647 7088 	movw	r0, #32648	; 0x7f88
    4904:	f2c2 0000 	movt	r0, #8192	; 0x2000
    4908:	6800      	ldr	r0, [r0, #0]
    490a:	4687      	mov	pc, r0

0000490c <Dictionary_1265>:
    490c:	00004936 	andeq	r4, r0, r6, lsr r9
    4910:	690b0081 	stmdbvs	fp, {r0, r7}
    4914:	742d7172 	strtvc	r7, [sp], #-370	; 0x172
    4918:	72656d69 	rsbvc	r6, r5, #6720	; 0x1a40
    491c:	f8476232 			; <UNDEFINED> instruction: 0xf8476232

0000491e <Code_1265>:
    491e:	f847 6d04 	str.w	r6, [r7, #-4]!
    4922:	4e66      	ldr	r6, [pc, #408]	; (4abc <init_name+0x5a>)
    4924:	4770      	bx	lr
    4926:	000045a0 	andeq	r4, r0, r0, lsr #11

0000492a <irq_vektor_timer2b>:
    492a:	f647 7084 	movw	r0, #32644	; 0x7f84
    492e:	f2c2 0000 	movt	r0, #8192	; 0x2000
    4932:	6800      	ldr	r0, [r0, #0]
    4934:	4687      	mov	pc, r0

00004936 <Dictionary_1268>:
    4936:	00006000 	andeq	r6, r0, r0
    493a:	2d18ffff 	ldccs	15, cr15, [r8, #-1020]	; 0xfffffc04
    493e:	46202d2d 	strtmi	r2, [r0], -sp, lsr #26
    4942:	6873616c 	ldmdavs	r3!, {r2, r3, r5, r6, r8, sp, lr}^
    4946:	63694420 	cmnvs	r9, #536870912	; 0x20000000
    494a:	6e6f6974 	mcrvs	9, 3, r6, cr15, cr4, {3}
    494e:	20797261 	rsbscs	r7, r9, r1, ror #4
    4952:	002d2d2d 	eoreq	r2, sp, sp, lsr #26

00004956 <Code_1268>:
    4956:	f7fd fd26 	bl	23a6 <uart_init>
    495a:	4859      	ldr	r0, [pc, #356]	; (4ac0 <init_name+0x5e>)
    495c:	4685      	mov	sp, r0
    495e:	4f59      	ldr	r7, [pc, #356]	; (4ac4 <init_name+0x62>)
    4960:	262a      	movs	r6, #42	; 0x2a
    4962:	4859      	ldr	r0, [pc, #356]	; (4ac8 <init_name+0x66>)
    4964:	4956      	ldr	r1, [pc, #344]	; (4ac0 <init_name+0x5e>)
    4966:	6001      	str	r1, [r0, #0]
    4968:	4858      	ldr	r0, [pc, #352]	; (4acc <init_name+0x6a>)
    496a:	4959      	ldr	r1, [pc, #356]	; (4ad0 <init_name+0x6e>)
    496c:	6001      	str	r1, [r0, #0]
    496e:	f847 6d04 	str.w	r6, [r7, #-4]!
    4972:	4e57      	ldr	r6, [pc, #348]	; (4ad0 <init_name+0x6e>)
    4974:	4d57      	ldr	r5, [pc, #348]	; (4ad4 <init_name+0x72>)

00004976 <SucheFlashPointer_Hangelschleife>:
    4976:	88b1      	ldrh	r1, [r6, #4]
    4978:	4b57      	ldr	r3, [pc, #348]	; (4ad8 <init_name+0x76>)
    497a:	4299      	cmp	r1, r3
    497c:	d024      	beq.n	49c8 <Sucheflashpointer_Speicherbelegung_fertig>
    497e:	4b57      	ldr	r3, [pc, #348]	; (4adc <init_name+0x7a>)
    4980:	400b      	ands	r3, r1
    4982:	d00a      	beq.n	499a <SucheFlashPointer_Hangelschleife+0x24>
    4984:	1db0      	adds	r0, r6, #6
    4986:	f7fe fe8f 	bl	36a8 <skipstring>
    498a:	f7fe f9d4 	bl	2d36 <suchedefinitionsende>
    498e:	8803      	ldrh	r3, [r0, #0]
    4990:	8840      	ldrh	r0, [r0, #2]
    4992:	0400      	lsls	r0, r0, #16
    4994:	4303      	orrs	r3, r0
    4996:	1aed      	subs	r5, r5, r3
    4998:	e016      	b.n	49c8 <Sucheflashpointer_Speicherbelegung_fertig>
    499a:	2380      	movs	r3, #128	; 0x80
    499c:	400b      	ands	r3, r1
    499e:	d013      	beq.n	49c8 <Sucheflashpointer_Speicherbelegung_fertig>
    49a0:	230f      	movs	r3, #15
    49a2:	4019      	ands	r1, r3
    49a4:	0089      	lsls	r1, r1, #2
    49a6:	1a6d      	subs	r5, r5, r1
    49a8:	1db0      	adds	r0, r6, #6
    49aa:	f7fe fe7d 	bl	36a8 <skipstring>
    49ae:	f7fe f9c2 	bl	2d36 <suchedefinitionsende>
    49b2:	f847 6d04 	str.w	r6, [r7, #-4]!
    49b6:	0006      	movs	r6, r0
    49b8:	f847 6d04 	str.w	r6, [r7, #-4]!
    49bc:	002e      	movs	r6, r5
    49be:	f847 6d04 	str.w	r6, [r7, #-4]!
    49c2:	000e      	movs	r6, r1
    49c4:	f7fc fe5c 	bl	1680 <Code_349>

000049c8 <Sucheflashpointer_Speicherbelegung_fertig>:
    49c8:	f7fe fe4c 	bl	3664 <Code_876>
    49cc:	0030      	movs	r0, r6
    49ce:	cf40      	ldmia	r7!, {r6}
    49d0:	d0d1      	beq.n	4976 <SucheFlashPointer_Hangelschleife>
    49d2:	4843      	ldr	r0, [pc, #268]	; (4ae0 <init_name+0x7e>)
    49d4:	6006      	str	r6, [r0, #0]
    49d6:	cf40      	ldmia	r7!, {r6}
    49d8:	4842      	ldr	r0, [pc, #264]	; (4ae4 <init_name+0x82>)
    49da:	6005      	str	r5, [r0, #0]
    49dc:	4842      	ldr	r0, [pc, #264]	; (4ae8 <init_name+0x86>)
    49de:	4943      	ldr	r1, [pc, #268]	; (4aec <init_name+0x8a>)
    49e0:	4a3d      	ldr	r2, [pc, #244]	; (4ad8 <init_name+0x76>)
    49e2:	4288      	cmp	r0, r1
    49e4:	d004      	beq.n	49f0 <Sucheflashpointer_Speicherbelegung_fertig+0x28>
    49e6:	3802      	subs	r0, #2
    49e8:	8803      	ldrh	r3, [r0, #0]
    49ea:	4293      	cmp	r3, r2
    49ec:	d0f9      	beq.n	49e2 <Sucheflashpointer_Speicherbelegung_fertig+0x1a>
    49ee:	3002      	adds	r0, #2
    49f0:	493f      	ldr	r1, [pc, #252]	; (4af0 <init_name+0x8e>)
    49f2:	6008      	str	r0, [r1, #0]
    49f4:	f7fd fe59 	bl	26aa <dotgaensefuesschen>
    49f8:	63654d43 	cmnvs	r5, #4288	; 0x10c0
    49fc:	70736972 	rsbsvc	r6, r3, r2, ror r9
    4a00:	6574532d 	ldrbvs	r5, [r4, #-813]!	; 0x32d
    4a04:	72616c6c 	rsbvc	r6, r1, #27648	; 0x6c00
    4a08:	52207369 	eorpl	r7, r0, #-1543503871	; 0xa4000001
    4a0c:	2e302041 	cdpcs	0, 3, cr2, cr0, cr1, {2}
    4a10:	78652035 	stmdavc	r5!, {r0, r2, r4, r5, sp}^
    4a14:	69726570 	ldmdbvs	r2!, {r4, r5, r6, r8, sl, sp, lr}^
    4a18:	746e656d 	strbtvc	r6, [lr], #-1389	; 0x56d
    4a1c:	66206c61 	strtvs	r6, [r0], -r1, ror #24
    4a20:	4c20726f 	sfmmi	f7, 4, [r0], #-444	; 0xfffffe44
    4a24:	3146344d 	cmpcc	r6, sp, asr #8
    4a28:	62203032 	eorvs	r3, r0, #50	; 0x32
    4a2c:	614d2079 	hvcvs	53769	; 0xd209
    4a30:	69687474 	stmdbvs	r8!, {r2, r4, r5, r6, sl, ip, sp, lr}^
    4a34:	4b207361 	blmi	8217c0 <BIT23+0x217c0>
    4a38:	0a68636f 	beq	1a1d7fc <BIT24+0xa1d7fc>
    4a3c:	482d      	ldr	r0, [pc, #180]	; (4af4 <init_name+0x92>)
    4a3e:	2100      	movs	r1, #0
    4a40:	6001      	str	r1, [r0, #0]
    4a42:	f847 6d04 	str.w	r6, [r7, #-4]!
    4a46:	4e2c      	ldr	r6, [pc, #176]	; (4af8 <init_name+0x96>)
    4a48:	f847 6d04 	str.w	r6, [r7, #-4]!
    4a4c:	2604      	movs	r6, #4
    4a4e:	f7fe fe3a 	bl	36c6 <Code_881>
    4a52:	cf40      	ldmia	r7!, {r6}
    4a54:	2e00      	cmp	r6, #0
    4a56:	d002      	beq.n	4a5e <Sucheflashpointer_Speicherbelegung_fertig+0x96>
    4a58:	f7fe f9f4 	bl	2e44 <Code_724>
    4a5c:	e544      	b.n	44e8 <quit_intern>
    4a5e:	cf40      	ldmia	r7!, {r6}
    4a60:	e52f      	b.n	44c2 <Code_1174>

00004a62 <init_name>:
    4a62:	74696e69 	strbtvc	r6, [r9], #-3689	; 0xe69
    4a66:	ed0c0000 	stc	0, cr0, [ip, #-0]
    4a6a:	0004e000 	andeq	lr, r4, r0
    4a6e:	7fd005fa 	svcvc	0x00d005fa
    4a72:	7fcc2000 	svcvc	0x00cc2000
    4a76:	7fc82000 	svcvc	0x00c82000
    4a7a:	7fc42000 	svcvc	0x00c42000
    4a7e:	7fc02000 	svcvc	0x00c02000
    4a82:	7fbc2000 	svcvc	0x00bc2000
    4a86:	7fb82000 	svcvc	0x00b82000
    4a8a:	7fb42000 	svcvc	0x00b42000
    4a8e:	7fb02000 	svcvc	0x00b02000
    4a92:	7fac2000 	svcvc	0x00ac2000
    4a96:	7fa82000 	svcvc	0x00a82000
    4a9a:	7fa42000 	svcvc	0x00a42000
    4a9e:	7fa02000 	svcvc	0x00a02000
    4aa2:	7f9c2000 	svcvc	0x009c2000
    4aa6:	7f982000 	svcvc	0x00982000
    4aaa:	7f942000 	svcvc	0x00942000
    4aae:	7f902000 	svcvc	0x00902000
    4ab2:	7f8c2000 	svcvc	0x008c2000
    4ab6:	7f882000 	svcvc	0x00882000
    4aba:	7f842000 	svcvc	0x00842000
    4abe:	035c2000 	cmpeq	ip, #0
    4ac2:	025c2000 	subseq	r2, ip, #0
    4ac6:	00002000 	andeq	r2, r0, r0
    4aca:	00042000 	andeq	r2, r4, r0
    4ace:	01ec2000 	mvneq	r2, r0
    4ad2:	80000000 	andhi	r0, r0, r0
    4ad6:	ffff2000 			; <UNDEFINED> instruction: 0xffff2000
    4ada:	01000000 	mrseq	r0, (UNDEF: 0)
    4ade:	001c0000 	andseq	r0, ip, r0
    4ae2:	00242000 	eoreq	r2, r4, r0
    4ae6:	00002000 	andeq	r2, r0, r0
    4aea:	60000004 	andvs	r0, r0, r4
    4aee:	00180000 	andseq	r0, r8, r0
    4af2:	00082000 	andeq	r2, r8, r0
    4af6:	4a622000 	bmi	188cafe <BIT24+0x88cafe>
	...

Disassembly of section .ARM.attributes:

00000000 <.ARM.attributes>:
   0:	00002041 	andeq	r2, r0, r1, asr #32
   4:	61656100 	cmnvs	r5, r0, lsl #2
   8:	01006962 	tsteq	r0, r2, ror #18
   c:	00000016 	andeq	r0, r0, r6, lsl r0
  10:	726f4305 	rsbvc	r4, pc, #335544320	; 0x14000000
  14:	2d786574 	cfldr64cs	mvdx6, [r8, #-464]!	; 0xfffffe30
  18:	0600344d 	streq	r3, [r0], -sp, asr #8
  1c:	094d070d 	stmdbeq	sp, {r0, r2, r3, r8, r9, sl}^
  20:	Address 0x00000020 is out of bounds.

