
mecrisp-stellaris-kl25z128.elf:     file format elf32-littlearm


Disassembly of section .text:

00000000 <addresszero>:
       0:	1ffff35c 	svcne	0x00fff35c
       4:	000049e5 	andeq	r4, r0, r5, ror #19
       8:	000048ed 	andeq	r4, r0, sp, ror #17
       c:	000048ed 	andeq	r4, r0, sp, ror #17
	...
      2c:	00004917 	andeq	r4, r0, r7, lsl r9
	...
      38:	00004917 	andeq	r4, r0, r7, lsl r9
      3c:	000048cb 	andeq	r4, r0, fp, asr #17
      40:	00004917 	andeq	r4, r0, r7, lsl r9
      44:	00004917 	andeq	r4, r0, r7, lsl r9
      48:	00004917 	andeq	r4, r0, r7, lsl r9
      4c:	00004917 	andeq	r4, r0, r7, lsl r9
      50:	00004917 	andeq	r4, r0, r7, lsl r9
      54:	00004917 	andeq	r4, r0, r7, lsl r9
      58:	00004917 	andeq	r4, r0, r7, lsl r9
      5c:	00004917 	andeq	r4, r0, r7, lsl r9
      60:	00004917 	andeq	r4, r0, r7, lsl r9
      64:	00004917 	andeq	r4, r0, r7, lsl r9
      68:	00004917 	andeq	r4, r0, r7, lsl r9
      6c:	00004917 	andeq	r4, r0, r7, lsl r9
      70:	00004917 	andeq	r4, r0, r7, lsl r9
      74:	00004917 	andeq	r4, r0, r7, lsl r9
      78:	00004917 	andeq	r4, r0, r7, lsl r9
      7c:	00004937 	andeq	r4, r0, r7, lsr r9
      80:	00004957 	andeq	r4, r0, r7, asr r9
      84:	00004917 	andeq	r4, r0, r7, lsl r9
      88:	00004917 	andeq	r4, r0, r7, lsl r9
      8c:	00004917 	andeq	r4, r0, r7, lsl r9
      90:	00004917 	andeq	r4, r0, r7, lsl r9
      94:	00004917 	andeq	r4, r0, r7, lsl r9
      98:	00004917 	andeq	r4, r0, r7, lsl r9
      9c:	00004917 	andeq	r4, r0, r7, lsl r9
      a0:	00004917 	andeq	r4, r0, r7, lsl r9
      a4:	00004977 	andeq	r4, r0, r7, ror r9
      a8:	00004917 	andeq	r4, r0, r7, lsl r9
      ac:	00004917 	andeq	r4, r0, r7, lsl r9
      b0:	00004917 	andeq	r4, r0, r7, lsl r9
      b4:	00004917 	andeq	r4, r0, r7, lsl r9
      b8:	00004999 	muleq	r0, r9, r9
      bc:	000049bd 			; <UNDEFINED> instruction: 0x000049bd
      c0:	ffffffff 			; <UNDEFINED> instruction: 0xffffffff
      c4:	ffffffff 			; <UNDEFINED> instruction: 0xffffffff
      c8:	ffffffff 			; <UNDEFINED> instruction: 0xffffffff
      cc:	ffffffff 			; <UNDEFINED> instruction: 0xffffffff
      d0:	ffffffff 			; <UNDEFINED> instruction: 0xffffffff
      d4:	ffffffff 			; <UNDEFINED> instruction: 0xffffffff
      d8:	ffffffff 			; <UNDEFINED> instruction: 0xffffffff
      dc:	ffffffff 			; <UNDEFINED> instruction: 0xffffffff
      e0:	ffffffff 			; <UNDEFINED> instruction: 0xffffffff
      e4:	ffffffff 			; <UNDEFINED> instruction: 0xffffffff
      e8:	ffffffff 			; <UNDEFINED> instruction: 0xffffffff
      ec:	ffffffff 			; <UNDEFINED> instruction: 0xffffffff
      f0:	ffffffff 			; <UNDEFINED> instruction: 0xffffffff
      f4:	ffffffff 			; <UNDEFINED> instruction: 0xffffffff
      f8:	ffffffff 			; <UNDEFINED> instruction: 0xffffffff
      fc:	ffffffff 			; <UNDEFINED> instruction: 0xffffffff
     100:	ffffffff 			; <UNDEFINED> instruction: 0xffffffff
     104:	ffffffff 			; <UNDEFINED> instruction: 0xffffffff
     108:	ffffffff 			; <UNDEFINED> instruction: 0xffffffff
     10c:	ffffffff 			; <UNDEFINED> instruction: 0xffffffff
     110:	ffffffff 			; <UNDEFINED> instruction: 0xffffffff
     114:	ffffffff 			; <UNDEFINED> instruction: 0xffffffff
     118:	ffffffff 			; <UNDEFINED> instruction: 0xffffffff
     11c:	ffffffff 			; <UNDEFINED> instruction: 0xffffffff
     120:	ffffffff 			; <UNDEFINED> instruction: 0xffffffff
     124:	ffffffff 			; <UNDEFINED> instruction: 0xffffffff
     128:	ffffffff 			; <UNDEFINED> instruction: 0xffffffff
     12c:	ffffffff 			; <UNDEFINED> instruction: 0xffffffff
     130:	ffffffff 			; <UNDEFINED> instruction: 0xffffffff
     134:	ffffffff 			; <UNDEFINED> instruction: 0xffffffff
     138:	ffffffff 			; <UNDEFINED> instruction: 0xffffffff
     13c:	ffffffff 			; <UNDEFINED> instruction: 0xffffffff
     140:	ffffffff 			; <UNDEFINED> instruction: 0xffffffff
     144:	ffffffff 			; <UNDEFINED> instruction: 0xffffffff
     148:	ffffffff 			; <UNDEFINED> instruction: 0xffffffff
     14c:	ffffffff 			; <UNDEFINED> instruction: 0xffffffff
     150:	ffffffff 			; <UNDEFINED> instruction: 0xffffffff
     154:	ffffffff 			; <UNDEFINED> instruction: 0xffffffff
     158:	ffffffff 			; <UNDEFINED> instruction: 0xffffffff
     15c:	ffffffff 			; <UNDEFINED> instruction: 0xffffffff
     160:	ffffffff 			; <UNDEFINED> instruction: 0xffffffff
     164:	ffffffff 			; <UNDEFINED> instruction: 0xffffffff
     168:	ffffffff 			; <UNDEFINED> instruction: 0xffffffff
     16c:	ffffffff 			; <UNDEFINED> instruction: 0xffffffff
     170:	ffffffff 			; <UNDEFINED> instruction: 0xffffffff
     174:	ffffffff 			; <UNDEFINED> instruction: 0xffffffff
     178:	ffffffff 			; <UNDEFINED> instruction: 0xffffffff
     17c:	ffffffff 			; <UNDEFINED> instruction: 0xffffffff
     180:	ffffffff 			; <UNDEFINED> instruction: 0xffffffff
     184:	ffffffff 			; <UNDEFINED> instruction: 0xffffffff
     188:	ffffffff 			; <UNDEFINED> instruction: 0xffffffff
     18c:	ffffffff 			; <UNDEFINED> instruction: 0xffffffff
     190:	ffffffff 			; <UNDEFINED> instruction: 0xffffffff
     194:	ffffffff 			; <UNDEFINED> instruction: 0xffffffff
     198:	ffffffff 			; <UNDEFINED> instruction: 0xffffffff
     19c:	ffffffff 			; <UNDEFINED> instruction: 0xffffffff
     1a0:	ffffffff 			; <UNDEFINED> instruction: 0xffffffff
     1a4:	ffffffff 			; <UNDEFINED> instruction: 0xffffffff
     1a8:	ffffffff 			; <UNDEFINED> instruction: 0xffffffff
     1ac:	ffffffff 			; <UNDEFINED> instruction: 0xffffffff
     1b0:	ffffffff 			; <UNDEFINED> instruction: 0xffffffff
     1b4:	ffffffff 			; <UNDEFINED> instruction: 0xffffffff
     1b8:	ffffffff 			; <UNDEFINED> instruction: 0xffffffff
     1bc:	ffffffff 			; <UNDEFINED> instruction: 0xffffffff
     1c0:	ffffffff 			; <UNDEFINED> instruction: 0xffffffff
     1c4:	ffffffff 			; <UNDEFINED> instruction: 0xffffffff
     1c8:	ffffffff 			; <UNDEFINED> instruction: 0xffffffff
     1cc:	ffffffff 			; <UNDEFINED> instruction: 0xffffffff
     1d0:	ffffffff 			; <UNDEFINED> instruction: 0xffffffff
     1d4:	ffffffff 			; <UNDEFINED> instruction: 0xffffffff
     1d8:	ffffffff 			; <UNDEFINED> instruction: 0xffffffff
     1dc:	ffffffff 			; <UNDEFINED> instruction: 0xffffffff
     1e0:	ffffffff 			; <UNDEFINED> instruction: 0xffffffff
     1e4:	ffffffff 			; <UNDEFINED> instruction: 0xffffffff
     1e8:	ffffffff 			; <UNDEFINED> instruction: 0xffffffff
     1ec:	ffffffff 			; <UNDEFINED> instruction: 0xffffffff
     1f0:	ffffffff 			; <UNDEFINED> instruction: 0xffffffff
     1f4:	ffffffff 			; <UNDEFINED> instruction: 0xffffffff
     1f8:	ffffffff 			; <UNDEFINED> instruction: 0xffffffff
     1fc:	ffffffff 			; <UNDEFINED> instruction: 0xffffffff
     200:	ffffffff 			; <UNDEFINED> instruction: 0xffffffff
     204:	ffffffff 			; <UNDEFINED> instruction: 0xffffffff
     208:	ffffffff 			; <UNDEFINED> instruction: 0xffffffff
     20c:	ffffffff 			; <UNDEFINED> instruction: 0xffffffff
     210:	ffffffff 			; <UNDEFINED> instruction: 0xffffffff
     214:	ffffffff 			; <UNDEFINED> instruction: 0xffffffff
     218:	ffffffff 			; <UNDEFINED> instruction: 0xffffffff
     21c:	ffffffff 			; <UNDEFINED> instruction: 0xffffffff
     220:	ffffffff 			; <UNDEFINED> instruction: 0xffffffff
     224:	ffffffff 			; <UNDEFINED> instruction: 0xffffffff
     228:	ffffffff 			; <UNDEFINED> instruction: 0xffffffff
     22c:	ffffffff 			; <UNDEFINED> instruction: 0xffffffff
     230:	ffffffff 			; <UNDEFINED> instruction: 0xffffffff
     234:	ffffffff 			; <UNDEFINED> instruction: 0xffffffff
     238:	ffffffff 			; <UNDEFINED> instruction: 0xffffffff
     23c:	ffffffff 			; <UNDEFINED> instruction: 0xffffffff
     240:	ffffffff 			; <UNDEFINED> instruction: 0xffffffff
     244:	ffffffff 			; <UNDEFINED> instruction: 0xffffffff
     248:	ffffffff 			; <UNDEFINED> instruction: 0xffffffff
     24c:	ffffffff 			; <UNDEFINED> instruction: 0xffffffff
     250:	ffffffff 			; <UNDEFINED> instruction: 0xffffffff
     254:	ffffffff 			; <UNDEFINED> instruction: 0xffffffff
     258:	ffffffff 			; <UNDEFINED> instruction: 0xffffffff
     25c:	ffffffff 			; <UNDEFINED> instruction: 0xffffffff
     260:	ffffffff 			; <UNDEFINED> instruction: 0xffffffff
     264:	ffffffff 			; <UNDEFINED> instruction: 0xffffffff
     268:	ffffffff 			; <UNDEFINED> instruction: 0xffffffff
     26c:	ffffffff 			; <UNDEFINED> instruction: 0xffffffff
     270:	ffffffff 			; <UNDEFINED> instruction: 0xffffffff
     274:	ffffffff 			; <UNDEFINED> instruction: 0xffffffff
     278:	ffffffff 			; <UNDEFINED> instruction: 0xffffffff
     27c:	ffffffff 			; <UNDEFINED> instruction: 0xffffffff
     280:	ffffffff 			; <UNDEFINED> instruction: 0xffffffff
     284:	ffffffff 			; <UNDEFINED> instruction: 0xffffffff
     288:	ffffffff 			; <UNDEFINED> instruction: 0xffffffff
     28c:	ffffffff 			; <UNDEFINED> instruction: 0xffffffff
     290:	ffffffff 			; <UNDEFINED> instruction: 0xffffffff
     294:	ffffffff 			; <UNDEFINED> instruction: 0xffffffff
     298:	ffffffff 			; <UNDEFINED> instruction: 0xffffffff
     29c:	ffffffff 			; <UNDEFINED> instruction: 0xffffffff
     2a0:	ffffffff 			; <UNDEFINED> instruction: 0xffffffff
     2a4:	ffffffff 			; <UNDEFINED> instruction: 0xffffffff
     2a8:	ffffffff 			; <UNDEFINED> instruction: 0xffffffff
     2ac:	ffffffff 			; <UNDEFINED> instruction: 0xffffffff
     2b0:	ffffffff 			; <UNDEFINED> instruction: 0xffffffff
     2b4:	ffffffff 			; <UNDEFINED> instruction: 0xffffffff
     2b8:	ffffffff 			; <UNDEFINED> instruction: 0xffffffff
     2bc:	ffffffff 			; <UNDEFINED> instruction: 0xffffffff
     2c0:	ffffffff 			; <UNDEFINED> instruction: 0xffffffff
     2c4:	ffffffff 			; <UNDEFINED> instruction: 0xffffffff
     2c8:	ffffffff 			; <UNDEFINED> instruction: 0xffffffff
     2cc:	ffffffff 			; <UNDEFINED> instruction: 0xffffffff
     2d0:	ffffffff 			; <UNDEFINED> instruction: 0xffffffff
     2d4:	ffffffff 			; <UNDEFINED> instruction: 0xffffffff
     2d8:	ffffffff 			; <UNDEFINED> instruction: 0xffffffff
     2dc:	ffffffff 			; <UNDEFINED> instruction: 0xffffffff
     2e0:	ffffffff 			; <UNDEFINED> instruction: 0xffffffff
     2e4:	ffffffff 			; <UNDEFINED> instruction: 0xffffffff
     2e8:	ffffffff 			; <UNDEFINED> instruction: 0xffffffff
     2ec:	ffffffff 			; <UNDEFINED> instruction: 0xffffffff
     2f0:	ffffffff 			; <UNDEFINED> instruction: 0xffffffff
     2f4:	ffffffff 			; <UNDEFINED> instruction: 0xffffffff
     2f8:	ffffffff 			; <UNDEFINED> instruction: 0xffffffff
     2fc:	ffffffff 			; <UNDEFINED> instruction: 0xffffffff
     300:	ffffffff 			; <UNDEFINED> instruction: 0xffffffff
     304:	ffffffff 			; <UNDEFINED> instruction: 0xffffffff
     308:	ffffffff 			; <UNDEFINED> instruction: 0xffffffff
     30c:	ffffffff 			; <UNDEFINED> instruction: 0xffffffff
     310:	ffffffff 			; <UNDEFINED> instruction: 0xffffffff
     314:	ffffffff 			; <UNDEFINED> instruction: 0xffffffff
     318:	ffffffff 			; <UNDEFINED> instruction: 0xffffffff
     31c:	ffffffff 			; <UNDEFINED> instruction: 0xffffffff
     320:	ffffffff 			; <UNDEFINED> instruction: 0xffffffff
     324:	ffffffff 			; <UNDEFINED> instruction: 0xffffffff
     328:	ffffffff 			; <UNDEFINED> instruction: 0xffffffff
     32c:	ffffffff 			; <UNDEFINED> instruction: 0xffffffff
     330:	ffffffff 			; <UNDEFINED> instruction: 0xffffffff
     334:	ffffffff 			; <UNDEFINED> instruction: 0xffffffff
     338:	ffffffff 			; <UNDEFINED> instruction: 0xffffffff
     33c:	ffffffff 			; <UNDEFINED> instruction: 0xffffffff
     340:	ffffffff 			; <UNDEFINED> instruction: 0xffffffff
     344:	ffffffff 			; <UNDEFINED> instruction: 0xffffffff
     348:	ffffffff 			; <UNDEFINED> instruction: 0xffffffff
     34c:	ffffffff 			; <UNDEFINED> instruction: 0xffffffff
     350:	ffffffff 			; <UNDEFINED> instruction: 0xffffffff
     354:	ffffffff 			; <UNDEFINED> instruction: 0xffffffff
     358:	ffffffff 			; <UNDEFINED> instruction: 0xffffffff
     35c:	ffffffff 			; <UNDEFINED> instruction: 0xffffffff
     360:	ffffffff 			; <UNDEFINED> instruction: 0xffffffff
     364:	ffffffff 			; <UNDEFINED> instruction: 0xffffffff
     368:	ffffffff 			; <UNDEFINED> instruction: 0xffffffff
     36c:	ffffffff 			; <UNDEFINED> instruction: 0xffffffff
     370:	ffffffff 			; <UNDEFINED> instruction: 0xffffffff
     374:	ffffffff 			; <UNDEFINED> instruction: 0xffffffff
     378:	ffffffff 			; <UNDEFINED> instruction: 0xffffffff
     37c:	ffffffff 			; <UNDEFINED> instruction: 0xffffffff
     380:	ffffffff 			; <UNDEFINED> instruction: 0xffffffff
     384:	ffffffff 			; <UNDEFINED> instruction: 0xffffffff
     388:	ffffffff 			; <UNDEFINED> instruction: 0xffffffff
     38c:	ffffffff 			; <UNDEFINED> instruction: 0xffffffff
     390:	ffffffff 			; <UNDEFINED> instruction: 0xffffffff
     394:	ffffffff 			; <UNDEFINED> instruction: 0xffffffff
     398:	ffffffff 			; <UNDEFINED> instruction: 0xffffffff
     39c:	ffffffff 			; <UNDEFINED> instruction: 0xffffffff
     3a0:	ffffffff 			; <UNDEFINED> instruction: 0xffffffff
     3a4:	ffffffff 			; <UNDEFINED> instruction: 0xffffffff
     3a8:	ffffffff 			; <UNDEFINED> instruction: 0xffffffff
     3ac:	ffffffff 			; <UNDEFINED> instruction: 0xffffffff
     3b0:	ffffffff 			; <UNDEFINED> instruction: 0xffffffff
     3b4:	ffffffff 			; <UNDEFINED> instruction: 0xffffffff
     3b8:	ffffffff 			; <UNDEFINED> instruction: 0xffffffff
     3bc:	ffffffff 			; <UNDEFINED> instruction: 0xffffffff
     3c0:	ffffffff 			; <UNDEFINED> instruction: 0xffffffff
     3c4:	ffffffff 			; <UNDEFINED> instruction: 0xffffffff
     3c8:	ffffffff 			; <UNDEFINED> instruction: 0xffffffff
     3cc:	ffffffff 			; <UNDEFINED> instruction: 0xffffffff
     3d0:	ffffffff 			; <UNDEFINED> instruction: 0xffffffff
     3d4:	ffffffff 			; <UNDEFINED> instruction: 0xffffffff
     3d8:	ffffffff 			; <UNDEFINED> instruction: 0xffffffff
     3dc:	ffffffff 			; <UNDEFINED> instruction: 0xffffffff
     3e0:	ffffffff 			; <UNDEFINED> instruction: 0xffffffff
     3e4:	ffffffff 			; <UNDEFINED> instruction: 0xffffffff
     3e8:	ffffffff 			; <UNDEFINED> instruction: 0xffffffff
     3ec:	ffffffff 			; <UNDEFINED> instruction: 0xffffffff
     3f0:	ffffffff 			; <UNDEFINED> instruction: 0xffffffff
     3f4:	ffffffff 			; <UNDEFINED> instruction: 0xffffffff
     3f8:	ffffffff 			; <UNDEFINED> instruction: 0xffffffff
     3fc:	ffffffff 			; <UNDEFINED> instruction: 0xffffffff
     400:	ffffffff 			; <UNDEFINED> instruction: 0xffffffff
     404:	ffffffff 			; <UNDEFINED> instruction: 0xffffffff
     408:	ffffffff 			; <UNDEFINED> instruction: 0xffffffff
     40c:	ffffffff 			; <UNDEFINED> instruction: 0xffffffff

00000410 <CoreDictionaryAnfang>:
     410:	000006b4 			; <UNDEFINED> instruction: 0x000006b4
     414:	2d1effff 	ldccs	15, cr15, [lr, #-1020]	; 0xfffffc04
     418:	4d202d2d 	stcmi	13, cr2, [r0, #-180]!	; 0xffffff4c
     41c:	69726365 	ldmdbvs	r2!, {r0, r2, r5, r6, r8, r9, sp, lr}^
     420:	532d7073 	teqpl	sp, #115	; 0x73
     424:	6c6c6574 	cfstr64vs	mvdx6, [ip], #-464	; 0xfffffe30
     428:	73697261 	cmnvc	r9, #268435462	; 0x10000006
     42c:	726f4320 	rsbvc	r4, pc, #-2147483648	; 0x80000000
     430:	2d2d2065 	stccs	0, cr2, [sp, #-404]!	; 0xfffffe6c
     434:	b507002d 	strlt	r0, [r7, #-45]	; 0x2d

00000436 <Code_28>:
     436:	b507      	push	{r0, r1, r2, lr}
     438:	4850      	ldr	r0, [pc, #320]	; (57c <generiere_konstante_common+0x2a>)
     43a:	2b00      	cmp	r3, #0
     43c:	d009      	beq.n	452 <Code_28+0x1c>
     43e:	f000 f82e 	bl	49e <free_3os_element>
     442:	f000 f834 	bl	4ae <elemente_einen_weiterrutschen_lassen>
     446:	f000 f81e 	bl	486 <nget_faltkonstante>
     44a:	6142      	str	r2, [r0, #20]
     44c:	2128      	movs	r1, #40	; 0x28
     44e:	6101      	str	r1, [r0, #16]
     450:	e7f3      	b.n	43a <Code_28+0x4>
     452:	bd07      	pop	{r0, r1, r2, pc}

00000454 <nfaltkonstanten_aufschwimmen>:
     454:	b507      	push	{r0, r1, r2, lr}
     456:	4849      	ldr	r0, [pc, #292]	; (57c <generiere_konstante_common+0x2a>)
     458:	6901      	ldr	r1, [r0, #16]
     45a:	2928      	cmp	r1, #40	; 0x28
     45c:	d105      	bne.n	46a <nfaltkonstanten_aufschwimmen+0x16>
     45e:	6942      	ldr	r2, [r0, #20]
     460:	f000 f804 	bl	46c <npush_faltkonstante>
     464:	f000 f8f2 	bl	64c <eliminiere_tos>
     468:	e7f6      	b.n	458 <nfaltkonstanten_aufschwimmen+0x4>
     46a:	bd07      	pop	{r0, r1, r2, pc}

0000046c <npush_faltkonstante>:
     46c:	b503      	push	{r0, r1, lr}
     46e:	3f04      	subs	r7, #4
     470:	603e      	str	r6, [r7, #0]
     472:	0016      	movs	r6, r2
     474:	3f04      	subs	r7, #4
     476:	603e      	str	r6, [r7, #0]
     478:	001e      	movs	r6, r3
     47a:	b408      	push	{r3}
     47c:	f000 fee4 	bl	1248 <Code_219>
     480:	bc08      	pop	{r3}
     482:	3301      	adds	r3, #1
     484:	bd03      	pop	{r0, r1, pc}

00000486 <nget_faltkonstante>:
     486:	b503      	push	{r0, r1, lr}
     488:	3b01      	subs	r3, #1
     48a:	3f04      	subs	r7, #4
     48c:	603e      	str	r6, [r7, #0]
     48e:	001e      	movs	r6, r3
     490:	b408      	push	{r3}
     492:	f000 fec3 	bl	121c <Code_217>
     496:	bc08      	pop	{r3}
     498:	0032      	movs	r2, r6
     49a:	cf40      	ldmia	r7!, {r6}
     49c:	bd03      	pop	{r0, r1, pc}

0000049e <free_3os_element>:
     49e:	b503      	push	{r0, r1, lr}
     4a0:	4837      	ldr	r0, [pc, #220]	; (580 <generiere_konstante_common+0x2e>)
     4a2:	6801      	ldr	r1, [r0, #0]
     4a4:	291e      	cmp	r1, #30
     4a6:	d001      	beq.n	4ac <free_3os_element+0xe>
     4a8:	f000 f816 	bl	4d8 <element_to_stack>
     4ac:	bd03      	pop	{r0, r1, pc}

000004ae <elemente_einen_weiterrutschen_lassen>:
     4ae:	6981      	ldr	r1, [r0, #24]
     4b0:	6201      	str	r1, [r0, #32]
     4b2:	6901      	ldr	r1, [r0, #16]
     4b4:	6181      	str	r1, [r0, #24]
     4b6:	69c1      	ldr	r1, [r0, #28]
     4b8:	6241      	str	r1, [r0, #36]	; 0x24
     4ba:	6941      	ldr	r1, [r0, #20]
     4bc:	61c1      	str	r1, [r0, #28]
     4be:	211e      	movs	r1, #30
     4c0:	6101      	str	r1, [r0, #16]
     4c2:	4770      	bx	lr

000004c4 <befreie_tos>:
     4c4:	b50f      	push	{r0, r1, r2, r3, lr}
     4c6:	482d      	ldr	r0, [pc, #180]	; (57c <generiere_konstante_common+0x2a>)
     4c8:	6901      	ldr	r1, [r0, #16]
     4ca:	291e      	cmp	r1, #30
     4cc:	d003      	beq.n	4d6 <befreie_tos+0x12>
     4ce:	f7ff ffe6 	bl	49e <free_3os_element>
     4d2:	f7ff ffec 	bl	4ae <elemente_einen_weiterrutschen_lassen>
     4d6:	bd0f      	pop	{r0, r1, r2, r3, pc}

000004d8 <element_to_stack>:
     4d8:	b508      	push	{r3, lr}
     4da:	6801      	ldr	r1, [r0, #0]
     4dc:	221e      	movs	r2, #30
     4de:	6002      	str	r2, [r0, #0]
     4e0:	2908      	cmp	r1, #8
     4e2:	d20b      	bcs.n	4fc <element_to_stack+0x24>
     4e4:	3f04      	subs	r7, #4
     4e6:	603e      	str	r6, [r7, #0]
     4e8:	4e26      	ldr	r6, [pc, #152]	; (584 <generiere_konstante_common+0x32>)
     4ea:	f002 ff74 	bl	33d6 <Code_793>
     4ee:	3f04      	subs	r7, #4
     4f0:	603e      	str	r6, [r7, #0]
     4f2:	4e25      	ldr	r6, [pc, #148]	; (588 <generiere_konstante_common+0x36>)
     4f4:	430e      	orrs	r6, r1
     4f6:	f002 ff6e 	bl	33d6 <Code_793>
     4fa:	bd08      	pop	{r3, pc}
     4fc:	2928      	cmp	r1, #40	; 0x28
     4fe:	d10d      	bne.n	51c <element_to_stack+0x44>
     500:	3f04      	subs	r7, #4
     502:	603e      	str	r6, [r7, #0]
     504:	4e1f      	ldr	r6, [pc, #124]	; (584 <generiere_konstante_common+0x32>)
     506:	f002 ff66 	bl	33d6 <Code_793>
     50a:	6843      	ldr	r3, [r0, #4]
     50c:	f000 f807 	bl	51e <generiere_konstante>
     510:	3f04      	subs	r7, #4
     512:	603e      	str	r6, [r7, #0]
     514:	4e1c      	ldr	r6, [pc, #112]	; (588 <generiere_konstante_common+0x36>)
     516:	431e      	orrs	r6, r3
     518:	f002 ff5d 	bl	33d6 <Code_793>
     51c:	bd08      	pop	{r3, pc}

0000051e <generiere_konstante>:
     51e:	b507      	push	{r0, r1, r2, lr}
     520:	f000 f817 	bl	552 <generiere_konstante_common>
     524:	6043      	str	r3, [r0, #4]
     526:	2128      	movs	r1, #40	; 0x28
     528:	6001      	str	r1, [r0, #0]
     52a:	2300      	movs	r3, #0
     52c:	3f04      	subs	r7, #4
     52e:	603e      	str	r6, [r7, #0]
     530:	001e      	movs	r6, r3
     532:	f002 fbb9 	bl	2ca8 <Code_649>
     536:	bd07      	pop	{r0, r1, r2, pc}

00000538 <generiere_adresskonstante>:
     538:	b507      	push	{r0, r1, r2, lr}
     53a:	f000 f80a 	bl	552 <generiere_konstante_common>
     53e:	60c3      	str	r3, [r0, #12]
     540:	2128      	movs	r1, #40	; 0x28
     542:	6081      	str	r1, [r0, #8]
     544:	2301      	movs	r3, #1
     546:	3f04      	subs	r7, #4
     548:	603e      	str	r6, [r7, #0]
     54a:	001e      	movs	r6, r3
     54c:	f002 fbac 	bl	2ca8 <Code_649>
     550:	bd07      	pop	{r0, r1, r2, pc}

00000552 <generiere_konstante_common>:
     552:	480a      	ldr	r0, [pc, #40]	; (57c <generiere_konstante_common+0x2a>)
     554:	6801      	ldr	r1, [r0, #0]
     556:	291e      	cmp	r1, #30
     558:	d004      	beq.n	564 <generiere_konstante_common+0x12>
     55a:	6841      	ldr	r1, [r0, #4]
     55c:	4299      	cmp	r1, r3
     55e:	d101      	bne.n	564 <generiere_konstante_common+0x12>
     560:	2300      	movs	r3, #0
     562:	bd07      	pop	{r0, r1, r2, pc}
     564:	6881      	ldr	r1, [r0, #8]
     566:	291e      	cmp	r1, #30
     568:	d004      	beq.n	574 <generiere_konstante_common+0x22>
     56a:	68c1      	ldr	r1, [r0, #12]
     56c:	4299      	cmp	r1, r3
     56e:	d101      	bne.n	574 <generiere_konstante_common+0x22>
     570:	2301      	movs	r3, #1
     572:	bd07      	pop	{r0, r1, r2, pc}
     574:	3f04      	subs	r7, #4
     576:	603e      	str	r6, [r7, #0]
     578:	001e      	movs	r6, r3
     57a:	4770      	bx	lr
     57c:	1ffff028 	svcne	0x00fff028
     580:	1ffff048 	svcne	0x00fff048
     584:	00003f04 	andeq	r3, r0, r4, lsl #30
     588:	00006038 	andeq	r6, r0, r8, lsr r0

0000058c <get_free_register>:
     58c:	b507      	push	{r0, r1, r2, lr}
     58e:	4821      	ldr	r0, [pc, #132]	; (614 <expect_three_elements+0x18>)
     590:	6901      	ldr	r1, [r0, #16]
     592:	6982      	ldr	r2, [r0, #24]
     594:	6a03      	ldr	r3, [r0, #32]
     596:	2906      	cmp	r1, #6
     598:	d005      	beq.n	5a6 <get_free_register+0x1a>
     59a:	2a06      	cmp	r2, #6
     59c:	d003      	beq.n	5a6 <get_free_register+0x1a>
     59e:	2b06      	cmp	r3, #6
     5a0:	d001      	beq.n	5a6 <get_free_register+0x1a>
     5a2:	2306      	movs	r3, #6
     5a4:	bd07      	pop	{r0, r1, r2, pc}
     5a6:	2903      	cmp	r1, #3
     5a8:	d005      	beq.n	5b6 <get_free_register+0x2a>
     5aa:	2a03      	cmp	r2, #3
     5ac:	d003      	beq.n	5b6 <get_free_register+0x2a>
     5ae:	2b03      	cmp	r3, #3
     5b0:	d001      	beq.n	5b6 <get_free_register+0x2a>
     5b2:	2303      	movs	r3, #3
     5b4:	bd07      	pop	{r0, r1, r2, pc}
     5b6:	2302      	movs	r3, #2
     5b8:	bd07      	pop	{r0, r1, r2, pc}

000005ba <fill_element_from_stack>:
     5ba:	b500      	push	{lr}
     5bc:	f7ff ffe6 	bl	58c <get_free_register>
     5c0:	6003      	str	r3, [r0, #0]
     5c2:	2101      	movs	r1, #1
     5c4:	4099      	lsls	r1, r3
     5c6:	3f04      	subs	r7, #4
     5c8:	603e      	str	r6, [r7, #0]
     5ca:	4e13      	ldr	r6, [pc, #76]	; (618 <expect_three_elements+0x1c>)
     5cc:	430e      	orrs	r6, r1
     5ce:	f002 ff02 	bl	33d6 <Code_793>
     5d2:	bd00      	pop	{pc}

000005d4 <expect_one_element>:
     5d4:	b50f      	push	{r0, r1, r2, r3, lr}
     5d6:	480f      	ldr	r0, [pc, #60]	; (614 <expect_three_elements+0x18>)
     5d8:	6901      	ldr	r1, [r0, #16]
     5da:	291e      	cmp	r1, #30
     5dc:	d102      	bne.n	5e4 <expect_one_element+0x10>
     5de:	480f      	ldr	r0, [pc, #60]	; (61c <expect_three_elements+0x20>)
     5e0:	f7ff ffeb 	bl	5ba <fill_element_from_stack>
     5e4:	bd0f      	pop	{r0, r1, r2, r3, pc}

000005e6 <expect_two_elements>:
     5e6:	b50f      	push	{r0, r1, r2, r3, lr}
     5e8:	480a      	ldr	r0, [pc, #40]	; (614 <expect_three_elements+0x18>)
     5ea:	6981      	ldr	r1, [r0, #24]
     5ec:	291e      	cmp	r1, #30
     5ee:	d104      	bne.n	5fa <expect_two_elements+0x14>
     5f0:	f7ff fff0 	bl	5d4 <expect_one_element>
     5f4:	480a      	ldr	r0, [pc, #40]	; (620 <expect_three_elements+0x24>)
     5f6:	f7ff ffe0 	bl	5ba <fill_element_from_stack>
     5fa:	bd0f      	pop	{r0, r1, r2, r3, pc}

000005fc <expect_three_elements>:
     5fc:	b50f      	push	{r0, r1, r2, r3, lr}
     5fe:	4805      	ldr	r0, [pc, #20]	; (614 <expect_three_elements+0x18>)
     600:	6a01      	ldr	r1, [r0, #32]
     602:	291e      	cmp	r1, #30
     604:	d104      	bne.n	610 <expect_three_elements+0x14>
     606:	f7ff ffee 	bl	5e6 <expect_two_elements>
     60a:	4806      	ldr	r0, [pc, #24]	; (624 <expect_three_elements+0x28>)
     60c:	f7ff ffd5 	bl	5ba <fill_element_from_stack>
     610:	bd0f      	pop	{r0, r1, r2, r3, pc}
     612:	f0280000 			; <UNDEFINED> instruction: 0xf0280000
     616:	cf001fff 	svcgt	0x00001fff
     61a:	f0380000 			; <UNDEFINED> instruction: 0xf0380000
     61e:	f0401fff 			; <UNDEFINED> instruction: 0xf0401fff
     622:	f0481fff 			; <UNDEFINED> instruction: 0xf0481fff
     626:	b5001fff 	strlt	r1, [r0, #-4095]	; 0xfff

00000628 <expect_tos_in_register>:
     628:	b500      	push	{lr}
     62a:	6901      	ldr	r1, [r0, #16]
     62c:	2928      	cmp	r1, #40	; 0x28
     62e:	d103      	bne.n	638 <expect_tos_in_register+0x10>
     630:	6943      	ldr	r3, [r0, #20]
     632:	f7ff ff74 	bl	51e <generiere_konstante>
     636:	0019      	movs	r1, r3
     638:	bd00      	pop	{pc}

0000063a <expect_nos_in_register>:
     63a:	b500      	push	{lr}
     63c:	6981      	ldr	r1, [r0, #24]
     63e:	2928      	cmp	r1, #40	; 0x28
     640:	d103      	bne.n	64a <expect_nos_in_register+0x10>
     642:	69c3      	ldr	r3, [r0, #28]
     644:	f7ff ff6b 	bl	51e <generiere_konstante>
     648:	0019      	movs	r1, r3
     64a:	bd00      	pop	{pc}

0000064c <eliminiere_tos>:
     64c:	b503      	push	{r0, r1, lr}
     64e:	4842      	ldr	r0, [pc, #264]	; (758 <alloc_unkommutativ_ohneregister+0x3a>)
     650:	6981      	ldr	r1, [r0, #24]
     652:	6101      	str	r1, [r0, #16]
     654:	69c1      	ldr	r1, [r0, #28]
     656:	6141      	str	r1, [r0, #20]
     658:	e001      	b.n	65e <eliminiere_nos+0x4>

0000065a <eliminiere_nos>:
     65a:	b503      	push	{r0, r1, lr}
     65c:	483e      	ldr	r0, [pc, #248]	; (758 <alloc_unkommutativ_ohneregister+0x3a>)
     65e:	6a01      	ldr	r1, [r0, #32]
     660:	6181      	str	r1, [r0, #24]
     662:	6a41      	ldr	r1, [r0, #36]	; 0x24
     664:	61c1      	str	r1, [r0, #28]
     666:	211e      	movs	r1, #30
     668:	6201      	str	r1, [r0, #32]
     66a:	bd03      	pop	{r0, r1, pc}

0000066c <nos_change_tos_away_later>:
     66c:	b50e      	push	{r1, r2, r3, lr}
     66e:	6982      	ldr	r2, [r0, #24]
     670:	6a03      	ldr	r3, [r0, #32]
     672:	429a      	cmp	r2, r3
     674:	d10a      	bne.n	68c <nos_change_tos_away_later+0x20>
     676:	2a07      	cmp	r2, #7
     678:	d808      	bhi.n	68c <nos_change_tos_away_later+0x20>
     67a:	3f04      	subs	r7, #4
     67c:	603e      	str	r6, [r7, #0]
     67e:	00d6      	lsls	r6, r2, #3
     680:	f7ff ff84 	bl	58c <get_free_register>
     684:	431e      	orrs	r6, r3
     686:	6183      	str	r3, [r0, #24]
     688:	f002 fea5 	bl	33d6 <Code_793>
     68c:	bd0e      	pop	{r1, r2, r3, pc}

0000068e <make_tos_changeable>:
     68e:	b50e      	push	{r1, r2, r3, lr}
     690:	6901      	ldr	r1, [r0, #16]
     692:	6982      	ldr	r2, [r0, #24]
     694:	6a03      	ldr	r3, [r0, #32]
     696:	4291      	cmp	r1, r2
     698:	d002      	beq.n	6a0 <make_tos_changeable+0x12>
     69a:	4299      	cmp	r1, r3
     69c:	d000      	beq.n	6a0 <make_tos_changeable+0x12>
     69e:	bd0e      	pop	{r1, r2, r3, pc}
     6a0:	3f04      	subs	r7, #4
     6a2:	603e      	str	r6, [r7, #0]
     6a4:	00ce      	lsls	r6, r1, #3
     6a6:	f7ff ff71 	bl	58c <get_free_register>
     6aa:	431e      	orrs	r6, r3
     6ac:	6103      	str	r3, [r0, #16]
     6ae:	f002 fe92 	bl	33d6 <Code_793>
     6b2:	bd0e      	pop	{r1, r2, r3, pc}

000006b4 <Dictionary_54>:
     6b4:	0000075c 	andeq	r0, r0, ip, asr r7
     6b8:	61090000 	mrsvs	r0, (UNDEF: 9)
     6bc:	636f6c6c 	cmnvs	pc, #27648	; 0x6c00
     6c0:	726f7461 	rsbvc	r7, pc, #1627389952	; 0x61000000

000006c4 <Code_54>:
     6c4:	b50f      	push	{r0, r1, r2, r3, lr}
     6c6:	0010      	movs	r0, r2
     6c8:	f002 fca1 	bl	300e <suchedefinitionsende>
     6cc:	0002      	movs	r2, r0
     6ce:	3f04      	subs	r7, #4
     6d0:	603e      	str	r6, [r7, #0]
     6d2:	8816      	ldrh	r6, [r2, #0]
     6d4:	0b09      	lsrs	r1, r1, #12
     6d6:	4820      	ldr	r0, [pc, #128]	; (758 <alloc_unkommutativ_ohneregister+0x3a>)
     6d8:	2903      	cmp	r1, #3
     6da:	d006      	beq.n	6ea <alloc_kommutativ_ohneregister>
     6dc:	2904      	cmp	r1, #4
     6de:	d01e      	beq.n	71e <alloc_unkommutativ_ohneregister>
     6e0:	cf40      	ldmia	r7!, {r6}
     6e2:	3201      	adds	r2, #1
     6e4:	4790      	blx	r2
     6e6:	bd0f      	pop	{r0, r1, r2, r3, pc}

000006e8 <alloc_kommutativ>:
     6e8:	b50f      	push	{r0, r1, r2, r3, lr}

000006ea <alloc_kommutativ_ohneregister>:
     6ea:	f7ff ff7c 	bl	5e6 <expect_two_elements>
     6ee:	6901      	ldr	r1, [r0, #16]
     6f0:	2906      	cmp	r1, #6
     6f2:	d101      	bne.n	6f8 <alloc_kommutativ_ohneregister+0xe>
     6f4:	f000 fc96 	bl	1024 <swap_allocator>
     6f8:	6982      	ldr	r2, [r0, #24]
     6fa:	2a28      	cmp	r2, #40	; 0x28
     6fc:	d101      	bne.n	702 <alloc_kommutativ_ohneregister+0x18>
     6fe:	f000 fc91 	bl	1024 <swap_allocator>
     702:	f7ff ffb3 	bl	66c <nos_change_tos_away_later>
     706:	f7ff ff8f 	bl	628 <expect_tos_in_register>
     70a:	00c9      	lsls	r1, r1, #3
     70c:	6982      	ldr	r2, [r0, #24]
     70e:	430e      	orrs	r6, r1
     710:	4316      	orrs	r6, r2
     712:	f002 fe60 	bl	33d6 <Code_793>
     716:	f7ff ff99 	bl	64c <eliminiere_tos>
     71a:	bd0f      	pop	{r0, r1, r2, r3, pc}

0000071c <alloc_unkommutativ>:
     71c:	b50f      	push	{r0, r1, r2, r3, lr}

0000071e <alloc_unkommutativ_ohneregister>:
     71e:	f7ff ff62 	bl	5e6 <expect_two_elements>
     722:	f7ff ffa3 	bl	66c <nos_change_tos_away_later>
     726:	f7ff ff7f 	bl	628 <expect_tos_in_register>
     72a:	6982      	ldr	r2, [r0, #24]
     72c:	2a28      	cmp	r2, #40	; 0x28
     72e:	d10b      	bne.n	748 <alloc_unkommutativ_ohneregister+0x2a>
     730:	3f04      	subs	r7, #4
     732:	603e      	str	r6, [r7, #0]
     734:	69c6      	ldr	r6, [r0, #28]
     736:	f7ff ff29 	bl	58c <get_free_register>
     73a:	6183      	str	r3, [r0, #24]
     73c:	3f04      	subs	r7, #4
     73e:	603e      	str	r6, [r7, #0]
     740:	001e      	movs	r6, r3
     742:	001a      	movs	r2, r3
     744:	f002 fab0 	bl	2ca8 <Code_649>
     748:	00c9      	lsls	r1, r1, #3
     74a:	430e      	orrs	r6, r1
     74c:	4316      	orrs	r6, r2
     74e:	f002 fe42 	bl	33d6 <Code_793>
     752:	f7ff ff7b 	bl	64c <eliminiere_tos>
     756:	bd0f      	pop	{r0, r1, r2, r3, pc}
     758:	1ffff028 	svcne	0x00fff028

0000075c <Dictionary_60>:
     75c:	0000080c 	andeq	r0, r0, ip, lsl #16
     760:	74090000 	strvc	r0, [r9], #-0
     764:	75796469 	ldrbvc	r6, [r9, #-1129]!	; 0x469
     768:	61722d70 	cmnvs	r2, r0, ror sp

0000076c <Code_60>:
     76c:	b500      	push	{lr}
     76e:	f000 f805 	bl	77c <tidyup_register_allocator_3os>
     772:	f000 f808 	bl	786 <tidyup_register_allocator_nos>
     776:	f000 f80b 	bl	790 <tidyup_register_allocator_tos>
     77a:	bd00      	pop	{pc}

0000077c <tidyup_register_allocator_3os>:
     77c:	b50f      	push	{r0, r1, r2, r3, lr}
     77e:	4830      	ldr	r0, [pc, #192]	; (840 <Code_73+0x18>)
     780:	f7ff feaa 	bl	4d8 <element_to_stack>
     784:	bd0f      	pop	{r0, r1, r2, r3, pc}

00000786 <tidyup_register_allocator_nos>:
     786:	b50f      	push	{r0, r1, r2, r3, lr}
     788:	482e      	ldr	r0, [pc, #184]	; (844 <Code_73+0x1c>)
     78a:	f7ff fea5 	bl	4d8 <element_to_stack>
     78e:	bd0f      	pop	{r0, r1, r2, r3, pc}

00000790 <tidyup_register_allocator_tos>:
     790:	b50f      	push	{r0, r1, r2, r3, lr}
     792:	482d      	ldr	r0, [pc, #180]	; (848 <Code_73+0x20>)
     794:	6901      	ldr	r1, [r0, #16]
     796:	2206      	movs	r2, #6
     798:	6102      	str	r2, [r0, #16]
     79a:	291e      	cmp	r1, #30
     79c:	d105      	bne.n	7aa <tidyup_register_allocator_tos+0x1a>
     79e:	3f04      	subs	r7, #4
     7a0:	603e      	str	r6, [r7, #0]
     7a2:	4e2a      	ldr	r6, [pc, #168]	; (84c <Code_73+0x24>)
     7a4:	f002 fe17 	bl	33d6 <Code_793>
     7a8:	e02c      	b.n	804 <tidyup_finish>
     7aa:	2928      	cmp	r1, #40	; 0x28
     7ac:	d121      	bne.n	7f2 <tidyup_register_allocator_tos+0x62>
     7ae:	6943      	ldr	r3, [r0, #20]
     7b0:	6801      	ldr	r1, [r0, #0]
     7b2:	291e      	cmp	r1, #30
     7b4:	d008      	beq.n	7c8 <tidyup_register_allocator_tos+0x38>
     7b6:	6841      	ldr	r1, [r0, #4]
     7b8:	428b      	cmp	r3, r1
     7ba:	d105      	bne.n	7c8 <tidyup_register_allocator_tos+0x38>
     7bc:	3f04      	subs	r7, #4
     7be:	603e      	str	r6, [r7, #0]
     7c0:	4e23      	ldr	r6, [pc, #140]	; (850 <Code_73+0x28>)
     7c2:	f002 fe08 	bl	33d6 <Code_793>
     7c6:	e01d      	b.n	804 <tidyup_finish>
     7c8:	6881      	ldr	r1, [r0, #8]
     7ca:	291e      	cmp	r1, #30
     7cc:	d008      	beq.n	7e0 <tidyup_register_allocator_tos+0x50>
     7ce:	68c1      	ldr	r1, [r0, #12]
     7d0:	428b      	cmp	r3, r1
     7d2:	d105      	bne.n	7e0 <tidyup_register_allocator_tos+0x50>
     7d4:	3f04      	subs	r7, #4
     7d6:	603e      	str	r6, [r7, #0]
     7d8:	4e1e      	ldr	r6, [pc, #120]	; (854 <Code_73+0x2c>)
     7da:	f002 fdfc 	bl	33d6 <Code_793>
     7de:	e011      	b.n	804 <tidyup_finish>
     7e0:	3f04      	subs	r7, #4
     7e2:	603e      	str	r6, [r7, #0]
     7e4:	001e      	movs	r6, r3
     7e6:	3f04      	subs	r7, #4
     7e8:	603e      	str	r6, [r7, #0]
     7ea:	2606      	movs	r6, #6
     7ec:	f002 fa5c 	bl	2ca8 <Code_649>
     7f0:	e008      	b.n	804 <tidyup_finish>
     7f2:	2906      	cmp	r1, #6
     7f4:	d006      	beq.n	804 <tidyup_finish>
     7f6:	3f04      	subs	r7, #4
     7f8:	603e      	str	r6, [r7, #0]
     7fa:	4e15      	ldr	r6, [pc, #84]	; (850 <Code_73+0x28>)
     7fc:	00c9      	lsls	r1, r1, #3
     7fe:	430e      	orrs	r6, r1
     800:	f002 fde9 	bl	33d6 <Code_793>

00000804 <tidyup_finish>:
     804:	f000 f810 	bl	828 <Code_73>
     808:	bd0f      	pop	{r0, r1, r2, r3, pc}
     80a:	46c0      	nop			; (mov r8, r8)

0000080c <Dictionary_73>:
     80c:	00000858 	andeq	r0, r0, r8, asr r8
     810:	69150000 	ldmdbvs	r5, {}	; <UNPREDICTABLE>
     814:	7274696e 	rsbsvc	r6, r4, #1802240	; 0x1b8000
     818:	73696765 	cmnvc	r9, #26476544	; 0x1940000
     81c:	61726574 	cmnvs	r2, r4, ror r5
     820:	636f6c6c 	cmnvs	pc, #27648	; 0x6c00
     824:	726f7461 	rsbvc	r7, pc, #1627389952	; 0x61000000

00000828 <Code_73>:
     828:	4807      	ldr	r0, [pc, #28]	; (848 <Code_73+0x20>)
     82a:	211e      	movs	r1, #30
     82c:	6001      	str	r1, [r0, #0]
     82e:	6081      	str	r1, [r0, #8]
     830:	6201      	str	r1, [r0, #32]
     832:	6181      	str	r1, [r0, #24]
     834:	2106      	movs	r1, #6
     836:	6101      	str	r1, [r0, #16]
     838:	2100      	movs	r1, #0
     83a:	6281      	str	r1, [r0, #40]	; 0x28
     83c:	4770      	bx	lr
     83e:	f0480000 			; <UNDEFINED> instruction: 0xf0480000
     842:	f0401fff 			; <UNDEFINED> instruction: 0xf0401fff
     846:	f0281fff 			; <UNDEFINED> instruction: 0xf0281fff
     84a:	cf401fff 	svcgt	0x00401fff
     84e:	46060000 	strmi	r0, [r6], -r0
     852:	460e0000 	strmi	r0, [lr], -r0
	...

00000858 <Dictionary_74>:
     858:	0000087c 	andeq	r0, r0, ip, ror r8
     85c:	32040242 	andcc	r0, r4, #536870916	; 0x20000004
     860:	00707564 	rsbseq	r7, r0, r4, ror #10

00000864 <Code_74>:
     864:	6838      	ldr	r0, [r7, #0]
     866:	3f04      	subs	r7, #4
     868:	603e      	str	r6, [r7, #0]
     86a:	3f04      	subs	r7, #4
     86c:	6038      	str	r0, [r7, #0]
     86e:	4770      	bx	lr
     870:	b500      	push	{lr}
     872:	f000 fc03 	bl	107c <over_allocator>
     876:	f000 fc01 	bl	107c <over_allocator>
     87a:	bd00      	pop	{pc}

0000087c <Dictionary_76>:
     87c:	0000089c 	muleq	r0, ip, r8
     880:	32050262 	andcc	r0, r5, #536870918	; 0x20000006
     884:	706f7264 	rsbvc	r7, pc, r4, ror #4

00000888 <Code_76>:
     888:	3704      	adds	r7, #4
     88a:	cf40      	ldmia	r7!, {r6}
     88c:	4770      	bx	lr
     88e:	b500      	push	{lr}
     890:	f000 fba4 	bl	fdc <drop_allocator>
     894:	f000 fba2 	bl	fdc <drop_allocator>
     898:	bd00      	pop	{pc}
     89a:	46c0      	nop			; (mov r8, r8)

0000089c <Dictionary_78>:
     89c:	000008bc 			; <UNDEFINED> instruction: 0x000008bc
     8a0:	32050044 	andcc	r0, r5, #68	; 0x44
     8a4:	70617773 	rsbvc	r7, r1, r3, ror r7

000008a8 <Code_78>:
     8a8:	cf07      	ldmia	r7!, {r0, r1, r2}
     8aa:	3f04      	subs	r7, #4
     8ac:	6038      	str	r0, [r7, #0]
     8ae:	3f04      	subs	r7, #4
     8b0:	603e      	str	r6, [r7, #0]
     8b2:	3f04      	subs	r7, #4
     8b4:	603a      	str	r2, [r7, #0]
     8b6:	000e      	movs	r6, r1
     8b8:	4770      	bx	lr
     8ba:	46c0      	nop			; (mov r8, r8)

000008bc <Dictionary_80>:
     8bc:	000008d0 	ldrdeq	r0, [r0], -r0	; <UNPREDICTABLE>
     8c0:	32040062 	andcc	r0, r4, #98	; 0x62
     8c4:	0070696e 	rsbseq	r6, r0, lr, ror #18

000008c8 <Code_80>:
     8c8:	cf07      	ldmia	r7!, {r0, r1, r2}
     8ca:	3f04      	subs	r7, #4
     8cc:	6038      	str	r0, [r7, #0]
     8ce:	4770      	bx	lr

000008d0 <Dictionary_81>:
     8d0:	000008ec 	andeq	r0, r0, ip, ror #17
     8d4:	32050044 	andcc	r0, r5, #68	; 0x44
     8d8:	7265766f 	rsbvc	r7, r5, #116391936	; 0x6f00000

000008dc <Code_81>:
     8dc:	68b8      	ldr	r0, [r7, #8]
     8de:	3f04      	subs	r7, #4
     8e0:	603e      	str	r6, [r7, #0]
     8e2:	3f04      	subs	r7, #4
     8e4:	6038      	str	r0, [r7, #0]
     8e6:	68fe      	ldr	r6, [r7, #12]
     8e8:	4770      	bx	lr
     8ea:	46c0      	nop			; (mov r8, r8)

000008ec <Dictionary_83>:
     8ec:	00000910 	andeq	r0, r0, r0, lsl r9
     8f0:	32050044 	andcc	r0, r5, #68	; 0x44
     8f4:	6b637574 	blvs	18ddecc <BIT24+0x8ddecc>

000008f8 <Code_83>:
     8f8:	cf07      	ldmia	r7!, {r0, r1, r2}
     8fa:	3f04      	subs	r7, #4
     8fc:	6038      	str	r0, [r7, #0]
     8fe:	3f04      	subs	r7, #4
     900:	603e      	str	r6, [r7, #0]
     902:	3f04      	subs	r7, #4
     904:	603a      	str	r2, [r7, #0]
     906:	3f04      	subs	r7, #4
     908:	6039      	str	r1, [r7, #0]
     90a:	3f04      	subs	r7, #4
     90c:	6038      	str	r0, [r7, #0]
     90e:	4770      	bx	lr

00000910 <Dictionary_85>:
     910:	00000934 	andeq	r0, r0, r4, lsr r9
     914:	32040046 	andcc	r0, r4, #70	; 0x46
     918:	00746f72 	rsbseq	r6, r4, r2, ror pc

0000091c <Code_85>:
     91c:	6838      	ldr	r0, [r7, #0]
     91e:	68b9      	ldr	r1, [r7, #8]
     920:	693a      	ldr	r2, [r7, #16]
     922:	60b8      	str	r0, [r7, #8]
     924:	6139      	str	r1, [r7, #16]
     926:	603a      	str	r2, [r7, #0]
     928:	6879      	ldr	r1, [r7, #4]
     92a:	607e      	str	r6, [r7, #4]
     92c:	68fe      	ldr	r6, [r7, #12]
     92e:	60f9      	str	r1, [r7, #12]
     930:	4770      	bx	lr
     932:	46c0      	nop			; (mov r8, r8)

00000934 <Dictionary_86>:
     934:	00000958 	andeq	r0, r0, r8, asr r9
     938:	32050046 	andcc	r0, r5, #70	; 0x46
     93c:	746f722d 	strbtvc	r7, [pc], #-557	; 944 <Code_86+0x4>

00000940 <Code_86>:
     940:	6838      	ldr	r0, [r7, #0]
     942:	68b9      	ldr	r1, [r7, #8]
     944:	693a      	ldr	r2, [r7, #16]
     946:	6138      	str	r0, [r7, #16]
     948:	6039      	str	r1, [r7, #0]
     94a:	60ba      	str	r2, [r7, #8]
     94c:	68f9      	ldr	r1, [r7, #12]
     94e:	60fe      	str	r6, [r7, #12]
     950:	687e      	ldr	r6, [r7, #4]
     952:	6079      	str	r1, [r7, #4]
     954:	4770      	bx	lr
     956:	46c0      	nop			; (mov r8, r8)

00000958 <Dictionary_87>:
     958:	0000097c 	andeq	r0, r0, ip, ror r9
     95c:	32030220 	andcc	r0, r3, #2
     960:	cf01723e 	svcgt	0x0001723e

00000962 <Code_87>:
     962:	cf01      	ldmia	r7!, {r0}
     964:	b401      	push	{r0}
     966:	b440      	push	{r6}
     968:	cf40      	ldmia	r7!, {r6}
     96a:	4770      	bx	lr
     96c:	b500      	push	{lr}
     96e:	f000 fb59 	bl	1024 <swap_allocator>
     972:	f000 fbfd 	bl	1170 <allocator_to_r>
     976:	f000 fbfb 	bl	1170 <allocator_to_r>
     97a:	bd00      	pop	{pc}

0000097c <Dictionary_88>:
     97c:	000009a4 	andeq	r0, r0, r4, lsr #19
     980:	32030220 	andcc	r0, r3, #2
     984:	3f043e72 	svccc	0x00043e72

00000986 <Code_88>:
     986:	3f04      	subs	r7, #4
     988:	603e      	str	r6, [r7, #0]
     98a:	bc40      	pop	{r6}
     98c:	bc01      	pop	{r0}
     98e:	3f04      	subs	r7, #4
     990:	6038      	str	r0, [r7, #0]
     992:	4770      	bx	lr
     994:	b500      	push	{lr}
     996:	f000 fc04 	bl	11a2 <allocator_r_from>
     99a:	f000 fc02 	bl	11a2 <allocator_r_from>
     99e:	f000 fb41 	bl	1024 <swap_allocator>
     9a2:	bd00      	pop	{pc}

000009a4 <Dictionary_90>:
     9a4:	000009d0 	ldrdeq	r0, [r0], -r0	; <UNPREDICTABLE>
     9a8:	32030220 	andcc	r0, r3, #2
     9ac:	3f044072 	svccc	0x00044072

000009ae <Code_90>:
     9ae:	3f04      	subs	r7, #4
     9b0:	603e      	str	r6, [r7, #0]
     9b2:	9e01      	ldr	r6, [sp, #4]
     9b4:	3f04      	subs	r7, #4
     9b6:	603e      	str	r6, [r7, #0]
     9b8:	9e00      	ldr	r6, [sp, #0]
     9ba:	4770      	bx	lr
     9bc:	b500      	push	{lr}
     9be:	3f04      	subs	r7, #4
     9c0:	603e      	str	r6, [r7, #0]
     9c2:	4e0b      	ldr	r6, [pc, #44]	; (9f0 <Code_95+0x12>)
     9c4:	f003 fa23 	bl	3e0e <loop_j_allocator>
     9c8:	f003 fa1e 	bl	3e08 <rfetch_allocator>
     9cc:	bd00      	pop	{pc}
     9ce:	46c0      	nop			; (mov r8, r8)

000009d0 <Dictionary_95>:
     9d0:	000009f8 	strdeq	r0, [r0], -r8
     9d4:	32060220 	andcc	r0, r6, #2
     9d8:	6f726472 	svcvs	0x00726472
     9dc:	b0020070 	andlt	r0, r2, r0, ror r0

000009de <Code_95>:
     9de:	b002      	add	sp, #8
     9e0:	4770      	bx	lr
     9e2:	b500      	push	{lr}
     9e4:	3f04      	subs	r7, #4
     9e6:	603e      	str	r6, [r7, #0]
     9e8:	4e02      	ldr	r6, [pc, #8]	; (9f4 <Code_95+0x16>)
     9ea:	f002 fcf4 	bl	33d6 <Code_793>
     9ee:	bd00      	pop	{pc}
     9f0:	00009801 	andeq	r9, r0, r1, lsl #16
     9f4:	0000b002 	andeq	fp, r0, r2

000009f8 <Dictionary_98>:
     9f8:	00000a10 	andeq	r0, r0, r0, lsl sl
     9fc:	64030042 	strvs	r0, [r3], #-66	; 0x42
     a00:	68382f32 	ldmdavs	r8!, {r1, r4, r5, r8, r9, sl, fp, sp}

00000a02 <Code_98>:
     a02:	6838      	ldr	r0, [r7, #0]
     a04:	07f1      	lsls	r1, r6, #31
     a06:	1076      	asrs	r6, r6, #1
     a08:	0840      	lsrs	r0, r0, #1
     a0a:	4308      	orrs	r0, r1
     a0c:	6038      	str	r0, [r7, #0]
     a0e:	4770      	bx	lr

00000a10 <Dictionary_99>:
     a10:	00000a24 	andeq	r0, r0, r4, lsr #20
     a14:	64030062 	strvs	r0, [r3], #-98	; 0x62
     a18:	68382a32 	ldmdavs	r8!, {r1, r4, r5, r9, fp, sp}

00000a1a <Code_99>:
     a1a:	6838      	ldr	r0, [r7, #0]
     a1c:	1800      	adds	r0, r0, r0
     a1e:	4176      	adcs	r6, r6
     a20:	6038      	str	r0, [r7, #0]
     a22:	4770      	bx	lr

00000a24 <Dictionary_100>:
     a24:	00000a40 	andeq	r0, r0, r0, asr #20
     a28:	64040042 	strvs	r0, [r4], #-66	; 0x42
     a2c:	00726873 	rsbseq	r6, r2, r3, ror r8

00000a30 <Code_100>:
     a30:	6838      	ldr	r0, [r7, #0]
     a32:	07f1      	lsls	r1, r6, #31
     a34:	0876      	lsrs	r6, r6, #1
     a36:	0840      	lsrs	r0, r0, #1
     a38:	4308      	orrs	r0, r1
     a3a:	6038      	str	r0, [r7, #0]
     a3c:	4770      	bx	lr
     a3e:	46c0      	nop			; (mov r8, r8)

00000a40 <Dictionary_101>:
     a40:	00000a58 	andeq	r0, r0, r8, asr sl
     a44:	64040062 	strvs	r0, [r4], #-98	; 0x62
     a48:	006c6873 	rsbeq	r6, ip, r3, ror r8

00000a4c <Code_101>:
     a4c:	6838      	ldr	r0, [r7, #0]
     a4e:	1800      	adds	r0, r0, r0
     a50:	4176      	adcs	r6, r6
     a52:	6038      	str	r0, [r7, #0]
     a54:	4770      	bx	lr
     a56:	46c0      	nop			; (mov r8, r8)

00000a58 <Dictionary_102>:
     a58:	00000a6c 	andeq	r0, r0, ip, ror #20
     a5c:	64040042 	strvs	r0, [r4], #-66	; 0x42
     a60:	00736261 	rsbseq	r6, r3, r1, ror #4

00000a64 <Code_102>:
     a64:	2e00      	cmp	r6, #0
     a66:	d408      	bmi.n	a7a <Code_103>
     a68:	4770      	bx	lr
     a6a:	46c0      	nop			; (mov r8, r8)

00000a6c <Dictionary_103>:
     a6c:	00000a8c 	andeq	r0, r0, ip, lsl #21
     a70:	64070042 	strvs	r0, [r7], #-66	; 0x42
     a74:	6167656e 	cmnvs	r7, lr, ror #10
     a78:	68386574 	ldmdavs	r8!, {r2, r4, r5, r6, r8, sl, sp, lr}

00000a7a <Code_103>:
     a7a:	6838      	ldr	r0, [r7, #0]
     a7c:	2100      	movs	r1, #0
     a7e:	43c0      	mvns	r0, r0
     a80:	43f6      	mvns	r6, r6
     a82:	3001      	adds	r0, #1
     a84:	414e      	adcs	r6, r1
     a86:	6038      	str	r0, [r7, #0]
     a88:	4770      	bx	lr
     a8a:	46c0      	nop			; (mov r8, r8)

00000a8c <Dictionary_104>:
     a8c:	00000aa4 	andeq	r0, r0, r4, lsr #21
     a90:	64020064 	strvs	r0, [r2], #-100	; 0x64
     a94:	cf07002d 	svcgt	0x0007002d

00000a96 <Code_104>:
     a96:	cf07      	ldmia	r7!, {r0, r1, r2}
     a98:	1a12      	subs	r2, r2, r0
     a9a:	41b1      	sbcs	r1, r6
     a9c:	000e      	movs	r6, r1
     a9e:	3f04      	subs	r7, #4
     aa0:	603a      	str	r2, [r7, #0]
     aa2:	4770      	bx	lr

00000aa4 <Dictionary_105>:
     aa4:	00000abc 			; <UNDEFINED> instruction: 0x00000abc
     aa8:	64020064 	strvs	r0, [r2], #-100	; 0x64
     aac:	cf07002b 	svcgt	0x0007002b

00000aae <Code_105>:
     aae:	cf07      	ldmia	r7!, {r0, r1, r2}
     ab0:	1812      	adds	r2, r2, r0
     ab2:	414e      	adcs	r6, r1
     ab4:	3f04      	subs	r7, #4
     ab6:	603a      	str	r2, [r7, #0]
     ab8:	4770      	bx	lr
     aba:	46c0      	nop			; (mov r8, r8)

00000abc <Dictionary_106>:
     abc:	00000adc 	ldrdeq	r0, [r0], -ip
     ac0:	73030261 	movwvc	r0, #12897	; 0x3261
     ac4:	3f04643e 	svccc	0x0004643e

00000ac6 <Code_106>:
     ac6:	3f04      	subs	r7, #4
     ac8:	603e      	str	r6, [r7, #0]
     aca:	17f6      	asrs	r6, r6, #31
     acc:	4770      	bx	lr
     ace:	b500      	push	{lr}
     ad0:	f000 fa72 	bl	fb8 <dup_allocator>
     ad4:	f000 fcd3 	bl	147e <alloc_nullkleiner>
     ad8:	bd00      	pop	{pc}
     ada:	46c0      	nop			; (mov r8, r8)

00000adc <Dictionary_108>:
     adc:	00000b08 	andeq	r0, r0, r8, lsl #22
     ae0:	75030042 	strvc	r0, [r3, #-66]	; 0x42
     ae4:	68382a6d 	ldmdavs	r8!, {r0, r2, r3, r5, r6, r9, fp, sp}

00000ae6 <Code_108>:
     ae6:	6838      	ldr	r0, [r7, #0]
     ae8:	0003      	movs	r3, r0
     aea:	4373      	muls	r3, r6
     aec:	603b      	str	r3, [r7, #0]
     aee:	0c01      	lsrs	r1, r0, #16
     af0:	0c32      	lsrs	r2, r6, #16
     af2:	000b      	movs	r3, r1
     af4:	4353      	muls	r3, r2
     af6:	b2b6      	uxth	r6, r6
     af8:	b280      	uxth	r0, r0
     afa:	434e      	muls	r6, r1
     afc:	4350      	muls	r0, r2
     afe:	1836      	adds	r6, r6, r0
     b00:	0c36      	lsrs	r6, r6, #16
     b02:	18f6      	adds	r6, r6, r3
     b04:	4770      	bx	lr
     b06:	46c0      	nop			; (mov r8, r8)

00000b08 <Dictionary_109>:
     b08:	00000b38 	andeq	r0, r0, r8, lsr fp
     b0c:	6d020042 	stcvs	0, cr0, [r2, #-264]	; 0xfffffef8
     b10:	6838002a 	ldmdavs	r8!, {r1, r3, r5}

00000b12 <Code_109>:
     b12:	6838      	ldr	r0, [r7, #0]
     b14:	17c1      	asrs	r1, r0, #31
     b16:	d005      	beq.n	b24 <Code_109+0x12>
     b18:	4240      	negs	r0, r0
     b1a:	6038      	str	r0, [r7, #0]
     b1c:	17f0      	asrs	r0, r6, #31
     b1e:	d004      	beq.n	b2a <Code_109+0x18>
     b20:	4276      	negs	r6, r6
     b22:	e7e0      	b.n	ae6 <Code_108>
     b24:	17f0      	asrs	r0, r6, #31
     b26:	d0de      	beq.n	ae6 <Code_108>
     b28:	4276      	negs	r6, r6
     b2a:	b500      	push	{lr}
     b2c:	f7ff ffdb 	bl	ae6 <Code_108>
     b30:	f7ff ffa3 	bl	a7a <Code_103>
     b34:	bd00      	pop	{pc}
     b36:	46c0      	nop			; (mov r8, r8)

00000b38 <Dictionary_110>:
     b38:	00000b78 	andeq	r0, r0, r8, ror fp
     b3c:	75030044 	strvc	r0, [r3, #-68]	; 0x44
     b40:	cf072a64 	svcgt	0x00072a64

00000b42 <Code_110>:
     b42:	cf07      	ldmia	r7!, {r0, r1, r2}
     b44:	4356      	muls	r6, r2
     b46:	4341      	muls	r1, r0
     b48:	1876      	adds	r6, r6, r1
     b4a:	0c01      	lsrs	r1, r0, #16
     b4c:	0c13      	lsrs	r3, r2, #16
     b4e:	4359      	muls	r1, r3
     b50:	1876      	adds	r6, r6, r1
     b52:	0c01      	lsrs	r1, r0, #16
     b54:	b280      	uxth	r0, r0
     b56:	b292      	uxth	r2, r2
     b58:	4351      	muls	r1, r2
     b5a:	4343      	muls	r3, r0
     b5c:	4350      	muls	r0, r2
     b5e:	2200      	movs	r2, #0
     b60:	18c9      	adds	r1, r1, r3
     b62:	4152      	adcs	r2, r2
     b64:	0412      	lsls	r2, r2, #16
     b66:	18b6      	adds	r6, r6, r2
     b68:	040a      	lsls	r2, r1, #16
     b6a:	0c09      	lsrs	r1, r1, #16
     b6c:	1880      	adds	r0, r0, r2
     b6e:	414e      	adcs	r6, r1
     b70:	3f04      	subs	r7, #4
     b72:	6038      	str	r0, [r7, #0]
     b74:	4770      	bx	lr
     b76:	46c0      	nop			; (mov r8, r8)

00000b78 <Dictionary_111>:
     b78:	00000c0c 	andeq	r0, r0, ip, lsl #24
     b7c:	75040044 	strvc	r0, [r4, #-68]	; 0x44
     b80:	002a6d64 	eoreq	r6, sl, r4, ror #26

00000b84 <Code_111>:
     b84:	b510      	push	{r4, lr}
     b86:	2400      	movs	r4, #0
     b88:	3f04      	subs	r7, #4
     b8a:	603e      	str	r6, [r7, #0]
     b8c:	687e      	ldr	r6, [r7, #4]
     b8e:	3f04      	subs	r7, #4
     b90:	603e      	str	r6, [r7, #0]
     b92:	693e      	ldr	r6, [r7, #16]
     b94:	f7ff ffa7 	bl	ae6 <Code_108>
     b98:	0031      	movs	r1, r6
     b9a:	cf40      	ldmia	r7!, {r6}
     b9c:	0030      	movs	r0, r6
     b9e:	cf40      	ldmia	r7!, {r6}
     ba0:	3f04      	subs	r7, #4
     ba2:	603e      	str	r6, [r7, #0]
     ba4:	683e      	ldr	r6, [r7, #0]
     ba6:	3f04      	subs	r7, #4
     ba8:	603e      	str	r6, [r7, #0]
     baa:	68fe      	ldr	r6, [r7, #12]
     bac:	b403      	push	{r0, r1}
     bae:	f7ff ff9a 	bl	ae6 <Code_108>
     bb2:	bc03      	pop	{r0, r1}
     bb4:	0033      	movs	r3, r6
     bb6:	cf40      	ldmia	r7!, {r6}
     bb8:	0032      	movs	r2, r6
     bba:	cf40      	ldmia	r7!, {r6}
     bbc:	3f04      	subs	r7, #4
     bbe:	603e      	str	r6, [r7, #0]
     bc0:	683e      	ldr	r6, [r7, #0]
     bc2:	3f04      	subs	r7, #4
     bc4:	603e      	str	r6, [r7, #0]
     bc6:	693e      	ldr	r6, [r7, #16]
     bc8:	b40f      	push	{r0, r1, r2, r3}
     bca:	f7ff ff8c 	bl	ae6 <Code_108>
     bce:	bc0f      	pop	{r0, r1, r2, r3}
     bd0:	1992      	adds	r2, r2, r6
     bd2:	4163      	adcs	r3, r4
     bd4:	cf40      	ldmia	r7!, {r6}
     bd6:	1989      	adds	r1, r1, r6
     bd8:	4162      	adcs	r2, r4
     bda:	4163      	adcs	r3, r4
     bdc:	cf40      	ldmia	r7!, {r6}
     bde:	3f04      	subs	r7, #4
     be0:	603e      	str	r6, [r7, #0]
     be2:	687e      	ldr	r6, [r7, #4]
     be4:	3f04      	subs	r7, #4
     be6:	603e      	str	r6, [r7, #0]
     be8:	68fe      	ldr	r6, [r7, #12]
     bea:	b40f      	push	{r0, r1, r2, r3}
     bec:	f7ff ff7b 	bl	ae6 <Code_108>
     bf0:	bc0f      	pop	{r0, r1, r2, r3}
     bf2:	1992      	adds	r2, r2, r6
     bf4:	4163      	adcs	r3, r4
     bf6:	cf40      	ldmia	r7!, {r6}
     bf8:	1989      	adds	r1, r1, r6
     bfa:	4162      	adcs	r2, r4
     bfc:	4163      	adcs	r3, r4
     bfe:	cf40      	ldmia	r7!, {r6}
     c00:	001e      	movs	r6, r3
     c02:	603a      	str	r2, [r7, #0]
     c04:	6079      	str	r1, [r7, #4]
     c06:	60b8      	str	r0, [r7, #8]
     c08:	bd10      	pop	{r4, pc}
     c0a:	46c0      	nop			; (mov r8, r8)

00000c0c <Dictionary_128>:
     c0c:	00000c30 	andeq	r0, r0, r0, lsr ip
     c10:	2a020043 	bcs	80d24 <BIT19+0xd24>
     c14:	b500002f 	strlt	r0, [r0, #-47]	; 0x2f

00000c16 <Code_128>:
     c16:	b500      	push	{lr}
     c18:	b440      	push	{r6}
     c1a:	cf40      	ldmia	r7!, {r6}
     c1c:	f7ff ff79 	bl	b12 <Code_109>
     c20:	3f04      	subs	r7, #4
     c22:	603e      	str	r6, [r7, #0]
     c24:	bc40      	pop	{r6}
     c26:	f000 f84f 	bl	cc8 <Code_151>
     c2a:	3704      	adds	r7, #4
     c2c:	bd00      	pop	{pc}
     c2e:	46c0      	nop			; (mov r8, r8)

00000c30 <Dictionary_133>:
     c30:	00000c54 	andeq	r0, r0, r4, asr ip
     c34:	2a050043 	bcs	140d48 <BIT20+0x40d48>
     c38:	646f6d2f 	strbtvs	r6, [pc], #-3375	; c40 <Code_133+0x4>

00000c3c <Code_133>:
     c3c:	b500      	push	{lr}
     c3e:	b440      	push	{r6}
     c40:	cf40      	ldmia	r7!, {r6}
     c42:	f7ff ff66 	bl	b12 <Code_109>
     c46:	3f04      	subs	r7, #4
     c48:	603e      	str	r6, [r7, #0]
     c4a:	bc40      	pop	{r6}
     c4c:	f000 f83c 	bl	cc8 <Code_151>
     c50:	bd00      	pop	{pc}
     c52:	46c0      	nop			; (mov r8, r8)

00000c54 <Dictionary_137>:
     c54:	00000c78 	andeq	r0, r0, r8, ror ip
     c58:	75030043 	strvc	r0, [r3, #-67]	; 0x43
     c5c:	b5002f2a 	strlt	r2, [r0, #-3882]	; 0xf2a

00000c5e <Code_137>:
     c5e:	b500      	push	{lr}
     c60:	b440      	push	{r6}
     c62:	cf40      	ldmia	r7!, {r6}
     c64:	f7ff ff3f 	bl	ae6 <Code_108>
     c68:	3f04      	subs	r7, #4
     c6a:	603e      	str	r6, [r7, #0]
     c6c:	bc40      	pop	{r6}
     c6e:	f000 f81c 	bl	caa <Code_146>
     c72:	3704      	adds	r7, #4
     c74:	bd00      	pop	{pc}
     c76:	46c0      	nop			; (mov r8, r8)

00000c78 <Dictionary_142>:
     c78:	00000c9c 	muleq	r0, ip, ip
     c7c:	75060043 	strvc	r0, [r6, #-67]	; 0x43
     c80:	6f6d2f2a 	svcvs	0x006d2f2a
     c84:	b5000064 	strlt	r0, [r0, #-100]	; 0x64

00000c86 <Code_142>:
     c86:	b500      	push	{lr}
     c88:	b440      	push	{r6}
     c8a:	cf40      	ldmia	r7!, {r6}
     c8c:	f7ff ff2b 	bl	ae6 <Code_108>
     c90:	3f04      	subs	r7, #4
     c92:	603e      	str	r6, [r7, #0]
     c94:	bc40      	pop	{r6}
     c96:	f000 f808 	bl	caa <Code_146>
     c9a:	bd00      	pop	{pc}

00000c9c <Dictionary_146>:
     c9c:	00000cbc 			; <UNDEFINED> instruction: 0x00000cbc
     ca0:	75060043 	strvc	r0, [r6, #-67]	; 0x43
     ca4:	6f6d2f6d 	svcvs	0x006d2f6d
     ca8:	b5000064 	strlt	r0, [r0, #-100]	; 0x64

00000caa <Code_146>:
     caa:	b500      	push	{lr}
     cac:	3f04      	subs	r7, #4
     cae:	603e      	str	r6, [r7, #0]
     cb0:	2600      	movs	r6, #0
     cb2:	f000 f81a 	bl	cea <Code_155>
     cb6:	cf40      	ldmia	r7!, {r6}
     cb8:	3704      	adds	r7, #4
     cba:	bd00      	pop	{pc}

00000cbc <Dictionary_151>:
     cbc:	00000cdc 	ldrdeq	r0, [r0], -ip
     cc0:	6d050043 	stcvs	0, cr0, [r5, #-268]	; 0xfffffef4
     cc4:	646f6d2f 	strbtvs	r6, [pc], #-3375	; ccc <Code_151+0x4>

00000cc8 <Code_151>:
     cc8:	b500      	push	{lr}
     cca:	3f04      	subs	r7, #4
     ccc:	603e      	str	r6, [r7, #0]
     cce:	17f6      	asrs	r6, r6, #31
     cd0:	f000 f834 	bl	d3c <Code_157>
     cd4:	cf40      	ldmia	r7!, {r6}
     cd6:	3704      	adds	r7, #4
     cd8:	bd00      	pop	{pc}
     cda:	46c0      	nop			; (mov r8, r8)

00000cdc <Dictionary_155>:
     cdc:	00000d30 	andeq	r0, r0, r0, lsr sp
     ce0:	75060044 	strvc	r0, [r6, #-68]	; 0x44
     ce4:	6f6d2f64 	svcvs	0x006d2f64
     ce8:	b4300064 	ldrtlt	r0, [r0], #-100	; 0x64

00000cea <Code_155>:
     cea:	b430      	push	{r4, r5}
     cec:	2300      	movs	r3, #0
     cee:	2200      	movs	r2, #0
     cf0:	6879      	ldr	r1, [r7, #4]
     cf2:	68b8      	ldr	r0, [r7, #8]

00000cf4 <ud_slash_mod_internal>:
     cf4:	0035      	movs	r5, r6
     cf6:	683c      	ldr	r4, [r7, #0]
     cf8:	2640      	movs	r6, #64	; 0x40
     cfa:	0040      	lsls	r0, r0, #1
     cfc:	4149      	adcs	r1, r1
     cfe:	4152      	adcs	r2, r2
     d00:	415b      	adcs	r3, r3
     d02:	42ab      	cmp	r3, r5
     d04:	d802      	bhi.n	d0c <ud_slash_mod_internal+0x18>
     d06:	d304      	bcc.n	d12 <ud_slash_mod_internal+0x1e>
     d08:	42a2      	cmp	r2, r4
     d0a:	d302      	bcc.n	d12 <ud_slash_mod_internal+0x1e>
     d0c:	1b12      	subs	r2, r2, r4
     d0e:	41ab      	sbcs	r3, r5
     d10:	3001      	adds	r0, #1
     d12:	3e01      	subs	r6, #1
     d14:	d1f1      	bne.n	cfa <ud_slash_mod_internal+0x6>
     d16:	000e      	movs	r6, r1
     d18:	6038      	str	r0, [r7, #0]
     d1a:	607b      	str	r3, [r7, #4]
     d1c:	60ba      	str	r2, [r7, #8]
     d1e:	bc30      	pop	{r4, r5}
     d20:	4770      	bx	lr

00000d22 <uf_slash_mod>:
     d22:	b430      	push	{r4, r5}
     d24:	2300      	movs	r3, #0
     d26:	687a      	ldr	r2, [r7, #4]
     d28:	68b9      	ldr	r1, [r7, #8]
     d2a:	2000      	movs	r0, #0
     d2c:	e7e2      	b.n	cf4 <ud_slash_mod_internal>
     d2e:	46c0      	nop			; (mov r8, r8)

00000d30 <Dictionary_157>:
     d30:	00000da8 	andeq	r0, r0, r8, lsr #27
     d34:	64050044 	strvs	r0, [r5], #-68	; 0x44
     d38:	646f6d2f 	strbtvs	r6, [pc], #-3375	; d40 <Code_157+0x4>

00000d3c <Code_157>:
     d3c:	b500      	push	{lr}
     d3e:	17f0      	asrs	r0, r6, #31
     d40:	d019      	beq.n	d76 <Code_157+0x3a>
     d42:	f7ff fe9a 	bl	a7a <Code_103>
     d46:	f7ff fdaf 	bl	8a8 <Code_78>
     d4a:	17f0      	asrs	r0, r6, #31
     d4c:	d00c      	beq.n	d68 <Code_157+0x2c>
     d4e:	f7ff fe94 	bl	a7a <Code_103>
     d52:	f7ff fda9 	bl	8a8 <Code_78>
     d56:	f7ff ffc8 	bl	cea <Code_155>
     d5a:	f7ff fda5 	bl	8a8 <Code_78>
     d5e:	f7ff fe8c 	bl	a7a <Code_103>
     d62:	f7ff fda1 	bl	8a8 <Code_78>
     d66:	bd00      	pop	{pc}
     d68:	f7ff fd9e 	bl	8a8 <Code_78>
     d6c:	f7ff ffbd 	bl	cea <Code_155>
     d70:	f7ff fe83 	bl	a7a <Code_103>
     d74:	bd00      	pop	{pc}
     d76:	f7ff fd97 	bl	8a8 <Code_78>
     d7a:	17f0      	asrs	r0, r6, #31
     d7c:	d00e      	beq.n	d9c <Code_157+0x60>
     d7e:	f7ff fe7c 	bl	a7a <Code_103>
     d82:	f7ff fd91 	bl	8a8 <Code_78>
     d86:	f7ff ffb0 	bl	cea <Code_155>
     d8a:	f7ff fe76 	bl	a7a <Code_103>
     d8e:	f7ff fd8b 	bl	8a8 <Code_78>
     d92:	f7ff fe72 	bl	a7a <Code_103>
     d96:	f7ff fd87 	bl	8a8 <Code_78>
     d9a:	bd00      	pop	{pc}
     d9c:	f7ff fd84 	bl	8a8 <Code_78>
     da0:	f7ff ffa3 	bl	cea <Code_155>
     da4:	bd00      	pop	{pc}
     da6:	46c0      	nop			; (mov r8, r8)

00000da8 <Dictionary_158>:
     da8:	00000dc0 	andeq	r0, r0, r0, asr #27
     dac:	64020044 	strvs	r0, [r2], #-68	; 0x44
     db0:	b500002f 	strlt	r0, [r0, #-47]	; 0x2f

00000db2 <Code_158>:
     db2:	b500      	push	{lr}
     db4:	f7ff ffc2 	bl	d3c <Code_157>
     db8:	f7ff fd86 	bl	8c8 <Code_80>
     dbc:	bd00      	pop	{pc}
     dbe:	46c0      	nop			; (mov r8, r8)

00000dc0 <Dictionary_159>:
     dc0:	00000e08 	andeq	r0, r0, r8, lsl #28
     dc4:	66020044 	strvs	r0, [r2], -r4, asr #32
     dc8:	b500002a 	strlt	r0, [r0, #-42]	; 0x2a

00000dca <Code_159>:
     dca:	b500      	push	{lr}
     dcc:	17f0      	asrs	r0, r6, #31
     dce:	d00d      	beq.n	dec <Code_159+0x22>
     dd0:	f7ff fe53 	bl	a7a <Code_103>
     dd4:	f7ff fd68 	bl	8a8 <Code_78>
     dd8:	17f0      	asrs	r0, r6, #31
     dda:	d00d      	beq.n	df8 <Code_159+0x2e>
     ddc:	f7ff fe4d 	bl	a7a <Code_103>
     de0:	f7ff fed0 	bl	b84 <Code_111>
     de4:	cf40      	ldmia	r7!, {r6}
     de6:	cf01      	ldmia	r7!, {r0}
     de8:	6038      	str	r0, [r7, #0]
     dea:	bd00      	pop	{pc}
     dec:	f7ff fd5c 	bl	8a8 <Code_78>
     df0:	17f0      	asrs	r0, r6, #31
     df2:	d0f5      	beq.n	de0 <Code_159+0x16>
     df4:	f7ff fe41 	bl	a7a <Code_103>
     df8:	f7ff fec4 	bl	b84 <Code_111>
     dfc:	cf40      	ldmia	r7!, {r6}
     dfe:	cf01      	ldmia	r7!, {r0}
     e00:	6038      	str	r0, [r7, #0]
     e02:	f7ff fe3a 	bl	a7a <Code_103>
     e06:	bd00      	pop	{pc}

00000e08 <Dictionary_162>:
     e08:	00000e54 	andeq	r0, r0, r4, asr lr
     e0c:	66020044 	strvs	r0, [r2], -r4, asr #32
     e10:	b500002f 	strlt	r0, [r0, #-47]	; 0x2f

00000e12 <Code_162>:
     e12:	b500      	push	{lr}
     e14:	17f0      	asrs	r0, r6, #31
     e16:	d00e      	beq.n	e36 <Code_162+0x24>
     e18:	f7ff fe2f 	bl	a7a <Code_103>
     e1c:	f7ff fd44 	bl	8a8 <Code_78>
     e20:	17f0      	asrs	r0, r6, #31
     e22:	d00e      	beq.n	e42 <Code_162+0x30>
     e24:	f7ff fe29 	bl	a7a <Code_103>
     e28:	f7ff fd3e 	bl	8a8 <Code_78>
     e2c:	f7ff ff79 	bl	d22 <uf_slash_mod>
     e30:	f7ff fd4a 	bl	8c8 <Code_80>
     e34:	bd00      	pop	{pc}
     e36:	f7ff fd37 	bl	8a8 <Code_78>
     e3a:	17f0      	asrs	r0, r6, #31
     e3c:	d0f4      	beq.n	e28 <Code_162+0x16>
     e3e:	f7ff fe1c 	bl	a7a <Code_103>
     e42:	f7ff fd31 	bl	8a8 <Code_78>
     e46:	f7ff ff6c 	bl	d22 <uf_slash_mod>
     e4a:	f7ff fe16 	bl	a7a <Code_103>
     e4e:	f7ff fd3b 	bl	8c8 <Code_80>
     e52:	bd00      	pop	{pc}

00000e54 <Dictionary_163>:
     e54:	00000e68 	andeq	r0, r0, r8, ror #28
     e58:	32020020 	andcc	r0, r2, #32
     e5c:	cf060021 	svcgt	0x00060021

00000e5e <Code_163>:
     e5e:	cf06      	ldmia	r7!, {r1, r2}
     e60:	6031      	str	r1, [r6, #0]
     e62:	6072      	str	r2, [r6, #4]
     e64:	cf40      	ldmia	r7!, {r6}
     e66:	4770      	bx	lr

00000e68 <Dictionary_165>:
     e68:	00000e7c 	andeq	r0, r0, ip, ror lr
     e6c:	32020020 	andcc	r0, r2, #32
     e70:	3f040040 	svccc	0x00040040

00000e72 <Code_165>:
     e72:	3f04      	subs	r7, #4
     e74:	6870      	ldr	r0, [r6, #4]
     e76:	6038      	str	r0, [r7, #0]
     e78:	6836      	ldr	r6, [r6, #0]
     e7a:	4770      	bx	lr

00000e7c <Dictionary_166>:
     e7c:	00000e9c 	muleq	r0, ip, lr
     e80:	64030044 	strvs	r0, [r3], #-68	; 0x44
     e84:	cf073c75 	svcgt	0x00073c75

00000e86 <Code_166>:
     e86:	cf07      	ldmia	r7!, {r0, r1, r2}
     e88:	428e      	cmp	r6, r1
     e8a:	d804      	bhi.n	e96 <Code_166+0x10>
     e8c:	d101      	bne.n	e92 <Code_166+0xc>
     e8e:	4290      	cmp	r0, r2
     e90:	d801      	bhi.n	e96 <Code_166+0x10>
     e92:	2600      	movs	r6, #0
     e94:	4770      	bx	lr
     e96:	2600      	movs	r6, #0
     e98:	43f6      	mvns	r6, r6
     e9a:	4770      	bx	lr

00000e9c <Dictionary_167>:
     e9c:	00000ebc 			; <UNDEFINED> instruction: 0x00000ebc
     ea0:	64030044 	strvs	r0, [r3], #-68	; 0x44
     ea4:	cf073e75 	svcgt	0x00073e75

00000ea6 <Code_167>:
     ea6:	cf07      	ldmia	r7!, {r0, r1, r2}
     ea8:	42b1      	cmp	r1, r6
     eaa:	d804      	bhi.n	eb6 <Code_167+0x10>
     eac:	d101      	bne.n	eb2 <Code_167+0xc>
     eae:	4282      	cmp	r2, r0
     eb0:	d801      	bhi.n	eb6 <Code_167+0x10>
     eb2:	2600      	movs	r6, #0
     eb4:	4770      	bx	lr
     eb6:	2600      	movs	r6, #0
     eb8:	43f6      	mvns	r6, r6
     eba:	4770      	bx	lr

00000ebc <Dictionary_168>:
     ebc:	00000edc 	ldrdeq	r0, [r0], -ip
     ec0:	64020044 	strvs	r0, [r2], #-68	; 0x44
     ec4:	cf07003c 	svcgt	0x0007003c

00000ec6 <Code_168>:
     ec6:	cf07      	ldmia	r7!, {r0, r1, r2}
     ec8:	428e      	cmp	r6, r1
     eca:	dc04      	bgt.n	ed6 <Code_168+0x10>
     ecc:	d101      	bne.n	ed2 <Code_168+0xc>
     ece:	4290      	cmp	r0, r2
     ed0:	dc01      	bgt.n	ed6 <Code_168+0x10>
     ed2:	2600      	movs	r6, #0
     ed4:	4770      	bx	lr
     ed6:	2600      	movs	r6, #0
     ed8:	43f6      	mvns	r6, r6
     eda:	4770      	bx	lr

00000edc <Dictionary_169>:
     edc:	00000efc 	strdeq	r0, [r0], -ip
     ee0:	64020044 	strvs	r0, [r2], #-68	; 0x44
     ee4:	cf07003e 	svcgt	0x0007003e

00000ee6 <Code_169>:
     ee6:	cf07      	ldmia	r7!, {r0, r1, r2}
     ee8:	42b1      	cmp	r1, r6
     eea:	dc04      	bgt.n	ef6 <Code_169+0x10>
     eec:	d101      	bne.n	ef2 <Code_169+0xc>
     eee:	4282      	cmp	r2, r0
     ef0:	dc01      	bgt.n	ef6 <Code_169+0x10>
     ef2:	2600      	movs	r6, #0
     ef4:	4770      	bx	lr
     ef6:	2600      	movs	r6, #0
     ef8:	43f6      	mvns	r6, r6
     efa:	4770      	bx	lr

00000efc <Dictionary_170>:
     efc:	00000f0c 	andeq	r0, r0, ip, lsl #30
     f00:	64030062 	strvs	r0, [r3], #-98	; 0x62
     f04:	37043c30 	smladxcc	r4, r0, ip, r3

00000f06 <Code_170>:
     f06:	3704      	adds	r7, #4
     f08:	17f6      	asrs	r6, r6, #31
     f0a:	4770      	bx	lr

00000f0c <Dictionary_171>:
     f0c:	00000f28 	andeq	r0, r0, r8, lsr #30
     f10:	64030042 	strvs	r0, [r3], #-66	; 0x42
     f14:	cf013d30 	svcgt	0x00013d30

00000f16 <Code_171>:
     f16:	cf01      	ldmia	r7!, {r0}
     f18:	2800      	cmp	r0, #0
     f1a:	d001      	beq.n	f20 <Code_171+0xa>
     f1c:	2600      	movs	r6, #0
     f1e:	4770      	bx	lr
     f20:	3e01      	subs	r6, #1
     f22:	41b6      	sbcs	r6, r6
     f24:	4770      	bx	lr
     f26:	46c0      	nop			; (mov r8, r8)

00000f28 <Dictionary_172>:
     f28:	00000f44 	andeq	r0, r0, r4, asr #30
     f2c:	64030044 	strvs	r0, [r3], #-68	; 0x44
     f30:	cf073e3c 	svcgt	0x00073e3c

00000f32 <Code_172>:
     f32:	cf07      	ldmia	r7!, {r0, r1, r2}
     f34:	4290      	cmp	r0, r2
     f36:	d101      	bne.n	f3c <Code_172+0xa>
     f38:	1a76      	subs	r6, r6, r1
     f3a:	d001      	beq.n	f40 <Code_172+0xe>
     f3c:	2600      	movs	r6, #0
     f3e:	43f6      	mvns	r6, r6
     f40:	4770      	bx	lr
     f42:	46c0      	nop			; (mov r8, r8)

00000f44 <Dictionary_173>:
     f44:	00000f60 	andeq	r0, r0, r0, ror #30
     f48:	64020044 	strvs	r0, [r2], #-68	; 0x44
     f4c:	cf07003d 	svcgt	0x0007003d

00000f4e <Code_173>:
     f4e:	cf07      	ldmia	r7!, {r0, r1, r2}
     f50:	4290      	cmp	r0, r2
     f52:	d001      	beq.n	f58 <Code_173+0xa>
     f54:	2600      	movs	r6, #0
     f56:	4770      	bx	lr
     f58:	1a76      	subs	r6, r6, r1
     f5a:	3e01      	subs	r6, #1
     f5c:	41b6      	sbcs	r6, r6
     f5e:	4770      	bx	lr

00000f60 <Dictionary_174>:
     f60:	00000f74 	andeq	r0, r0, r4, ror pc
     f64:	73030020 	movwvc	r0, #12320	; 0x3020
     f68:	3f044070 	svccc	0x00044070

00000f6a <Code_174>:
     f6a:	3f04      	subs	r7, #4
     f6c:	603e      	str	r6, [r7, #0]
     f6e:	003e      	movs	r6, r7
     f70:	4770      	bx	lr
     f72:	46c0      	nop			; (mov r8, r8)

00000f74 <Dictionary_176>:
     f74:	00000f84 	andeq	r0, r0, r4, lsl #31
     f78:	73030020 	movwvc	r0, #12320	; 0x3020
     f7c:	00372170 	eorseq	r2, r7, r0, ror r1

00000f7e <Code_176>:
     f7e:	0037      	movs	r7, r6
     f80:	cf40      	ldmia	r7!, {r6}
     f82:	4770      	bx	lr

00000f84 <Dictionary_177>:
     f84:	00000f98 	muleq	r0, r8, pc	; <UNPREDICTABLE>
     f88:	72030020 	andvc	r0, r3, #32
     f8c:	3f044070 	svccc	0x00044070

00000f8e <Code_177>:
     f8e:	3f04      	subs	r7, #4
     f90:	603e      	str	r6, [r7, #0]
     f92:	466e      	mov	r6, sp
     f94:	4770      	bx	lr
     f96:	46c0      	nop			; (mov r8, r8)

00000f98 <Dictionary_179>:
     f98:	00000fa8 	andeq	r0, r0, r8, lsr #31
     f9c:	72030020 	andvc	r0, r3, #32
     fa0:	46b52170 			; <UNDEFINED> instruction: 0x46b52170

00000fa2 <Code_179>:
     fa2:	46b5      	mov	sp, r6
     fa4:	cf40      	ldmia	r7!, {r6}
     fa6:	4770      	bx	lr

00000fa8 <Dictionary_180>:
     fa8:	00000fcc 	andeq	r0, r0, ip, asr #31
     fac:	64030261 	strvs	r0, [r3], #-609	; 0x261
     fb0:	3f047075 	svccc	0x00047075

00000fb2 <Code_180>:
     fb2:	3f04      	subs	r7, #4
     fb4:	603e      	str	r6, [r7, #0]
     fb6:	4770      	bx	lr

00000fb8 <dup_allocator>:
     fb8:	b506      	push	{r1, r2, lr}
     fba:	f7ff fb0b 	bl	5d4 <expect_one_element>
     fbe:	6901      	ldr	r1, [r0, #16]
     fc0:	6942      	ldr	r2, [r0, #20]
     fc2:	f7ff fa7f 	bl	4c4 <befreie_tos>
     fc6:	6101      	str	r1, [r0, #16]
     fc8:	6142      	str	r2, [r0, #20]
     fca:	bd06      	pop	{r1, r2, pc}

00000fcc <Dictionary_183>:
     fcc:	00000ff8 	strdeq	r0, [r0], -r8
     fd0:	64040261 	strvs	r0, [r4], #-609	; 0x261
     fd4:	00706f72 	rsbseq	r6, r0, r2, ror pc

00000fd8 <Code_183>:
     fd8:	cf40      	ldmia	r7!, {r6}
     fda:	4770      	bx	lr

00000fdc <drop_allocator>:
     fdc:	b500      	push	{lr}
     fde:	6901      	ldr	r1, [r0, #16]
     fe0:	291e      	cmp	r1, #30
     fe2:	d105      	bne.n	ff0 <drop_allocator+0x14>
     fe4:	3f04      	subs	r7, #4
     fe6:	603e      	str	r6, [r7, #0]
     fe8:	4e9e      	ldr	r6, [pc, #632]	; (1264 <Code_219+0x1c>)
     fea:	f002 f9f4 	bl	33d6 <Code_793>
     fee:	bd00      	pop	{pc}
     ff0:	f7ff fb2c 	bl	64c <eliminiere_tos>
     ff4:	bd00      	pop	{pc}
     ff6:	46c0      	nop			; (mov r8, r8)

00000ff8 <Dictionary_187>:
     ff8:	00001010 	andeq	r1, r0, r0, lsl r0
     ffc:	3f040061 	svccc	0x00040061
    1000:	00707564 	rsbseq	r7, r0, r4, ror #10

00001004 <Code_187>:
    1004:	2e00      	cmp	r6, #0
    1006:	d001      	beq.n	100c <Code_187+0x8>
    1008:	3f04      	subs	r7, #4
    100a:	603e      	str	r6, [r7, #0]
    100c:	4770      	bx	lr
    100e:	46c0      	nop			; (mov r8, r8)

00001010 <Dictionary_189>:
    1010:	0000103c 	andeq	r1, r0, ip, lsr r0
    1014:	73040262 	movwvc	r0, #16994	; 0x4262
    1018:	00706177 	rsbseq	r6, r0, r7, ror r1

0000101c <Code_189>:
    101c:	6839      	ldr	r1, [r7, #0]
    101e:	603e      	str	r6, [r7, #0]
    1020:	000e      	movs	r6, r1
    1022:	4770      	bx	lr

00001024 <swap_allocator>:
    1024:	b50c      	push	{r2, r3, lr}
    1026:	f7ff fade 	bl	5e6 <expect_two_elements>
    102a:	6902      	ldr	r2, [r0, #16]
    102c:	6983      	ldr	r3, [r0, #24]
    102e:	6103      	str	r3, [r0, #16]
    1030:	6182      	str	r2, [r0, #24]
    1032:	6942      	ldr	r2, [r0, #20]
    1034:	69c3      	ldr	r3, [r0, #28]
    1036:	6143      	str	r3, [r0, #20]
    1038:	61c2      	str	r2, [r0, #28]
    103a:	bd0c      	pop	{r2, r3, pc}

0000103c <Dictionary_190>:
    103c:	00001068 	andeq	r1, r0, r8, rrx
    1040:	6e030262 	cdpvs	2, 0, cr0, cr3, cr2, {3}
    1044:	37047069 	strcc	r7, [r4, -r9, rrx]

00001046 <Code_190>:
    1046:	3704      	adds	r7, #4
    1048:	4770      	bx	lr
    104a:	b500      	push	{lr}
    104c:	f7ff fac2 	bl	5d4 <expect_one_element>
    1050:	6981      	ldr	r1, [r0, #24]
    1052:	291e      	cmp	r1, #30
    1054:	d002      	beq.n	105c <Code_190+0x16>
    1056:	f7ff fb00 	bl	65a <eliminiere_nos>
    105a:	bd00      	pop	{pc}
    105c:	3f04      	subs	r7, #4
    105e:	603e      	str	r6, [r7, #0]
    1060:	4e80      	ldr	r6, [pc, #512]	; (1264 <Code_219+0x1c>)
    1062:	f002 f9b8 	bl	33d6 <Code_793>
    1066:	bd00      	pop	{pc}

00001068 <Dictionary_194>:
    1068:	00001090 	muleq	r0, r0, r0
    106c:	6f040262 	svcvs	0x00040262
    1070:	00726576 	rsbseq	r6, r2, r6, ror r5

00001074 <Code_194>:
    1074:	3f04      	subs	r7, #4
    1076:	603e      	str	r6, [r7, #0]
    1078:	687e      	ldr	r6, [r7, #4]
    107a:	4770      	bx	lr

0000107c <over_allocator>:
    107c:	b500      	push	{lr}
    107e:	f7ff fab2 	bl	5e6 <expect_two_elements>
    1082:	6981      	ldr	r1, [r0, #24]
    1084:	69c2      	ldr	r2, [r0, #28]
    1086:	f7ff fa1d 	bl	4c4 <befreie_tos>
    108a:	6101      	str	r1, [r0, #16]
    108c:	6142      	str	r2, [r0, #20]
    108e:	bd00      	pop	{pc}

00001090 <Dictionary_196>:
    1090:	000010bc 	strheq	r1, [r0], -ip
    1094:	74040262 	strvc	r0, [r4], #-610	; 0x262
    1098:	006b6375 	rsbeq	r6, fp, r5, ror r3

0000109c <Code_196>:
    109c:	cf01      	ldmia	r7!, {r0}
    109e:	3f08      	subs	r7, #8
    10a0:	607e      	str	r6, [r7, #4]
    10a2:	6038      	str	r0, [r7, #0]
    10a4:	4770      	bx	lr
    10a6:	b500      	push	{lr}
    10a8:	f7ff fa9d 	bl	5e6 <expect_two_elements>
    10ac:	f7ff f9f7 	bl	49e <free_3os_element>
    10b0:	6901      	ldr	r1, [r0, #16]
    10b2:	6201      	str	r1, [r0, #32]
    10b4:	6941      	ldr	r1, [r0, #20]
    10b6:	6241      	str	r1, [r0, #36]	; 0x24
    10b8:	bd00      	pop	{pc}
    10ba:	46c0      	nop			; (mov r8, r8)

000010bc <Dictionary_197>:
    10bc:	000010f4 	strdeq	r1, [r0], -r4
    10c0:	72030263 	andvc	r0, r3, #805306374	; 0x30000006
    10c4:	cf03746f 	svcgt	0x0003746f

000010c6 <Code_197>:
    10c6:	cf03      	ldmia	r7!, {r0, r1}
    10c8:	3f08      	subs	r7, #8
    10ca:	6078      	str	r0, [r7, #4]
    10cc:	603e      	str	r6, [r7, #0]
    10ce:	000e      	movs	r6, r1
    10d0:	4770      	bx	lr

000010d2 <rot_allocator>:
    10d2:	b50e      	push	{r1, r2, r3, lr}
    10d4:	f7ff fa92 	bl	5fc <expect_three_elements>
    10d8:	6901      	ldr	r1, [r0, #16]
    10da:	6982      	ldr	r2, [r0, #24]
    10dc:	6a03      	ldr	r3, [r0, #32]
    10de:	6181      	str	r1, [r0, #24]
    10e0:	6202      	str	r2, [r0, #32]
    10e2:	6103      	str	r3, [r0, #16]
    10e4:	6941      	ldr	r1, [r0, #20]
    10e6:	69c2      	ldr	r2, [r0, #28]
    10e8:	6a43      	ldr	r3, [r0, #36]	; 0x24
    10ea:	61c1      	str	r1, [r0, #28]
    10ec:	6242      	str	r2, [r0, #36]	; 0x24
    10ee:	6143      	str	r3, [r0, #20]
    10f0:	bd0e      	pop	{r1, r2, r3, pc}
    10f2:	46c0      	nop			; (mov r8, r8)

000010f4 <Dictionary_198>:
    10f4:	00001118 	andeq	r1, r0, r8, lsl r1
    10f8:	2d040263 	sfmcs	f0, 4, [r4, #-396]	; 0xfffffe74
    10fc:	00746f72 	rsbseq	r6, r4, r2, ror pc

00001100 <Code_198>:
    1100:	cf03      	ldmia	r7!, {r0, r1}
    1102:	3f08      	subs	r7, #8
    1104:	607e      	str	r6, [r7, #4]
    1106:	6039      	str	r1, [r7, #0]
    1108:	0006      	movs	r6, r0
    110a:	4770      	bx	lr
    110c:	b500      	push	{lr}
    110e:	f7ff ffe0 	bl	10d2 <rot_allocator>
    1112:	f7ff ffde 	bl	10d2 <rot_allocator>
    1116:	bd00      	pop	{pc}

00001118 <Dictionary_199>:
    1118:	0000112c 	andeq	r1, r0, ip, lsr #2
    111c:	70040020 	andvc	r0, r4, r0, lsr #32
    1120:	006b6369 	rsbeq	r6, fp, r9, ror #6

00001124 <Code_199>:
    1124:	00b0      	lsls	r0, r6, #2
    1126:	583e      	ldr	r6, [r7, r0]
    1128:	4770      	bx	lr
    112a:	46c0      	nop			; (mov r8, r8)

0000112c <Dictionary_200>:
    112c:	00001144 	andeq	r1, r0, r4, asr #2
    1130:	64050000 	strvs	r0, [r5], #-0
    1134:	68747065 	ldmdavs	r4!, {r0, r2, r5, r6, ip, sp, lr}^

00001138 <Code_200>:
    1138:	494b      	ldr	r1, [pc, #300]	; (1268 <Code_219+0x20>)
    113a:	1bc9      	subs	r1, r1, r7
    113c:	3f04      	subs	r7, #4
    113e:	603e      	str	r6, [r7, #0]
    1140:	088e      	lsrs	r6, r1, #2
    1142:	4770      	bx	lr

00001144 <Dictionary_202>:
    1144:	00001160 	andeq	r1, r0, r0, ror #2
    1148:	72060000 	andvc	r0, r6, #0
    114c:	74706564 	ldrbtvc	r6, [r0], #-1380	; 0x564
    1150:	3f040068 	svccc	0x00040068

00001152 <Code_202>:
    1152:	3f04      	subs	r7, #4
    1154:	603e      	str	r6, [r7, #0]
    1156:	466e      	mov	r6, sp
    1158:	4944      	ldr	r1, [pc, #272]	; (126c <Code_219+0x24>)
    115a:	1b89      	subs	r1, r1, r6
    115c:	088e      	lsrs	r6, r1, #2
    115e:	4770      	bx	lr

00001160 <Dictionary_204>:
    1160:	00001190 	muleq	r0, r0, r1
    1164:	3e020220 	cdpcc	2, 0, cr0, cr2, cr0, {1}
    1168:	b4400072 	strblt	r0, [r0], #-114	; 0x72

0000116a <Code_204>:
    116a:	b440      	push	{r6}
    116c:	cf40      	ldmia	r7!, {r6}
    116e:	4770      	bx	lr

00001170 <allocator_to_r>:
    1170:	b500      	push	{lr}
    1172:	f7ff fa2f 	bl	5d4 <expect_one_element>
    1176:	f7ff fa57 	bl	628 <expect_tos_in_register>
    117a:	3f04      	subs	r7, #4
    117c:	603e      	str	r6, [r7, #0]
    117e:	4e3c      	ldr	r6, [pc, #240]	; (1270 <Code_219+0x28>)
    1180:	2201      	movs	r2, #1
    1182:	408a      	lsls	r2, r1
    1184:	4316      	orrs	r6, r2
    1186:	f002 f926 	bl	33d6 <Code_793>
    118a:	f7ff fa5f 	bl	64c <eliminiere_tos>
    118e:	bd00      	pop	{pc}

00001190 <Dictionary_207>:
    1190:	000011c0 	andeq	r1, r0, r0, asr #3
    1194:	72020220 	andvc	r0, r2, #2
    1198:	3f04003e 	svccc	0x0004003e

0000119a <Code_207>:
    119a:	3f04      	subs	r7, #4
    119c:	603e      	str	r6, [r7, #0]
    119e:	bc40      	pop	{r6}
    11a0:	4770      	bx	lr

000011a2 <allocator_r_from>:
    11a2:	b500      	push	{lr}
    11a4:	f7ff f98e 	bl	4c4 <befreie_tos>
    11a8:	f7ff f9f0 	bl	58c <get_free_register>
    11ac:	6103      	str	r3, [r0, #16]
    11ae:	3f04      	subs	r7, #4
    11b0:	603e      	str	r6, [r7, #0]
    11b2:	4e30      	ldr	r6, [pc, #192]	; (1274 <Code_219+0x2c>)
    11b4:	2201      	movs	r2, #1
    11b6:	409a      	lsls	r2, r3
    11b8:	4316      	orrs	r6, r2
    11ba:	f002 f90c 	bl	33d6 <Code_793>
    11be:	bd00      	pop	{pc}

000011c0 <Dictionary_211>:
    11c0:	000011dc 	ldrdeq	r1, [r0], -ip
    11c4:	72020220 	andvc	r0, r2, #2
    11c8:	3f040040 	svccc	0x00040040

000011ca <Code_211>:
    11ca:	3f04      	subs	r7, #4
    11cc:	603e      	str	r6, [r7, #0]
    11ce:	9e00      	ldr	r6, [sp, #0]
    11d0:	4770      	bx	lr
    11d2:	b500      	push	{lr}
    11d4:	f002 fe18 	bl	3e08 <rfetch_allocator>
    11d8:	bd00      	pop	{pc}
    11da:	46c0      	nop			; (mov r8, r8)

000011dc <Dictionary_213>:
    11dc:	000011fc 	strdeq	r1, [r0], -ip
    11e0:	72050220 	andvc	r0, r5, #2
    11e4:	706f7264 	rsbvc	r7, pc, r4, ror #4

000011e8 <Code_213>:
    11e8:	b001      	add	sp, #4
    11ea:	4770      	bx	lr
    11ec:	b500      	push	{lr}
    11ee:	3f04      	subs	r7, #4
    11f0:	603e      	str	r6, [r7, #0]
    11f2:	4e21      	ldr	r6, [pc, #132]	; (1278 <Code_219+0x30>)
    11f4:	f002 f8ef 	bl	33d6 <Code_793>
    11f8:	bd00      	pop	{pc}
    11fa:	46c0      	nop			; (mov r8, r8)

000011fc <Dictionary_216>:
    11fc:	00001210 	andeq	r1, r0, r0, lsl r2
    1200:	72050020 	andvc	r0, r5, #32
    1204:	6b636970 	blvs	18db7cc <BIT24+0x8db7cc>

00001208 <Code_216>:
    1208:	00b6      	lsls	r6, r6, #2
    120a:	446e      	add	r6, sp
    120c:	6836      	ldr	r6, [r6, #0]
    120e:	4770      	bx	lr

00001210 <Dictionary_217>:
    1210:	0000123c 	andeq	r1, r0, ip, lsr r2
    1214:	72040000 	andvc	r0, r4, #0
    1218:	006c6c6f 	rsbeq	r6, ip, pc, ror #24

0000121c <Code_217>:
    121c:	2e00      	cmp	r6, #0
    121e:	d101      	bne.n	1224 <Code_217+0x8>
    1220:	cf40      	ldmia	r7!, {r6}
    1222:	4770      	bx	lr
    1224:	00b0      	lsls	r0, r6, #2
    1226:	5839      	ldr	r1, [r7, r0]
    1228:	19c0      	adds	r0, r0, r7
    122a:	1f03      	subs	r3, r0, #4
    122c:	681a      	ldr	r2, [r3, #0]
    122e:	6002      	str	r2, [r0, #0]
    1230:	3804      	subs	r0, #4
    1232:	3e01      	subs	r6, #1
    1234:	d1f9      	bne.n	122a <Code_217+0xe>
    1236:	3704      	adds	r7, #4
    1238:	000e      	movs	r6, r1
    123a:	4770      	bx	lr

0000123c <Dictionary_219>:
    123c:	0000127c 	andeq	r1, r0, ip, ror r2
    1240:	2d050000 	stccs	0, cr0, [r5, #-0]
    1244:	6c6c6f72 	stclvs	15, cr6, [ip], #-456	; 0xfffffe38

00001248 <Code_219>:
    1248:	2e00      	cmp	r6, #0
    124a:	d101      	bne.n	1250 <Code_219+0x8>
    124c:	cf40      	ldmia	r7!, {r6}
    124e:	4770      	bx	lr
    1250:	6838      	ldr	r0, [r7, #0]
    1252:	4639      	mov	r1, r7
    1254:	684a      	ldr	r2, [r1, #4]
    1256:	600a      	str	r2, [r1, #0]
    1258:	3104      	adds	r1, #4
    125a:	3e01      	subs	r6, #1
    125c:	d1fa      	bne.n	1254 <Code_219+0xc>
    125e:	6008      	str	r0, [r1, #0]
    1260:	cf40      	ldmia	r7!, {r6}
    1262:	4770      	bx	lr
    1264:	00003704 	andeq	r3, r0, r4, lsl #14
    1268:	1ffff25c 	svcne	0x00fff25c
    126c:	1ffff35c 	svcne	0x00fff35c
    1270:	0000b400 	andeq	fp, r0, r0, lsl #8
    1274:	0000bc00 	andeq	fp, r0, r0, lsl #24
    1278:	0000b001 	andeq	fp, r0, r1

0000127c <Dictionary_222>:
    127c:	00001294 	muleq	r0, r4, r2
    1280:	74040060 	strvc	r0, [r4], #-96	; 0x60
    1284:	00657572 	rsbeq	r7, r5, r2, ror r5

00001288 <Code_222>:
    1288:	3f04      	subs	r7, #4
    128a:	603e      	str	r6, [r7, #0]
    128c:	2600      	movs	r6, #0
    128e:	43f6      	mvns	r6, r6
    1290:	4770      	bx	lr
    1292:	46c0      	nop			; (mov r8, r8)

00001294 <Dictionary_224>:
    1294:	000012a8 	andeq	r1, r0, r8, lsr #5
    1298:	66050060 	strvs	r0, [r5], -r0, rrx
    129c:	65736c61 	ldrbvs	r6, [r3, #-3169]!	; 0xc61

000012a0 <Code_224>:
    12a0:	3f04      	subs	r7, #4
    12a2:	603e      	str	r6, [r7, #0]
    12a4:	2600      	movs	r6, #0
    12a6:	4770      	bx	lr

000012a8 <Dictionary_226>:
    12a8:	000012bc 			; <UNDEFINED> instruction: 0x000012bc
    12ac:	61033220 	tstvs	r3, r0, lsr #4
    12b0:	cf01646e 	svcgt	0x0001646e

000012b2 <Code_226>:
    12b2:	cf01      	ldmia	r7!, {r0}
    12b4:	4006      	ands	r6, r0
    12b6:	4770      	bx	lr
    12b8:	4000      	ands	r0, r0
    12ba:	46c0      	nop			; (mov r8, r8)

000012bc <Dictionary_227>:
    12bc:	000012d0 	ldrdeq	r1, [r0], -r0
    12c0:	62034220 	andvs	r4, r3, #2
    12c4:	cf016369 	svcgt	0x00016369

000012c6 <Code_227>:
    12c6:	cf01      	ldmia	r7!, {r0}
    12c8:	43b0      	bics	r0, r6
    12ca:	0006      	movs	r6, r0
    12cc:	4770      	bx	lr
    12ce:	4380      	bics	r0, r0

000012d0 <Dictionary_228>:
    12d0:	000012e4 	andeq	r1, r0, r4, ror #5
    12d4:	6f023220 	svcvs	0x00023220
    12d8:	cf010072 	svcgt	0x00010072

000012da <Code_228>:
    12da:	cf01      	ldmia	r7!, {r0}
    12dc:	4306      	orrs	r6, r0
    12de:	4770      	bx	lr
    12e0:	4300      	orrs	r0, r0
    12e2:	46c0      	nop			; (mov r8, r8)

000012e4 <Dictionary_229>:
    12e4:	000012f8 	strdeq	r1, [r0], -r8
    12e8:	78033220 	stmdavc	r3, {r5, r9, ip, sp}
    12ec:	cf01726f 	svcgt	0x0001726f

000012ee <Code_229>:
    12ee:	cf01      	ldmia	r7!, {r0}
    12f0:	4046      	eors	r6, r0
    12f2:	4770      	bx	lr
    12f4:	4040      	eors	r0, r0
    12f6:	46c0      	nop			; (mov r8, r8)

000012f8 <Dictionary_230>:
    12f8:	00001318 	andeq	r1, r0, r8, lsl r3
    12fc:	63030041 	movwvs	r0, #12353	; 0x3041
    1300:	00307a6c 	eorseq	r7, r0, ip, ror #20

00001302 <Code_230>:
    1302:	0030      	movs	r0, r6
    1304:	d006      	beq.n	1314 <Code_230+0x12>
    1306:	2600      	movs	r6, #0
    1308:	0040      	lsls	r0, r0, #1
    130a:	d002      	beq.n	1312 <Code_230+0x10>
    130c:	d201      	bcs.n	1312 <Code_230+0x10>
    130e:	3601      	adds	r6, #1
    1310:	e7fa      	b.n	1308 <Code_230+0x6>
    1312:	4770      	bx	lr
    1314:	2620      	movs	r6, #32
    1316:	4770      	bx	lr

00001318 <Dictionary_231>:
    1318:	00001328 	andeq	r1, r0, r8, lsr #6
    131c:	72030061 	andvc	r0, r3, #97	; 0x61
    1320:	2001726f 	andcs	r7, r1, pc, ror #4

00001322 <Code_231>:
    1322:	2001      	movs	r0, #1
    1324:	41c6      	rors	r6, r0
    1326:	4770      	bx	lr

00001328 <Dictionary_232>:
    1328:	0000133c 	andeq	r1, r0, ip, lsr r3
    132c:	72030061 	andvc	r0, r3, #97	; 0x61
    1330:	20006c6f 	andcs	r6, r0, pc, ror #24

00001332 <Code_232>:
    1332:	2000      	movs	r0, #0
    1334:	19b6      	adds	r6, r6, r6
    1336:	4146      	adcs	r6, r0
    1338:	4770      	bx	lr
    133a:	46c0      	nop			; (mov r8, r8)

0000133c <Dictionary_233>:
    133c:	00001370 	andeq	r1, r0, r0, ror r3
    1340:	61070262 	tstvs	r7, r2, ror #4
    1344:	69687372 	stmdbvs	r8!, {r1, r4, r5, r6, r8, r9, ip, sp, lr}^
    1348:	cf017466 	svcgt	0x00017466

0000134a <Code_233>:
    134a:	cf01      	ldmia	r7!, {r0}
    134c:	4130      	asrs	r0, r6
    134e:	0006      	movs	r6, r0
    1350:	4770      	bx	lr
    1352:	b500      	push	{lr}
    1354:	3f04      	subs	r7, #4
    1356:	603e      	str	r6, [r7, #0]
    1358:	4ea9      	ldr	r6, [pc, #676]	; (1600 <Code_304+0x18>)
    135a:	3f04      	subs	r7, #4
    135c:	603e      	str	r6, [r7, #0]
    135e:	4ea9      	ldr	r6, [pc, #676]	; (1604 <Code_304+0x1c>)
    1360:	f7ff f941 	bl	5e6 <expect_two_elements>
    1364:	6941      	ldr	r1, [r0, #20]
    1366:	291f      	cmp	r1, #31
    1368:	d928      	bls.n	13bc <Code_243+0x16>
    136a:	211f      	movs	r1, #31
    136c:	6141      	str	r1, [r0, #20]
    136e:	e025      	b.n	13bc <Code_243+0x16>

00001370 <Dictionary_238>:
    1370:	00001398 	muleq	r0, r8, r3
    1374:	72060262 	andvc	r0, r6, #536870918	; 0x20000006
    1378:	66696873 			; <UNDEFINED> instruction: 0x66696873
    137c:	cf010074 	svcgt	0x00010074

0000137e <Code_238>:
    137e:	cf01      	ldmia	r7!, {r0}
    1380:	40f0      	lsrs	r0, r6
    1382:	0006      	movs	r6, r0
    1384:	4770      	bx	lr
    1386:	b500      	push	{lr}
    1388:	3f04      	subs	r7, #4
    138a:	603e      	str	r6, [r7, #0]
    138c:	4e9e      	ldr	r6, [pc, #632]	; (1608 <Code_304+0x20>)
    138e:	3f04      	subs	r7, #4
    1390:	603e      	str	r6, [r7, #0]
    1392:	4e9e      	ldr	r6, [pc, #632]	; (160c <Code_304+0x24>)
    1394:	e012      	b.n	13bc <Code_243+0x16>
    1396:	46c0      	nop			; (mov r8, r8)

00001398 <Dictionary_243>:
    1398:	00001424 	andeq	r1, r0, r4, lsr #8
    139c:	6c060262 	sfmvs	f0, 4, [r6], {98}	; 0x62
    13a0:	66696873 			; <UNDEFINED> instruction: 0x66696873
    13a4:	cf010074 	svcgt	0x00010074

000013a6 <Code_243>:
    13a6:	cf01      	ldmia	r7!, {r0}
    13a8:	40b0      	lsls	r0, r6
    13aa:	0006      	movs	r6, r0
    13ac:	4770      	bx	lr
    13ae:	b500      	push	{lr}
    13b0:	3f04      	subs	r7, #4
    13b2:	603e      	str	r6, [r7, #0]
    13b4:	4e96      	ldr	r6, [pc, #600]	; (1610 <Code_304+0x28>)
    13b6:	3f04      	subs	r7, #4
    13b8:	603e      	str	r6, [r7, #0]
    13ba:	2600      	movs	r6, #0
    13bc:	f7ff f913 	bl	5e6 <expect_two_elements>
    13c0:	6901      	ldr	r1, [r0, #16]
    13c2:	2928      	cmp	r1, #40	; 0x28
    13c4:	d003      	beq.n	13ce <Code_243+0x28>
    13c6:	cf40      	ldmia	r7!, {r6}
    13c8:	f7ff f9a8 	bl	71c <alloc_unkommutativ>
    13cc:	bd00      	pop	{pc}
    13ce:	3704      	adds	r7, #4
    13d0:	6941      	ldr	r1, [r0, #20]
    13d2:	f7ff f93b 	bl	64c <eliminiere_tos>
    13d6:	2900      	cmp	r1, #0
    13d8:	d101      	bne.n	13de <Code_243+0x38>
    13da:	cf40      	ldmia	r7!, {r6}
    13dc:	bd00      	pop	{pc}
    13de:	291f      	cmp	r1, #31
    13e0:	d80f      	bhi.n	1402 <Code_243+0x5c>
    13e2:	0189      	lsls	r1, r1, #6
    13e4:	430e      	orrs	r6, r1
    13e6:	6902      	ldr	r2, [r0, #16]
    13e8:	00d2      	lsls	r2, r2, #3
    13ea:	4316      	orrs	r6, r2
    13ec:	f7ff f92e 	bl	64c <eliminiere_tos>
    13f0:	f7ff f868 	bl	4c4 <befreie_tos>
    13f4:	f7ff f8ca 	bl	58c <get_free_register>
    13f8:	6103      	str	r3, [r0, #16]
    13fa:	431e      	orrs	r6, r3
    13fc:	f001 ffeb 	bl	33d6 <Code_793>
    1400:	bd00      	pop	{pc}
    1402:	cf40      	ldmia	r7!, {r6}
    1404:	f7ff f922 	bl	64c <eliminiere_tos>
    1408:	f7ff f85c 	bl	4c4 <befreie_tos>
    140c:	f7ff f8be 	bl	58c <get_free_register>
    1410:	6103      	str	r3, [r0, #16]
    1412:	3f04      	subs	r7, #4
    1414:	603e      	str	r6, [r7, #0]
    1416:	4e7f      	ldr	r6, [pc, #508]	; (1614 <Code_304+0x2c>)
    1418:	021b      	lsls	r3, r3, #8
    141a:	431e      	orrs	r6, r3
    141c:	f001 ffdb 	bl	33d6 <Code_793>
    1420:	bd00      	pop	{pc}
    1422:	46c0      	nop			; (mov r8, r8)

00001424 <Dictionary_254>:
    1424:	00001448 	andeq	r1, r0, r8, asr #8
    1428:	30020261 	andcc	r0, r2, r1, ror #4
    142c:	3e01003d 	mcrcc	0, 0, r0, cr1, cr13, {1}

0000142e <Code_254>:
    142e:	3e01      	subs	r6, #1
    1430:	41b6      	sbcs	r6, r6
    1432:	4770      	bx	lr
    1434:	b500      	push	{lr}
    1436:	f000 f907 	bl	1648 <prepare_single_compare>
    143a:	f000 fef6 	bl	222a <allocator_one_minus>
    143e:	f7ff f905 	bl	64c <eliminiere_tos>
    1442:	4975      	ldr	r1, [pc, #468]	; (1618 <Code_304+0x30>)
    1444:	6281      	str	r1, [r0, #40]	; 0x28
    1446:	bd00      	pop	{pc}

00001448 <Dictionary_255>:
    1448:	00001470 	andeq	r1, r0, r0, ror r4
    144c:	30030261 	andcc	r0, r3, r1, ror #4
    1450:	3e013e3c 	mcrcc	14, 0, r3, cr1, cr12, {1}

00001452 <Code_255>:
    1452:	3e01      	subs	r6, #1
    1454:	41b6      	sbcs	r6, r6
    1456:	43f6      	mvns	r6, r6
    1458:	4770      	bx	lr

0000145a <allocator_unequal_zero>:
    145a:	b500      	push	{lr}
    145c:	f000 f8f4 	bl	1648 <prepare_single_compare>
    1460:	f000 fee3 	bl	222a <allocator_one_minus>
    1464:	f7ff f8f2 	bl	64c <eliminiere_tos>
    1468:	496c      	ldr	r1, [pc, #432]	; (161c <Code_304+0x34>)
    146a:	6281      	str	r1, [r0, #40]	; 0x28
    146c:	bd00      	pop	{pc}
    146e:	46c0      	nop			; (mov r8, r8)

00001470 <Dictionary_256>:
    1470:	00001494 	muleq	r0, r4, r4
    1474:	30020261 	andcc	r0, r2, r1, ror #4
    1478:	17f6003c 			; <UNDEFINED> instruction: 0x17f6003c

0000147a <Code_256>:
    147a:	17f6      	asrs	r6, r6, #31
    147c:	4770      	bx	lr

0000147e <alloc_nullkleiner>:
    147e:	b500      	push	{lr}
    1480:	f000 f8e2 	bl	1648 <prepare_single_compare>
    1484:	3f04      	subs	r7, #4
    1486:	603e      	str	r6, [r7, #0]
    1488:	4e65      	ldr	r6, [pc, #404]	; (1620 <Code_304+0x38>)
    148a:	f000 fed1 	bl	2230 <chsmallplusminus>
    148e:	4965      	ldr	r1, [pc, #404]	; (1624 <Code_304+0x3c>)
    1490:	6281      	str	r1, [r0, #40]	; 0x28
    1492:	bd00      	pop	{pc}

00001494 <Dictionary_259>:
    1494:	000014bc 			; <UNDEFINED> instruction: 0x000014bc
    1498:	3e020242 	cdpcc	2, 0, cr0, cr2, cr2, {2}
    149c:	cf01003d 	svcgt	0x0001003d

0000149e <Code_259>:
    149e:	cf01      	ldmia	r7!, {r0}
    14a0:	42b0      	cmp	r0, r6
    14a2:	da01      	bge.n	14a8 <Code_259+0xa>
    14a4:	2600      	movs	r6, #0
    14a6:	e001      	b.n	14ac <Code_259+0xe>
    14a8:	2600      	movs	r6, #0
    14aa:	43f6      	mvns	r6, r6
    14ac:	4770      	bx	lr
    14ae:	3f04      	subs	r7, #4
    14b0:	603e      	str	r6, [r7, #0]
    14b2:	4e5d      	ldr	r6, [pc, #372]	; (1628 <Code_304+0x40>)
    14b4:	3f04      	subs	r7, #4
    14b6:	603e      	str	r6, [r7, #0]
    14b8:	4e5c      	ldr	r6, [pc, #368]	; (162c <Code_304+0x44>)
    14ba:	e0e5      	b.n	1688 <prepare_compare>

000014bc <Dictionary_264>:
    14bc:	000014e4 	andeq	r1, r0, r4, ror #9
    14c0:	3c020242 	sfmcc	f0, 4, [r2], {66}	; 0x42
    14c4:	cf01003d 	svcgt	0x0001003d

000014c6 <Code_264>:
    14c6:	cf01      	ldmia	r7!, {r0}
    14c8:	42b0      	cmp	r0, r6
    14ca:	dd01      	ble.n	14d0 <Code_264+0xa>
    14cc:	2600      	movs	r6, #0
    14ce:	e001      	b.n	14d4 <Code_264+0xe>
    14d0:	2600      	movs	r6, #0
    14d2:	43f6      	mvns	r6, r6
    14d4:	4770      	bx	lr
    14d6:	3f04      	subs	r7, #4
    14d8:	603e      	str	r6, [r7, #0]
    14da:	4e55      	ldr	r6, [pc, #340]	; (1630 <Code_304+0x48>)
    14dc:	3f04      	subs	r7, #4
    14de:	603e      	str	r6, [r7, #0]
    14e0:	4e54      	ldr	r6, [pc, #336]	; (1634 <Code_304+0x4c>)
    14e2:	e0d1      	b.n	1688 <prepare_compare>

000014e4 <Dictionary_269>:
    14e4:	0000150c 	andeq	r1, r0, ip, lsl #10
    14e8:	3c010242 	sfmcc	f0, 4, [r1], {66}	; 0x42

000014ec <Code_269>:
    14ec:	cf01      	ldmia	r7!, {r0}
    14ee:	42b0      	cmp	r0, r6
    14f0:	da02      	bge.n	14f8 <Code_269+0xc>
    14f2:	2600      	movs	r6, #0
    14f4:	43f6      	mvns	r6, r6
    14f6:	e000      	b.n	14fa <Code_269+0xe>
    14f8:	2600      	movs	r6, #0
    14fa:	4770      	bx	lr
    14fc:	3f04      	subs	r7, #4
    14fe:	603e      	str	r6, [r7, #0]
    1500:	4e4a      	ldr	r6, [pc, #296]	; (162c <Code_304+0x44>)
    1502:	3f04      	subs	r7, #4
    1504:	603e      	str	r6, [r7, #0]
    1506:	4e48      	ldr	r6, [pc, #288]	; (1628 <Code_304+0x40>)
    1508:	e0be      	b.n	1688 <prepare_compare>
    150a:	46c0      	nop			; (mov r8, r8)

0000150c <Dictionary_274>:
    150c:	00001534 	andeq	r1, r0, r4, lsr r5
    1510:	3e010242 	cdpcc	2, 0, cr0, cr1, cr2, {2}

00001514 <Code_274>:
    1514:	cf01      	ldmia	r7!, {r0}
    1516:	42b0      	cmp	r0, r6
    1518:	dd02      	ble.n	1520 <Code_274+0xc>
    151a:	2600      	movs	r6, #0
    151c:	43f6      	mvns	r6, r6
    151e:	e000      	b.n	1522 <Code_274+0xe>
    1520:	2600      	movs	r6, #0
    1522:	4770      	bx	lr
    1524:	3f04      	subs	r7, #4
    1526:	603e      	str	r6, [r7, #0]
    1528:	4e42      	ldr	r6, [pc, #264]	; (1634 <Code_304+0x4c>)
    152a:	3f04      	subs	r7, #4
    152c:	603e      	str	r6, [r7, #0]
    152e:	4e40      	ldr	r6, [pc, #256]	; (1630 <Code_304+0x48>)
    1530:	e0aa      	b.n	1688 <prepare_compare>
    1532:	46c0      	nop			; (mov r8, r8)

00001534 <Dictionary_279>:
    1534:	00001558 	andeq	r1, r0, r8, asr r5
    1538:	75030262 	strvc	r0, [r3, #-610]	; 0x262
    153c:	cf013d3e 	svcgt	0x00013d3e

0000153e <Code_279>:
    153e:	cf01      	ldmia	r7!, {r0}
    1540:	1b86      	subs	r6, r0, r6
    1542:	41b6      	sbcs	r6, r6
    1544:	43f6      	mvns	r6, r6
    1546:	4770      	bx	lr
    1548:	3f04      	subs	r7, #4
    154a:	603e      	str	r6, [r7, #0]
    154c:	4e33      	ldr	r6, [pc, #204]	; (161c <Code_304+0x34>)
    154e:	3f04      	subs	r7, #4
    1550:	603e      	str	r6, [r7, #0]
    1552:	4e31      	ldr	r6, [pc, #196]	; (1618 <Code_304+0x30>)
    1554:	e098      	b.n	1688 <prepare_compare>
    1556:	46c0      	nop			; (mov r8, r8)

00001558 <Dictionary_284>:
    1558:	0000157c 	andeq	r1, r0, ip, ror r5
    155c:	75030262 	strvc	r0, [r3, #-610]	; 0x262
    1560:	cf013d3c 	svcgt	0x00013d3c

00001562 <Code_284>:
    1562:	cf01      	ldmia	r7!, {r0}
    1564:	1a36      	subs	r6, r6, r0
    1566:	41b6      	sbcs	r6, r6
    1568:	43f6      	mvns	r6, r6
    156a:	4770      	bx	lr
    156c:	3f04      	subs	r7, #4
    156e:	603e      	str	r6, [r7, #0]
    1570:	4e31      	ldr	r6, [pc, #196]	; (1638 <Code_304+0x50>)
    1572:	3f04      	subs	r7, #4
    1574:	603e      	str	r6, [r7, #0]
    1576:	4e31      	ldr	r6, [pc, #196]	; (163c <Code_304+0x54>)
    1578:	e086      	b.n	1688 <prepare_compare>
    157a:	46c0      	nop			; (mov r8, r8)

0000157c <Dictionary_289>:
    157c:	0000159c 	muleq	r0, ip, r5
    1580:	75020262 	strvc	r0, [r2, #-610]	; 0x262
    1584:	cf01003c 	svcgt	0x0001003c

00001586 <Code_289>:
    1586:	cf01      	ldmia	r7!, {r0}
    1588:	1b86      	subs	r6, r0, r6
    158a:	41b6      	sbcs	r6, r6
    158c:	4770      	bx	lr
    158e:	3f04      	subs	r7, #4
    1590:	603e      	str	r6, [r7, #0]
    1592:	4e21      	ldr	r6, [pc, #132]	; (1618 <Code_304+0x30>)
    1594:	3f04      	subs	r7, #4
    1596:	603e      	str	r6, [r7, #0]
    1598:	4e20      	ldr	r6, [pc, #128]	; (161c <Code_304+0x34>)
    159a:	e075      	b.n	1688 <prepare_compare>

0000159c <Dictionary_294>:
    159c:	000015bc 			; <UNDEFINED> instruction: 0x000015bc
    15a0:	75020262 	strvc	r0, [r2, #-610]	; 0x262
    15a4:	cf01003e 	svcgt	0x0001003e

000015a6 <Code_294>:
    15a6:	cf01      	ldmia	r7!, {r0}
    15a8:	1a36      	subs	r6, r6, r0
    15aa:	41b6      	sbcs	r6, r6
    15ac:	4770      	bx	lr
    15ae:	3f04      	subs	r7, #4
    15b0:	603e      	str	r6, [r7, #0]
    15b2:	4e22      	ldr	r6, [pc, #136]	; (163c <Code_304+0x54>)
    15b4:	3f04      	subs	r7, #4
    15b6:	603e      	str	r6, [r7, #0]
    15b8:	4e1f      	ldr	r6, [pc, #124]	; (1638 <Code_304+0x50>)
    15ba:	e065      	b.n	1688 <prepare_compare>

000015bc <Dictionary_299>:
    15bc:	000015e0 	andeq	r1, r0, r0, ror #11
    15c0:	3c020262 	sfmcc	f0, 4, [r2], {98}	; 0x62
    15c4:	cf01003e 	svcgt	0x0001003e

000015c6 <Code_299>:
    15c6:	cf01      	ldmia	r7!, {r0}
    15c8:	1a36      	subs	r6, r6, r0
    15ca:	d001      	beq.n	15d0 <Code_299+0xa>
    15cc:	2600      	movs	r6, #0
    15ce:	43f6      	mvns	r6, r6
    15d0:	4770      	bx	lr
    15d2:	3f04      	subs	r7, #4
    15d4:	603e      	str	r6, [r7, #0]
    15d6:	4e1a      	ldr	r6, [pc, #104]	; (1640 <Code_304+0x58>)
    15d8:	3f04      	subs	r7, #4
    15da:	603e      	str	r6, [r7, #0]
    15dc:	e054      	b.n	1688 <prepare_compare>
    15de:	46c0      	nop			; (mov r8, r8)

000015e0 <Dictionary_304>:
    15e0:	0000178c 	andeq	r1, r0, ip, lsl #15
    15e4:	3d010262 	sfmcc	f0, 4, [r1, #-392]	; 0xfffffe78

000015e8 <Code_304>:
    15e8:	cf01      	ldmia	r7!, {r0}
    15ea:	1a36      	subs	r6, r6, r0
    15ec:	3e01      	subs	r6, #1
    15ee:	41b6      	sbcs	r6, r6
    15f0:	4770      	bx	lr
    15f2:	3f04      	subs	r7, #4
    15f4:	603e      	str	r6, [r7, #0]
    15f6:	4e13      	ldr	r6, [pc, #76]	; (1644 <Code_304+0x5c>)
    15f8:	3f04      	subs	r7, #4
    15fa:	603e      	str	r6, [r7, #0]
    15fc:	e044      	b.n	1688 <prepare_compare>
    15fe:	41000000 	mrsmi	r0, (UNDEF: 0)
    1602:	10000000 	andne	r0, r0, r0
    1606:	40c00000 	sbcmi	r0, r0, r0
    160a:	08000000 	stmdaeq	r0, {}	; <UNPREDICTABLE>
    160e:	40800000 	addmi	r0, r0, r0
    1612:	20000000 	andcs	r0, r0, r0
    1616:	d2000000 	andle	r0, r0, #0
    161a:	d3000000 	movwle	r0, #0
    161e:	17c00000 	strbne	r0, [r0, r0]
    1622:	d5000000 	strle	r0, [r0, #-0]
    1626:	db000000 	blle	162e <Code_304+0x46>
    162a:	da000000 	ble	1632 <Code_304+0x4a>
    162e:	dc000000 	stcle	0, cr0, [r0], {-0}
    1632:	dd000000 	stcle	0, cr0, [r0, #-0]
    1636:	d8000000 	stmdale	r0, {}	; <UNPREDICTABLE>
    163a:	d9000000 	stmdble	r0, {}	; <UNPREDICTABLE>
    163e:	d0000000 	andle	r0, r0, r0
    1642:	d1000000 	mrsle	r0, (UNDEF: 0)
	...

00001648 <prepare_single_compare>:
    1648:	b500      	push	{lr}
    164a:	f7fe ffc3 	bl	5d4 <expect_one_element>
    164e:	6a03      	ldr	r3, [r0, #32]
    1650:	2b28      	cmp	r3, #40	; 0x28
    1652:	d10a      	bne.n	166a <prepare_single_compare+0x22>
    1654:	f7fe ff9a 	bl	58c <get_free_register>
    1658:	6203      	str	r3, [r0, #32]
    165a:	3f04      	subs	r7, #4
    165c:	603e      	str	r6, [r7, #0]
    165e:	6a46      	ldr	r6, [r0, #36]	; 0x24
    1660:	3f04      	subs	r7, #4
    1662:	603e      	str	r6, [r7, #0]
    1664:	001e      	movs	r6, r3
    1666:	f001 fb1f 	bl	2ca8 <Code_649>
    166a:	6983      	ldr	r3, [r0, #24]
    166c:	2b28      	cmp	r3, #40	; 0x28
    166e:	d10a      	bne.n	1686 <prepare_single_compare+0x3e>
    1670:	f7fe ff8c 	bl	58c <get_free_register>
    1674:	6183      	str	r3, [r0, #24]
    1676:	3f04      	subs	r7, #4
    1678:	603e      	str	r6, [r7, #0]
    167a:	69c6      	ldr	r6, [r0, #28]
    167c:	3f04      	subs	r7, #4
    167e:	603e      	str	r6, [r7, #0]
    1680:	001e      	movs	r6, r3
    1682:	f001 fb11 	bl	2ca8 <Code_649>
    1686:	bd00      	pop	{pc}

00001688 <prepare_compare>:
    1688:	b500      	push	{lr}
    168a:	f7fe ffac 	bl	5e6 <expect_two_elements>
    168e:	6a03      	ldr	r3, [r0, #32]
    1690:	2b28      	cmp	r3, #40	; 0x28
    1692:	d10a      	bne.n	16aa <prepare_compare+0x22>
    1694:	f7fe ff7a 	bl	58c <get_free_register>
    1698:	6203      	str	r3, [r0, #32]
    169a:	3f04      	subs	r7, #4
    169c:	603e      	str	r6, [r7, #0]
    169e:	6a46      	ldr	r6, [r0, #36]	; 0x24
    16a0:	3f04      	subs	r7, #4
    16a2:	603e      	str	r6, [r7, #0]
    16a4:	001e      	movs	r6, r3
    16a6:	f001 faff 	bl	2ca8 <Code_649>
    16aa:	6982      	ldr	r2, [r0, #24]
    16ac:	2a28      	cmp	r2, #40	; 0x28
    16ae:	d103      	bne.n	16b8 <prepare_compare+0x30>
    16b0:	f7ff fcb8 	bl	1024 <swap_allocator>
    16b4:	3704      	adds	r7, #4
    16b6:	e000      	b.n	16ba <prepare_compare+0x32>
    16b8:	cf40      	ldmia	r7!, {r6}
    16ba:	6901      	ldr	r1, [r0, #16]
    16bc:	2928      	cmp	r1, #40	; 0x28
    16be:	d109      	bne.n	16d4 <prepare_compare+0x4c>
    16c0:	6941      	ldr	r1, [r0, #20]
    16c2:	29ff      	cmp	r1, #255	; 0xff
    16c4:	d806      	bhi.n	16d4 <prepare_compare+0x4c>
    16c6:	3f04      	subs	r7, #4
    16c8:	603e      	str	r6, [r7, #0]
    16ca:	4e46      	ldr	r6, [pc, #280]	; (17e4 <Code_336+0xc>)
    16cc:	430e      	orrs	r6, r1
    16ce:	6981      	ldr	r1, [r0, #24]
    16d0:	0209      	lsls	r1, r1, #8
    16d2:	e006      	b.n	16e2 <prepare_compare+0x5a>
    16d4:	f7fe ffa8 	bl	628 <expect_tos_in_register>
    16d8:	3f04      	subs	r7, #4
    16da:	603e      	str	r6, [r7, #0]
    16dc:	4e42      	ldr	r6, [pc, #264]	; (17e8 <Code_336+0x10>)
    16de:	00d2      	lsls	r2, r2, #3
    16e0:	4316      	orrs	r6, r2
    16e2:	430e      	orrs	r6, r1
    16e4:	f001 fe77 	bl	33d6 <Code_793>
    16e8:	f7fe ffb0 	bl	64c <eliminiere_tos>
    16ec:	f7fe ffae 	bl	64c <eliminiere_tos>
    16f0:	6286      	str	r6, [r0, #40]	; 0x28
    16f2:	cf40      	ldmia	r7!, {r6}
    16f4:	bd00      	pop	{pc}

000016f6 <sprungschreiber_flaggenerator>:
    16f6:	b50f      	push	{r0, r1, r2, r3, lr}
    16f8:	483c      	ldr	r0, [pc, #240]	; (17ec <Code_336+0x14>)
    16fa:	6a81      	ldr	r1, [r0, #40]	; 0x28
    16fc:	2900      	cmp	r1, #0
    16fe:	d030      	beq.n	1762 <sprungschreiber_flaggenerator+0x6c>
    1700:	3f04      	subs	r7, #4
    1702:	603e      	str	r6, [r7, #0]
    1704:	6a86      	ldr	r6, [r0, #40]	; 0x28
    1706:	2100      	movs	r1, #0
    1708:	6281      	str	r1, [r0, #40]	; 0x28
    170a:	0a31      	lsrs	r1, r6, #8
    170c:	29d5      	cmp	r1, #213	; 0xd5
    170e:	d101      	bne.n	1714 <sprungschreiber_flaggenerator+0x1e>
    1710:	cf40      	ldmia	r7!, {r6}
    1712:	bd0f      	pop	{r0, r1, r2, r3, pc}
    1714:	f7fe fed6 	bl	4c4 <befreie_tos>
    1718:	f7fe ff38 	bl	58c <get_free_register>
    171c:	6103      	str	r3, [r0, #16]
    171e:	29d2      	cmp	r1, #210	; 0xd2
    1720:	d103      	bne.n	172a <sprungschreiber_flaggenerator+0x34>
    1722:	4e33      	ldr	r6, [pc, #204]	; (17f0 <Code_336+0x18>)
    1724:	f000 fdd2 	bl	22cc <smalltworegisters>
    1728:	bd0f      	pop	{r0, r1, r2, r3, pc}
    172a:	29d3      	cmp	r1, #211	; 0xd3
    172c:	d105      	bne.n	173a <sprungschreiber_flaggenerator+0x44>
    172e:	4e30      	ldr	r6, [pc, #192]	; (17f0 <Code_336+0x18>)
    1730:	f000 fdcc 	bl	22cc <smalltworegisters>
    1734:	f000 fddd 	bl	22f2 <allocator_not>
    1738:	bd0f      	pop	{r0, r1, r2, r3, pc}
    173a:	3602      	adds	r6, #2
    173c:	f001 fe4b 	bl	33d6 <Code_793>
    1740:	3f04      	subs	r7, #4
    1742:	603e      	str	r6, [r7, #0]
    1744:	4e2b      	ldr	r6, [pc, #172]	; (17f4 <Code_336+0x1c>)
    1746:	f000 f80d 	bl	1764 <smallplusminus>
    174a:	f000 fdd2 	bl	22f2 <allocator_not>
    174e:	3f04      	subs	r7, #4
    1750:	603e      	str	r6, [r7, #0]
    1752:	4e29      	ldr	r6, [pc, #164]	; (17f8 <Code_336+0x20>)
    1754:	f001 fe3f 	bl	33d6 <Code_793>
    1758:	3f04      	subs	r7, #4
    175a:	603e      	str	r6, [r7, #0]
    175c:	4e25      	ldr	r6, [pc, #148]	; (17f4 <Code_336+0x1c>)
    175e:	f000 f801 	bl	1764 <smallplusminus>
    1762:	bd0f      	pop	{r0, r1, r2, r3, pc}

00001764 <smallplusminus>:
    1764:	b500      	push	{lr}
    1766:	f7fe ff35 	bl	5d4 <expect_one_element>
    176a:	f7fe ff90 	bl	68e <make_tos_changeable>
    176e:	6901      	ldr	r1, [r0, #16]
    1770:	0209      	lsls	r1, r1, #8
    1772:	430e      	orrs	r6, r1
    1774:	f001 fe2f 	bl	33d6 <Code_793>
    1778:	bd00      	pop	{pc}

0000177a <eliminiere_tos_wenn_bmi>:
    177a:	b500      	push	{lr}
    177c:	6a81      	ldr	r1, [r0, #40]	; 0x28
    177e:	0a09      	lsrs	r1, r1, #8
    1780:	29d5      	cmp	r1, #213	; 0xd5
    1782:	d101      	bne.n	1788 <eliminiere_tos_wenn_bmi+0xe>
    1784:	f7fe ff62 	bl	64c <eliminiere_tos>
    1788:	bd00      	pop	{pc}
    178a:	46c0      	nop			; (mov r8, r8)

0000178c <Dictionary_333>:
    178c:	000017a0 	andeq	r1, r0, r0, lsr #15
    1790:	6d030062 	stcvs	0, cr0, [r3, #-392]	; 0xfffffe78
    1794:	cf016e69 	svcgt	0x00016e69

00001796 <Code_333>:
    1796:	cf01      	ldmia	r7!, {r0}
    1798:	42b0      	cmp	r0, r6
    179a:	da00      	bge.n	179e <Code_333+0x8>
    179c:	0006      	movs	r6, r0
    179e:	4770      	bx	lr

000017a0 <Dictionary_334>:
    17a0:	000017b4 			; <UNDEFINED> instruction: 0x000017b4
    17a4:	6d030062 	stcvs	0, cr0, [r3, #-392]	; 0xfffffe78
    17a8:	cf017861 	svcgt	0x00017861

000017aa <Code_334>:
    17aa:	cf01      	ldmia	r7!, {r0}
    17ac:	42b0      	cmp	r0, r6
    17ae:	db00      	blt.n	17b2 <Code_334+0x8>
    17b0:	0006      	movs	r6, r0
    17b2:	4770      	bx	lr

000017b4 <Dictionary_335>:
    17b4:	000017cc 	andeq	r1, r0, ip, asr #15
    17b8:	75040062 	strvc	r0, [r4, #-98]	; 0x62
    17bc:	0078616d 	rsbseq	r6, r8, sp, ror #2

000017c0 <Code_335>:
    17c0:	cf01      	ldmia	r7!, {r0}
    17c2:	42b0      	cmp	r0, r6
    17c4:	d300      	bcc.n	17c8 <Code_335+0x8>
    17c6:	0006      	movs	r6, r0
    17c8:	4770      	bx	lr
    17ca:	46c0      	nop			; (mov r8, r8)

000017cc <Dictionary_336>:
    17cc:	000017fc 	strdeq	r1, [r0], -ip
    17d0:	75040062 	strvc	r0, [r4, #-98]	; 0x62
    17d4:	006e696d 	rsbeq	r6, lr, sp, ror #18

000017d8 <Code_336>:
    17d8:	cf01      	ldmia	r7!, {r0}
    17da:	42b0      	cmp	r0, r6
    17dc:	d800      	bhi.n	17e0 <Code_336+0x8>
    17de:	0006      	movs	r6, r0
    17e0:	4770      	bx	lr
    17e2:	28000000 	stmdacs	r0, {}	; <UNPREDICTABLE>
    17e6:	42800000 	addmi	r0, r0, #0
    17ea:	f0280000 			; <UNDEFINED> instruction: 0xf0280000
    17ee:	41801fff 	strdmi	r1, [r0, pc]
    17f2:	20000000 	andcs	r0, r0, r0
    17f6:	e0000000 	and	r0, r0, r0
	...

000017fc <Dictionary_337>:
    17fc:	0000183c 	andeq	r1, r0, ip, lsr r8
    1800:	6d040000 	stcvs	0, cr0, [r4, #-0]
    1804:	0065766f 	rsbeq	r7, r5, pc, ror #12

00001808 <Code_337>:
    1808:	b507      	push	{r0, r1, r2, lr}
    180a:	0031      	movs	r1, r6
    180c:	cf40      	ldmia	r7!, {r6}
    180e:	0032      	movs	r2, r6
    1810:	cf40      	ldmia	r7!, {r6}
    1812:	2900      	cmp	r1, #0
    1814:	d00f      	beq.n	1836 <Code_337+0x2e>
    1816:	42b2      	cmp	r2, r6
    1818:	d00d      	beq.n	1836 <Code_337+0x2e>
    181a:	d306      	bcc.n	182a <Code_337+0x22>
    181c:	3e01      	subs	r6, #1
    181e:	3a01      	subs	r2, #1
    1820:	5c70      	ldrb	r0, [r6, r1]
    1822:	5450      	strb	r0, [r2, r1]
    1824:	3901      	subs	r1, #1
    1826:	d1fb      	bne.n	1820 <Code_337+0x18>
    1828:	e005      	b.n	1836 <Code_337+0x2e>
    182a:	7830      	ldrb	r0, [r6, #0]
    182c:	7010      	strb	r0, [r2, #0]
    182e:	3601      	adds	r6, #1
    1830:	3201      	adds	r2, #1
    1832:	3901      	subs	r1, #1
    1834:	d1f9      	bne.n	182a <Code_337+0x22>
    1836:	cf40      	ldmia	r7!, {r6}
    1838:	bd07      	pop	{r0, r1, r2, pc}
    183a:	46c0      	nop			; (mov r8, r8)

0000183c <Dictionary_341>:
    183c:	00001860 	andeq	r1, r0, r0, ror #16
    1840:	66040000 	strvs	r0, [r4], -r0
    1844:	006c6c69 	rsbeq	r6, ip, r9, ror #24

00001848 <Code_341>:
    1848:	0030      	movs	r0, r6
    184a:	cf40      	ldmia	r7!, {r6}
    184c:	0031      	movs	r1, r6
    184e:	cf40      	ldmia	r7!, {r6}
    1850:	2900      	cmp	r1, #0
    1852:	d002      	beq.n	185a <Code_341+0x12>
    1854:	3901      	subs	r1, #1
    1856:	5470      	strb	r0, [r6, r1]
    1858:	d1fc      	bne.n	1854 <Code_341+0xc>
    185a:	cf40      	ldmia	r7!, {r6}
    185c:	4770      	bx	lr
    185e:	46c0      	nop			; (mov r8, r8)

00001860 <Dictionary_345>:
    1860:	000018ac 	andeq	r1, r0, ip, lsr #17
    1864:	40010220 	andmi	r0, r1, r0, lsr #4

00001868 <Code_345>:
    1868:	6836      	ldr	r6, [r6, #0]
    186a:	4770      	bx	lr

0000186c <allocator_4fetch>:
    186c:	b500      	push	{lr}
    186e:	f7fe feb1 	bl	5d4 <expect_one_element>
    1872:	3f04      	subs	r7, #4
    1874:	603e      	str	r6, [r7, #0]
    1876:	4e9e      	ldr	r6, [pc, #632]	; (1af0 <Code_365+0x2e>)
    1878:	6903      	ldr	r3, [r0, #16]
    187a:	2b28      	cmp	r3, #40	; 0x28
    187c:	d108      	bne.n	1890 <allocator_4fetch+0x24>
    187e:	6943      	ldr	r3, [r0, #20]
    1880:	217c      	movs	r1, #124	; 0x7c
    1882:	4019      	ands	r1, r3
    1884:	0109      	lsls	r1, r1, #4
    1886:	430e      	orrs	r6, r1
    1888:	217c      	movs	r1, #124	; 0x7c
    188a:	438b      	bics	r3, r1
    188c:	f7fe fe54 	bl	538 <generiere_adresskonstante>
    1890:	00db      	lsls	r3, r3, #3
    1892:	431e      	orrs	r6, r3
    1894:	f7fe feda 	bl	64c <eliminiere_tos>
    1898:	f7fe fe14 	bl	4c4 <befreie_tos>
    189c:	f7fe fe76 	bl	58c <get_free_register>
    18a0:	6103      	str	r3, [r0, #16]
    18a2:	431e      	orrs	r6, r3
    18a4:	f001 fd97 	bl	33d6 <Code_793>
    18a8:	bd00      	pop	{pc}
    18aa:	46c0      	nop			; (mov r8, r8)

000018ac <Dictionary_348>:
    18ac:	00001900 	andeq	r1, r0, r0, lsl #18
    18b0:	21010220 	tstcs	r1, r0, lsr #4

000018b4 <Code_348>:
    18b4:	cf03      	ldmia	r7!, {r0, r1}
    18b6:	6030      	str	r0, [r6, #0]
    18b8:	000e      	movs	r6, r1
    18ba:	4770      	bx	lr

000018bc <allocator_4store>:
    18bc:	b500      	push	{lr}
    18be:	f7fe fe92 	bl	5e6 <expect_two_elements>
    18c2:	3f04      	subs	r7, #4
    18c4:	603e      	str	r6, [r7, #0]
    18c6:	4e8b      	ldr	r6, [pc, #556]	; (1af4 <Code_365+0x32>)
    18c8:	6903      	ldr	r3, [r0, #16]
    18ca:	2b28      	cmp	r3, #40	; 0x28
    18cc:	d108      	bne.n	18e0 <allocator_4store+0x24>
    18ce:	6943      	ldr	r3, [r0, #20]
    18d0:	217c      	movs	r1, #124	; 0x7c
    18d2:	4019      	ands	r1, r3
    18d4:	0109      	lsls	r1, r1, #4
    18d6:	430e      	orrs	r6, r1
    18d8:	217c      	movs	r1, #124	; 0x7c
    18da:	438b      	bics	r3, r1
    18dc:	f7fe fe2c 	bl	538 <generiere_adresskonstante>
    18e0:	00db      	lsls	r3, r3, #3
    18e2:	431e      	orrs	r6, r3
    18e4:	6983      	ldr	r3, [r0, #24]
    18e6:	2b28      	cmp	r3, #40	; 0x28
    18e8:	d102      	bne.n	18f0 <allocator_4store+0x34>
    18ea:	69c3      	ldr	r3, [r0, #28]
    18ec:	f7fe fe17 	bl	51e <generiere_konstante>
    18f0:	431e      	orrs	r6, r3
    18f2:	f001 fd70 	bl	33d6 <Code_793>
    18f6:	f7fe fea9 	bl	64c <eliminiere_tos>
    18fa:	f7fe fea7 	bl	64c <eliminiere_tos>
    18fe:	bd00      	pop	{pc}

00001900 <Dictionary_351>:
    1900:	00001938 	andeq	r1, r0, r8, lsr r9
    1904:	2b020220 	blcs	8218c <BIT19+0x218c>
    1908:	cf030021 	svcgt	0x00030021

0000190a <Code_351>:
    190a:	cf03      	ldmia	r7!, {r0, r1}
    190c:	6832      	ldr	r2, [r6, #0]
    190e:	1812      	adds	r2, r2, r0
    1910:	6032      	str	r2, [r6, #0]
    1912:	000e      	movs	r6, r1
    1914:	4770      	bx	lr
    1916:	b500      	push	{lr}
    1918:	f7fe fe65 	bl	5e6 <expect_two_elements>
    191c:	f7ff fb4c 	bl	fb8 <dup_allocator>
    1920:	f7ff ffa4 	bl	186c <allocator_4fetch>
    1924:	f7ff fbd5 	bl	10d2 <rot_allocator>
    1928:	f000 fc2b 	bl	2182 <plus_allocator>
    192c:	f7ff fb7a 	bl	1024 <swap_allocator>
    1930:	f7ff ffc4 	bl	18bc <allocator_4store>
    1934:	bd00      	pop	{pc}
    1936:	46c0      	nop			; (mov r8, r8)

00001938 <Dictionary_352>:
    1938:	00001984 	andeq	r1, r0, r4, lsl #19
    193c:	68020220 	stmdavs	r2, {r5, r9}
    1940:	88360040 	ldmdahi	r6!, {r6}

00001942 <Code_352>:
    1942:	8836      	ldrh	r6, [r6, #0]
    1944:	4770      	bx	lr

00001946 <allocator_2fetch>:
    1946:	b500      	push	{lr}
    1948:	f7fe fe44 	bl	5d4 <expect_one_element>
    194c:	3f04      	subs	r7, #4
    194e:	603e      	str	r6, [r7, #0]
    1950:	4e69      	ldr	r6, [pc, #420]	; (1af8 <Code_365+0x36>)
    1952:	6903      	ldr	r3, [r0, #16]
    1954:	2b28      	cmp	r3, #40	; 0x28
    1956:	d108      	bne.n	196a <allocator_2fetch+0x24>
    1958:	6943      	ldr	r3, [r0, #20]
    195a:	213e      	movs	r1, #62	; 0x3e
    195c:	4019      	ands	r1, r3
    195e:	0149      	lsls	r1, r1, #5
    1960:	430e      	orrs	r6, r1
    1962:	213e      	movs	r1, #62	; 0x3e
    1964:	438b      	bics	r3, r1
    1966:	f7fe fde7 	bl	538 <generiere_adresskonstante>
    196a:	00db      	lsls	r3, r3, #3
    196c:	431e      	orrs	r6, r3
    196e:	f7fe fe6d 	bl	64c <eliminiere_tos>
    1972:	f7fe fda7 	bl	4c4 <befreie_tos>
    1976:	f7fe fe09 	bl	58c <get_free_register>
    197a:	6103      	str	r3, [r0, #16]
    197c:	431e      	orrs	r6, r3
    197e:	f001 fd2a 	bl	33d6 <Code_793>
    1982:	bd00      	pop	{pc}

00001984 <Dictionary_355>:
    1984:	000019dc 	ldrdeq	r1, [r0], -ip
    1988:	68020220 	stmdavs	r2, {r5, r9}
    198c:	cf030021 	svcgt	0x00030021

0000198e <Code_355>:
    198e:	cf03      	ldmia	r7!, {r0, r1}
    1990:	8030      	strh	r0, [r6, #0]
    1992:	000e      	movs	r6, r1
    1994:	4770      	bx	lr

00001996 <allocator_2store>:
    1996:	b500      	push	{lr}
    1998:	f7fe fe25 	bl	5e6 <expect_two_elements>
    199c:	3f04      	subs	r7, #4
    199e:	603e      	str	r6, [r7, #0]
    19a0:	4e56      	ldr	r6, [pc, #344]	; (1afc <Code_365+0x3a>)
    19a2:	6903      	ldr	r3, [r0, #16]
    19a4:	2b28      	cmp	r3, #40	; 0x28
    19a6:	d108      	bne.n	19ba <allocator_2store+0x24>
    19a8:	6943      	ldr	r3, [r0, #20]
    19aa:	213e      	movs	r1, #62	; 0x3e
    19ac:	4019      	ands	r1, r3
    19ae:	0149      	lsls	r1, r1, #5
    19b0:	430e      	orrs	r6, r1
    19b2:	213e      	movs	r1, #62	; 0x3e
    19b4:	438b      	bics	r3, r1
    19b6:	f7fe fdbf 	bl	538 <generiere_adresskonstante>
    19ba:	00db      	lsls	r3, r3, #3
    19bc:	431e      	orrs	r6, r3
    19be:	6983      	ldr	r3, [r0, #24]
    19c0:	2b28      	cmp	r3, #40	; 0x28
    19c2:	d102      	bne.n	19ca <allocator_2store+0x34>
    19c4:	69c3      	ldr	r3, [r0, #28]
    19c6:	f7fe fdaa 	bl	51e <generiere_konstante>
    19ca:	431e      	orrs	r6, r3
    19cc:	f001 fd03 	bl	33d6 <Code_793>
    19d0:	f7fe fe3c 	bl	64c <eliminiere_tos>
    19d4:	f7fe fe3a 	bl	64c <eliminiere_tos>
    19d8:	bd00      	pop	{pc}
    19da:	46c0      	nop			; (mov r8, r8)

000019dc <Dictionary_358>:
    19dc:	00001a14 	andeq	r1, r0, r4, lsl sl
    19e0:	68030220 	stmdavs	r3, {r5, r9}
    19e4:	cf03212b 	svcgt	0x0003212b

000019e6 <Code_358>:
    19e6:	cf03      	ldmia	r7!, {r0, r1}
    19e8:	8832      	ldrh	r2, [r6, #0]
    19ea:	1812      	adds	r2, r2, r0
    19ec:	8032      	strh	r2, [r6, #0]
    19ee:	000e      	movs	r6, r1
    19f0:	4770      	bx	lr
    19f2:	b500      	push	{lr}
    19f4:	f7fe fdf7 	bl	5e6 <expect_two_elements>
    19f8:	f7ff fade 	bl	fb8 <dup_allocator>
    19fc:	f7ff ffa3 	bl	1946 <allocator_2fetch>
    1a00:	f7ff fb67 	bl	10d2 <rot_allocator>
    1a04:	f000 fbbd 	bl	2182 <plus_allocator>
    1a08:	f7ff fb0c 	bl	1024 <swap_allocator>
    1a0c:	f7ff ffc3 	bl	1996 <allocator_2store>
    1a10:	bd00      	pop	{pc}
    1a12:	46c0      	nop			; (mov r8, r8)

00001a14 <Dictionary_359>:
    1a14:	00001a60 	andeq	r1, r0, r0, ror #20
    1a18:	63020220 	movwvs	r0, #8736	; 0x2220
    1a1c:	78360040 	ldmdavc	r6!, {r6}

00001a1e <Code_359>:
    1a1e:	7836      	ldrb	r6, [r6, #0]
    1a20:	4770      	bx	lr

00001a22 <allocator_1fetch>:
    1a22:	b500      	push	{lr}
    1a24:	f7fe fdd6 	bl	5d4 <expect_one_element>
    1a28:	3f04      	subs	r7, #4
    1a2a:	603e      	str	r6, [r7, #0]
    1a2c:	4e34      	ldr	r6, [pc, #208]	; (1b00 <Code_365+0x3e>)
    1a2e:	6903      	ldr	r3, [r0, #16]
    1a30:	2b28      	cmp	r3, #40	; 0x28
    1a32:	d108      	bne.n	1a46 <allocator_1fetch+0x24>
    1a34:	6943      	ldr	r3, [r0, #20]
    1a36:	211f      	movs	r1, #31
    1a38:	4019      	ands	r1, r3
    1a3a:	0189      	lsls	r1, r1, #6
    1a3c:	430e      	orrs	r6, r1
    1a3e:	211f      	movs	r1, #31
    1a40:	438b      	bics	r3, r1
    1a42:	f7fe fd79 	bl	538 <generiere_adresskonstante>
    1a46:	00db      	lsls	r3, r3, #3
    1a48:	431e      	orrs	r6, r3
    1a4a:	f7fe fdff 	bl	64c <eliminiere_tos>
    1a4e:	f7fe fd39 	bl	4c4 <befreie_tos>
    1a52:	f7fe fd9b 	bl	58c <get_free_register>
    1a56:	6103      	str	r3, [r0, #16]
    1a58:	431e      	orrs	r6, r3
    1a5a:	f001 fcbc 	bl	33d6 <Code_793>
    1a5e:	bd00      	pop	{pc}

00001a60 <Dictionary_362>:
    1a60:	00001ab8 			; <UNDEFINED> instruction: 0x00001ab8
    1a64:	63020220 	movwvs	r0, #8736	; 0x2220
    1a68:	cf030021 	svcgt	0x00030021

00001a6a <Code_362>:
    1a6a:	cf03      	ldmia	r7!, {r0, r1}
    1a6c:	7030      	strb	r0, [r6, #0]
    1a6e:	000e      	movs	r6, r1
    1a70:	4770      	bx	lr

00001a72 <allocator_1store>:
    1a72:	b500      	push	{lr}
    1a74:	f7fe fdb7 	bl	5e6 <expect_two_elements>
    1a78:	3f04      	subs	r7, #4
    1a7a:	603e      	str	r6, [r7, #0]
    1a7c:	4e21      	ldr	r6, [pc, #132]	; (1b04 <Code_365+0x42>)
    1a7e:	6903      	ldr	r3, [r0, #16]
    1a80:	2b28      	cmp	r3, #40	; 0x28
    1a82:	d108      	bne.n	1a96 <allocator_1store+0x24>
    1a84:	6943      	ldr	r3, [r0, #20]
    1a86:	211f      	movs	r1, #31
    1a88:	4019      	ands	r1, r3
    1a8a:	0189      	lsls	r1, r1, #6
    1a8c:	430e      	orrs	r6, r1
    1a8e:	211f      	movs	r1, #31
    1a90:	438b      	bics	r3, r1
    1a92:	f7fe fd51 	bl	538 <generiere_adresskonstante>
    1a96:	00db      	lsls	r3, r3, #3
    1a98:	431e      	orrs	r6, r3
    1a9a:	6983      	ldr	r3, [r0, #24]
    1a9c:	2b28      	cmp	r3, #40	; 0x28
    1a9e:	d102      	bne.n	1aa6 <allocator_1store+0x34>
    1aa0:	69c3      	ldr	r3, [r0, #28]
    1aa2:	f7fe fd3c 	bl	51e <generiere_konstante>
    1aa6:	431e      	orrs	r6, r3
    1aa8:	f001 fc95 	bl	33d6 <Code_793>
    1aac:	f7fe fdce 	bl	64c <eliminiere_tos>
    1ab0:	f7fe fdcc 	bl	64c <eliminiere_tos>
    1ab4:	bd00      	pop	{pc}
    1ab6:	46c0      	nop			; (mov r8, r8)

00001ab8 <Dictionary_365>:
    1ab8:	00001b08 	andeq	r1, r0, r8, lsl #22
    1abc:	63030220 	movwvs	r0, #12832	; 0x3220
    1ac0:	cf03212b 	svcgt	0x0003212b

00001ac2 <Code_365>:
    1ac2:	cf03      	ldmia	r7!, {r0, r1}
    1ac4:	7832      	ldrb	r2, [r6, #0]
    1ac6:	1812      	adds	r2, r2, r0
    1ac8:	7032      	strb	r2, [r6, #0]
    1aca:	000e      	movs	r6, r1
    1acc:	4770      	bx	lr
    1ace:	b500      	push	{lr}
    1ad0:	f7fe fd89 	bl	5e6 <expect_two_elements>
    1ad4:	f7ff fa70 	bl	fb8 <dup_allocator>
    1ad8:	f7ff ffa3 	bl	1a22 <allocator_1fetch>
    1adc:	f7ff faf9 	bl	10d2 <rot_allocator>
    1ae0:	f000 fb4f 	bl	2182 <plus_allocator>
    1ae4:	f7ff fa9e 	bl	1024 <swap_allocator>
    1ae8:	f7ff ffc3 	bl	1a72 <allocator_1store>
    1aec:	bd00      	pop	{pc}
    1aee:	68000000 	stmdavs	r0, {}	; <UNPREDICTABLE>
    1af2:	60000000 	andvs	r0, r0, r0
    1af6:	88000000 	stmdahi	r0, {}	; <UNPREDICTABLE>
    1afa:	80000000 	andhi	r0, r0, r0
    1afe:	78000000 	stmdavc	r0, {}	; <UNPREDICTABLE>
    1b02:	70000000 	andvc	r0, r0, r0
	...

00001b08 <Dictionary_366>:
    1b08:	00001b48 	andeq	r1, r0, r8, asr #22
    1b0c:	62040220 	andvs	r0, r4, #2
    1b10:	00217369 	eoreq	r7, r1, r9, ror #6

00001b14 <Code_366>:
    1b14:	cf03      	ldmia	r7!, {r0, r1}
    1b16:	6832      	ldr	r2, [r6, #0]
    1b18:	4302      	orrs	r2, r0
    1b1a:	6032      	str	r2, [r6, #0]
    1b1c:	000e      	movs	r6, r1
    1b1e:	4770      	bx	lr
    1b20:	b500      	push	{lr}
    1b22:	f7fe fd60 	bl	5e6 <expect_two_elements>
    1b26:	f7ff fa47 	bl	fb8 <dup_allocator>
    1b2a:	f7ff fe9f 	bl	186c <allocator_4fetch>
    1b2e:	f7ff fad0 	bl	10d2 <rot_allocator>
    1b32:	3f04      	subs	r7, #4
    1b34:	603e      	str	r6, [r7, #0]
    1b36:	4eab      	ldr	r6, [pc, #684]	; (1de4 <Code_399+0x28>)
    1b38:	f7fe fdd6 	bl	6e8 <alloc_kommutativ>
    1b3c:	f7ff fa72 	bl	1024 <swap_allocator>
    1b40:	f7ff febc 	bl	18bc <allocator_4store>
    1b44:	bd00      	pop	{pc}
    1b46:	46c0      	nop			; (mov r8, r8)

00001b48 <Dictionary_369>:
    1b48:	00001b88 	andeq	r1, r0, r8, lsl #23
    1b4c:	62040220 	andvs	r0, r4, #2
    1b50:	00216369 	eoreq	r6, r1, r9, ror #6

00001b54 <Code_369>:
    1b54:	cf03      	ldmia	r7!, {r0, r1}
    1b56:	6832      	ldr	r2, [r6, #0]
    1b58:	4382      	bics	r2, r0
    1b5a:	6032      	str	r2, [r6, #0]
    1b5c:	000e      	movs	r6, r1
    1b5e:	4770      	bx	lr
    1b60:	b500      	push	{lr}
    1b62:	f7fe fd40 	bl	5e6 <expect_two_elements>
    1b66:	f7ff fa27 	bl	fb8 <dup_allocator>
    1b6a:	f7ff fe7f 	bl	186c <allocator_4fetch>
    1b6e:	f7ff fab0 	bl	10d2 <rot_allocator>
    1b72:	3f04      	subs	r7, #4
    1b74:	603e      	str	r6, [r7, #0]
    1b76:	4e9c      	ldr	r6, [pc, #624]	; (1de8 <Code_399+0x2c>)
    1b78:	f7fe fdd0 	bl	71c <alloc_unkommutativ>
    1b7c:	f7ff fa52 	bl	1024 <swap_allocator>
    1b80:	f7ff fe9c 	bl	18bc <allocator_4store>
    1b84:	bd00      	pop	{pc}
    1b86:	46c0      	nop			; (mov r8, r8)

00001b88 <Dictionary_372>:
    1b88:	00001bc8 	andeq	r1, r0, r8, asr #23
    1b8c:	78040220 	stmdavc	r4, {r5, r9}
    1b90:	0021726f 	eoreq	r7, r1, pc, ror #4

00001b94 <Code_372>:
    1b94:	cf03      	ldmia	r7!, {r0, r1}
    1b96:	6832      	ldr	r2, [r6, #0]
    1b98:	4042      	eors	r2, r0
    1b9a:	6032      	str	r2, [r6, #0]
    1b9c:	000e      	movs	r6, r1
    1b9e:	4770      	bx	lr
    1ba0:	b500      	push	{lr}
    1ba2:	f7fe fd20 	bl	5e6 <expect_two_elements>
    1ba6:	f7ff fa07 	bl	fb8 <dup_allocator>
    1baa:	f7ff fe5f 	bl	186c <allocator_4fetch>
    1bae:	f7ff fa90 	bl	10d2 <rot_allocator>
    1bb2:	3f04      	subs	r7, #4
    1bb4:	603e      	str	r6, [r7, #0]
    1bb6:	4e8d      	ldr	r6, [pc, #564]	; (1dec <Code_399+0x30>)
    1bb8:	f7fe fd96 	bl	6e8 <alloc_kommutativ>
    1bbc:	f7ff fa32 	bl	1024 <swap_allocator>
    1bc0:	f7ff fe7c 	bl	18bc <allocator_4store>
    1bc4:	bd00      	pop	{pc}
    1bc6:	46c0      	nop			; (mov r8, r8)

00001bc8 <Dictionary_375>:
    1bc8:	00001bfc 	strdeq	r1, [r0], -ip
    1bcc:	62040220 	andvs	r0, r4, #2
    1bd0:	00407469 	subeq	r7, r0, r9, ror #8

00001bd4 <Code_375>:
    1bd4:	cf01      	ldmia	r7!, {r0}
    1bd6:	6836      	ldr	r6, [r6, #0]
    1bd8:	4006      	ands	r6, r0
    1bda:	3e01      	subs	r6, #1
    1bdc:	41b6      	sbcs	r6, r6
    1bde:	43f6      	mvns	r6, r6
    1be0:	4770      	bx	lr
    1be2:	b500      	push	{lr}
    1be4:	f7fe fcff 	bl	5e6 <expect_two_elements>
    1be8:	f7ff fe40 	bl	186c <allocator_4fetch>
    1bec:	3f04      	subs	r7, #4
    1bee:	603e      	str	r6, [r7, #0]
    1bf0:	4e7f      	ldr	r6, [pc, #508]	; (1df0 <Code_399+0x34>)
    1bf2:	f7fe fd79 	bl	6e8 <alloc_kommutativ>
    1bf6:	f7ff fc30 	bl	145a <allocator_unequal_zero>
    1bfa:	bd00      	pop	{pc}

00001bfc <Dictionary_378>:
    1bfc:	00001c3c 	andeq	r1, r0, ip, lsr ip
    1c00:	68050220 	stmdavs	r5, {r5, r9}
    1c04:	21736962 	cmncs	r3, r2, ror #18

00001c08 <Code_378>:
    1c08:	cf03      	ldmia	r7!, {r0, r1}
    1c0a:	8832      	ldrh	r2, [r6, #0]
    1c0c:	4302      	orrs	r2, r0
    1c0e:	8032      	strh	r2, [r6, #0]
    1c10:	000e      	movs	r6, r1
    1c12:	4770      	bx	lr
    1c14:	b500      	push	{lr}
    1c16:	f7fe fce6 	bl	5e6 <expect_two_elements>
    1c1a:	f7ff f9cd 	bl	fb8 <dup_allocator>
    1c1e:	f7ff fe92 	bl	1946 <allocator_2fetch>
    1c22:	f7ff fa56 	bl	10d2 <rot_allocator>
    1c26:	3f04      	subs	r7, #4
    1c28:	603e      	str	r6, [r7, #0]
    1c2a:	4e6e      	ldr	r6, [pc, #440]	; (1de4 <Code_399+0x28>)
    1c2c:	f7fe fd5c 	bl	6e8 <alloc_kommutativ>
    1c30:	f7ff f9f8 	bl	1024 <swap_allocator>
    1c34:	f7ff feaf 	bl	1996 <allocator_2store>
    1c38:	bd00      	pop	{pc}
    1c3a:	46c0      	nop			; (mov r8, r8)

00001c3c <Dictionary_381>:
    1c3c:	00001c7c 	andeq	r1, r0, ip, ror ip
    1c40:	68050220 	stmdavs	r5, {r5, r9}
    1c44:	21636962 	cmncs	r3, r2, ror #18

00001c48 <Code_381>:
    1c48:	cf03      	ldmia	r7!, {r0, r1}
    1c4a:	8832      	ldrh	r2, [r6, #0]
    1c4c:	4382      	bics	r2, r0
    1c4e:	8032      	strh	r2, [r6, #0]
    1c50:	000e      	movs	r6, r1
    1c52:	4770      	bx	lr
    1c54:	b500      	push	{lr}
    1c56:	f7fe fcc6 	bl	5e6 <expect_two_elements>
    1c5a:	f7ff f9ad 	bl	fb8 <dup_allocator>
    1c5e:	f7ff fe72 	bl	1946 <allocator_2fetch>
    1c62:	f7ff fa36 	bl	10d2 <rot_allocator>
    1c66:	3f04      	subs	r7, #4
    1c68:	603e      	str	r6, [r7, #0]
    1c6a:	4e5f      	ldr	r6, [pc, #380]	; (1de8 <Code_399+0x2c>)
    1c6c:	f7fe fd56 	bl	71c <alloc_unkommutativ>
    1c70:	f7ff f9d8 	bl	1024 <swap_allocator>
    1c74:	f7ff fe8f 	bl	1996 <allocator_2store>
    1c78:	bd00      	pop	{pc}
    1c7a:	46c0      	nop			; (mov r8, r8)

00001c7c <Dictionary_384>:
    1c7c:	00001cbc 			; <UNDEFINED> instruction: 0x00001cbc
    1c80:	68050220 	stmdavs	r5, {r5, r9}
    1c84:	21726f78 	cmncs	r2, r8, ror pc

00001c88 <Code_384>:
    1c88:	cf03      	ldmia	r7!, {r0, r1}
    1c8a:	8832      	ldrh	r2, [r6, #0]
    1c8c:	4042      	eors	r2, r0
    1c8e:	8032      	strh	r2, [r6, #0]
    1c90:	000e      	movs	r6, r1
    1c92:	4770      	bx	lr
    1c94:	b500      	push	{lr}
    1c96:	f7fe fca6 	bl	5e6 <expect_two_elements>
    1c9a:	f7ff f98d 	bl	fb8 <dup_allocator>
    1c9e:	f7ff fe52 	bl	1946 <allocator_2fetch>
    1ca2:	f7ff fa16 	bl	10d2 <rot_allocator>
    1ca6:	3f04      	subs	r7, #4
    1ca8:	603e      	str	r6, [r7, #0]
    1caa:	4e50      	ldr	r6, [pc, #320]	; (1dec <Code_399+0x30>)
    1cac:	f7fe fd1c 	bl	6e8 <alloc_kommutativ>
    1cb0:	f7ff f9b8 	bl	1024 <swap_allocator>
    1cb4:	f7ff fe6f 	bl	1996 <allocator_2store>
    1cb8:	bd00      	pop	{pc}
    1cba:	46c0      	nop			; (mov r8, r8)

00001cbc <Dictionary_387>:
    1cbc:	00001cf0 	strdeq	r1, [r0], -r0
    1cc0:	68050220 	stmdavs	r5, {r5, r9}
    1cc4:	40746962 	rsbsmi	r6, r4, r2, ror #18

00001cc8 <Code_387>:
    1cc8:	cf01      	ldmia	r7!, {r0}
    1cca:	8836      	ldrh	r6, [r6, #0]
    1ccc:	4006      	ands	r6, r0
    1cce:	3e01      	subs	r6, #1
    1cd0:	41b6      	sbcs	r6, r6
    1cd2:	43f6      	mvns	r6, r6
    1cd4:	4770      	bx	lr
    1cd6:	b500      	push	{lr}
    1cd8:	f7fe fc85 	bl	5e6 <expect_two_elements>
    1cdc:	f7ff fe33 	bl	1946 <allocator_2fetch>
    1ce0:	3f04      	subs	r7, #4
    1ce2:	603e      	str	r6, [r7, #0]
    1ce4:	4e42      	ldr	r6, [pc, #264]	; (1df0 <Code_399+0x34>)
    1ce6:	f7fe fcff 	bl	6e8 <alloc_kommutativ>
    1cea:	f7ff fbb6 	bl	145a <allocator_unequal_zero>
    1cee:	bd00      	pop	{pc}

00001cf0 <Dictionary_390>:
    1cf0:	00001d30 	andeq	r1, r0, r0, lsr sp
    1cf4:	63050220 	movwvs	r0, #21024	; 0x5220
    1cf8:	21736962 	cmncs	r3, r2, ror #18

00001cfc <Code_390>:
    1cfc:	cf03      	ldmia	r7!, {r0, r1}
    1cfe:	7832      	ldrb	r2, [r6, #0]
    1d00:	4302      	orrs	r2, r0
    1d02:	7032      	strb	r2, [r6, #0]
    1d04:	000e      	movs	r6, r1
    1d06:	4770      	bx	lr
    1d08:	b500      	push	{lr}
    1d0a:	f7fe fc6c 	bl	5e6 <expect_two_elements>
    1d0e:	f7ff f953 	bl	fb8 <dup_allocator>
    1d12:	f7ff fe86 	bl	1a22 <allocator_1fetch>
    1d16:	f7ff f9dc 	bl	10d2 <rot_allocator>
    1d1a:	3f04      	subs	r7, #4
    1d1c:	603e      	str	r6, [r7, #0]
    1d1e:	4e31      	ldr	r6, [pc, #196]	; (1de4 <Code_399+0x28>)
    1d20:	f7fe fce2 	bl	6e8 <alloc_kommutativ>
    1d24:	f7ff f97e 	bl	1024 <swap_allocator>
    1d28:	f7ff fea3 	bl	1a72 <allocator_1store>
    1d2c:	bd00      	pop	{pc}
    1d2e:	46c0      	nop			; (mov r8, r8)

00001d30 <Dictionary_393>:
    1d30:	00001d70 	andeq	r1, r0, r0, ror sp
    1d34:	63050220 	movwvs	r0, #21024	; 0x5220
    1d38:	21636962 	cmncs	r3, r2, ror #18

00001d3c <Code_393>:
    1d3c:	cf03      	ldmia	r7!, {r0, r1}
    1d3e:	7832      	ldrb	r2, [r6, #0]
    1d40:	4382      	bics	r2, r0
    1d42:	7032      	strb	r2, [r6, #0]
    1d44:	000e      	movs	r6, r1
    1d46:	4770      	bx	lr
    1d48:	b500      	push	{lr}
    1d4a:	f7fe fc4c 	bl	5e6 <expect_two_elements>
    1d4e:	f7ff f933 	bl	fb8 <dup_allocator>
    1d52:	f7ff fe66 	bl	1a22 <allocator_1fetch>
    1d56:	f7ff f9bc 	bl	10d2 <rot_allocator>
    1d5a:	3f04      	subs	r7, #4
    1d5c:	603e      	str	r6, [r7, #0]
    1d5e:	4e22      	ldr	r6, [pc, #136]	; (1de8 <Code_399+0x2c>)
    1d60:	f7fe fcdc 	bl	71c <alloc_unkommutativ>
    1d64:	f7ff f95e 	bl	1024 <swap_allocator>
    1d68:	f7ff fe83 	bl	1a72 <allocator_1store>
    1d6c:	bd00      	pop	{pc}
    1d6e:	46c0      	nop			; (mov r8, r8)

00001d70 <Dictionary_396>:
    1d70:	00001db0 			; <UNDEFINED> instruction: 0x00001db0
    1d74:	63050220 	movwvs	r0, #21024	; 0x5220
    1d78:	21726f78 	cmncs	r2, r8, ror pc

00001d7c <Code_396>:
    1d7c:	cf03      	ldmia	r7!, {r0, r1}
    1d7e:	7832      	ldrb	r2, [r6, #0]
    1d80:	4042      	eors	r2, r0
    1d82:	7032      	strb	r2, [r6, #0]
    1d84:	000e      	movs	r6, r1
    1d86:	4770      	bx	lr
    1d88:	b500      	push	{lr}
    1d8a:	f7fe fc2c 	bl	5e6 <expect_two_elements>
    1d8e:	f7ff f913 	bl	fb8 <dup_allocator>
    1d92:	f7ff fe46 	bl	1a22 <allocator_1fetch>
    1d96:	f7ff f99c 	bl	10d2 <rot_allocator>
    1d9a:	3f04      	subs	r7, #4
    1d9c:	603e      	str	r6, [r7, #0]
    1d9e:	4e13      	ldr	r6, [pc, #76]	; (1dec <Code_399+0x30>)
    1da0:	f7fe fca2 	bl	6e8 <alloc_kommutativ>
    1da4:	f7ff f93e 	bl	1024 <swap_allocator>
    1da8:	f7ff fe63 	bl	1a72 <allocator_1store>
    1dac:	bd00      	pop	{pc}
    1dae:	46c0      	nop			; (mov r8, r8)

00001db0 <Dictionary_399>:
    1db0:	00001df4 	strdeq	r1, [r0], -r4
    1db4:	63050220 	movwvs	r0, #21024	; 0x5220
    1db8:	40746962 	rsbsmi	r6, r4, r2, ror #18

00001dbc <Code_399>:
    1dbc:	cf01      	ldmia	r7!, {r0}
    1dbe:	7836      	ldrb	r6, [r6, #0]
    1dc0:	4006      	ands	r6, r0
    1dc2:	3e01      	subs	r6, #1
    1dc4:	41b6      	sbcs	r6, r6
    1dc6:	43f6      	mvns	r6, r6
    1dc8:	4770      	bx	lr
    1dca:	b500      	push	{lr}
    1dcc:	f7fe fc0b 	bl	5e6 <expect_two_elements>
    1dd0:	f7ff fe27 	bl	1a22 <allocator_1fetch>
    1dd4:	3f04      	subs	r7, #4
    1dd6:	603e      	str	r6, [r7, #0]
    1dd8:	4e05      	ldr	r6, [pc, #20]	; (1df0 <Code_399+0x34>)
    1dda:	f7fe fc85 	bl	6e8 <alloc_kommutativ>
    1dde:	f7ff fb3c 	bl	145a <allocator_unequal_zero>
    1de2:	bd00      	pop	{pc}
    1de4:	00004300 	andeq	r4, r0, r0, lsl #6
    1de8:	00004380 	andeq	r4, r0, r0, lsl #7
    1dec:	00004040 	andeq	r4, r0, r0, asr #32
    1df0:	00004000 	andeq	r4, r0, r0

00001df4 <Dictionary_402>:
    1df4:	00001f04 	andeq	r1, r0, r4, lsl #30
    1df8:	66060000 	strvs	r0, [r6], -r0
    1dfc:	6873616c 	ldmdavs	r3!, {r2, r3, r5, r6, r8, sp, lr}^
    1e00:	00300021 	eorseq	r0, r0, r1, lsr #32

00001e02 <Code_402>:
    1e02:	0030      	movs	r0, r6
    1e04:	cf40      	ldmia	r7!, {r6}
    1e06:	0031      	movs	r1, r6
    1e08:	cf40      	ldmia	r7!, {r6}
    1e0a:	4b85      	ldr	r3, [pc, #532]	; (2020 <Code_419+0x6>)
    1e0c:	4298      	cmp	r0, r3
    1e0e:	d368      	bcc.n	1ee2 <Code_402+0xe0>
    1e10:	4b84      	ldr	r3, [pc, #528]	; (2024 <Code_419+0xa>)
    1e12:	4299      	cmp	r1, r3
    1e14:	d02e      	beq.n	1e74 <Code_402+0x72>
    1e16:	2203      	movs	r2, #3
    1e18:	4002      	ands	r2, r0
    1e1a:	d12c      	bne.n	1e76 <Code_402+0x74>
    1e1c:	6802      	ldr	r2, [r0, #0]
    1e1e:	429a      	cmp	r2, r3
    1e20:	d146      	bne.n	1eb0 <Code_402+0xae>
    1e22:	4a81      	ldr	r2, [pc, #516]	; (2028 <Code_419+0xe>)
    1e24:	7813      	ldrb	r3, [r2, #0]
    1e26:	2280      	movs	r2, #128	; 0x80
    1e28:	401a      	ands	r2, r3
    1e2a:	d0fa      	beq.n	1e22 <Code_402+0x20>
    1e2c:	2230      	movs	r2, #48	; 0x30
    1e2e:	401a      	ands	r2, r3
    1e30:	d002      	beq.n	1e38 <Code_402+0x36>
    1e32:	4a7d      	ldr	r2, [pc, #500]	; (2028 <Code_419+0xe>)
    1e34:	2330      	movs	r3, #48	; 0x30
    1e36:	7013      	strb	r3, [r2, #0]
    1e38:	4a7c      	ldr	r2, [pc, #496]	; (202c <Code_419+0x12>)
    1e3a:	2306      	movs	r3, #6
    1e3c:	7013      	strb	r3, [r2, #0]
    1e3e:	4a7c      	ldr	r2, [pc, #496]	; (2030 <Code_419+0x16>)
    1e40:	7010      	strb	r0, [r2, #0]
    1e42:	0a00      	lsrs	r0, r0, #8
    1e44:	4a7b      	ldr	r2, [pc, #492]	; (2034 <Code_419+0x1a>)
    1e46:	7010      	strb	r0, [r2, #0]
    1e48:	0a00      	lsrs	r0, r0, #8
    1e4a:	4a7b      	ldr	r2, [pc, #492]	; (2038 <Code_419+0x1e>)
    1e4c:	7010      	strb	r0, [r2, #0]
    1e4e:	4a7b      	ldr	r2, [pc, #492]	; (203c <Code_419+0x22>)
    1e50:	7011      	strb	r1, [r2, #0]
    1e52:	0a09      	lsrs	r1, r1, #8
    1e54:	4a7a      	ldr	r2, [pc, #488]	; (2040 <Code_419+0x26>)
    1e56:	7011      	strb	r1, [r2, #0]
    1e58:	0a09      	lsrs	r1, r1, #8
    1e5a:	4a7a      	ldr	r2, [pc, #488]	; (2044 <Code_419+0x2a>)
    1e5c:	7011      	strb	r1, [r2, #0]
    1e5e:	0a09      	lsrs	r1, r1, #8
    1e60:	4a79      	ldr	r2, [pc, #484]	; (2048 <Code_419+0x2e>)
    1e62:	7011      	strb	r1, [r2, #0]
    1e64:	4a70      	ldr	r2, [pc, #448]	; (2028 <Code_419+0xe>)
    1e66:	2380      	movs	r3, #128	; 0x80
    1e68:	7013      	strb	r3, [r2, #0]
    1e6a:	4a6f      	ldr	r2, [pc, #444]	; (2028 <Code_419+0xe>)
    1e6c:	7813      	ldrb	r3, [r2, #0]
    1e6e:	2280      	movs	r2, #128	; 0x80
    1e70:	401a      	ands	r2, r3
    1e72:	d0fa      	beq.n	1e6a <Code_402+0x68>
    1e74:	4770      	bx	lr
    1e76:	f000 fdc5 	bl	2a04 <dotgaensefuesschen>
    1e7a:	64644130 	strbtvs	r4, [r4], #-304	; 0x130
    1e7e:	73736572 	cmnvc	r3, #478150656	; 0x1c800000
    1e82:	73616820 	cmnvc	r1, #2097152	; 0x200000
    1e86:	206f7420 	rsbcs	r7, pc, r0, lsr #8
    1e8a:	34206562 	strtcc	r6, [r0], #-1378	; 0x562
    1e8e:	696c612d 	stmdbvs	ip!, {r0, r2, r3, r5, r8, sp, lr}^
    1e92:	64656e67 	strbtvs	r6, [r5], #-3687	; 0xe67
    1e96:	726f6620 	rsbvc	r6, pc, #33554432	; 0x2000000
    1e9a:	69727720 	ldmdbvs	r2!, {r5, r8, r9, sl, ip, sp, lr}^
    1e9e:	676e6974 			; <UNDEFINED> instruction: 0x676e6974
    1ea2:	616c6620 	cmnvs	ip, r0, lsr #12
    1ea6:	21206873 	teqcs	r0, r3, ror r8
    1eaa:	f002000a 			; <UNDEFINED> instruction: 0xf002000a
    1eae:	fc68 f000 	stc2l	0, cr15, [r8], #-0
    1eb2:	fda8 4629 	stc2	6, cr4, [r8, #164]!	; 0xa4
    1eb6:	6873616c 	ldmdavs	r3!, {r2, r3, r5, r6, r8, sp, lr}^
    1eba:	636f6c20 	cmnvs	pc, #8192	; 0x2000
    1ebe:	6f697461 	svcvs	0x00697461
    1ec2:	6163206e 	cmnvs	r3, lr, rrx
    1ec6:	746f6e6e 	strbtvc	r6, [pc], #-3694	; 1ece <Code_402+0xcc>
    1eca:	20656220 	rsbcs	r6, r5, r0, lsr #4
    1ece:	74697277 	strbtvc	r7, [r9], #-631	; 0x277
    1ed2:	206e6574 	rsbcs	r6, lr, r4, ror r5
    1ed6:	63697774 	cmnvs	r9, #30408704	; 0x1d00000
    1eda:	0a212065 	beq	84a076 <BIT23+0x4a076>
    1ede:	f002 fc4f 	bl	4780 <Code_1178>
    1ee2:	f000 fd8f 	bl	2a04 <dotgaensefuesschen>
    1ee6:	6e614319 	mcrvs	3, 3, r4, cr1, cr9, {0}
    1eea:	20746f6e 	rsbscs	r6, r4, lr, ror #30
    1eee:	74697277 	strbtvc	r7, [r9], #-631	; 0x277
    1ef2:	6e692065 	cdpvs	0, 6, cr2, cr9, cr5, {3}
    1ef6:	63206f74 	teqvs	r0, #464	; 0x1d0
    1efa:	2065726f 	rsbcs	r7, r5, pc, ror #4
    1efe:	f0020a21 			; <UNDEFINED> instruction: 0xf0020a21
    1f02:	fc3e 1f88 	ldc2	15, cr1, [lr], #-544	; 0xfffffde0

00001f04 <Dictionary_408>:
    1f04:	00001f88 	andeq	r1, r0, r8, lsl #31
    1f08:	660e0000 	strvs	r0, [lr], -r0
    1f0c:	6873616c 	ldmdavs	r3!, {r2, r3, r5, r6, r8, sp, lr}^
    1f10:	65676170 	strbvs	r6, [r7, #-368]!	; 0x170
    1f14:	73617265 	cmnvc	r1, #1342177286	; 0x50000006
    1f18:	b50f0065 	strlt	r0, [pc, #-101]	; 1ebb <Code_402+0xb9>

00001f1a <Code_408>:
    1f1a:	b50f      	push	{r0, r1, r2, r3, lr}
    1f1c:	0030      	movs	r0, r6
    1f1e:	cf40      	ldmia	r7!, {r6}
    1f20:	4b3f      	ldr	r3, [pc, #252]	; (2020 <Code_419+0x6>)
    1f22:	4298      	cmp	r0, r3
    1f24:	d320      	bcc.n	1f68 <Code_408+0x4e>
    1f26:	2303      	movs	r3, #3
    1f28:	4398      	bics	r0, r3
    1f2a:	4a3f      	ldr	r2, [pc, #252]	; (2028 <Code_419+0xe>)
    1f2c:	7813      	ldrb	r3, [r2, #0]
    1f2e:	2280      	movs	r2, #128	; 0x80
    1f30:	401a      	ands	r2, r3
    1f32:	d0fa      	beq.n	1f2a <Code_408+0x10>
    1f34:	2230      	movs	r2, #48	; 0x30
    1f36:	401a      	ands	r2, r3
    1f38:	d002      	beq.n	1f40 <Code_408+0x26>
    1f3a:	4a3b      	ldr	r2, [pc, #236]	; (2028 <Code_419+0xe>)
    1f3c:	2330      	movs	r3, #48	; 0x30
    1f3e:	7013      	strb	r3, [r2, #0]
    1f40:	4a3a      	ldr	r2, [pc, #232]	; (202c <Code_419+0x12>)
    1f42:	2309      	movs	r3, #9
    1f44:	7013      	strb	r3, [r2, #0]
    1f46:	4a3a      	ldr	r2, [pc, #232]	; (2030 <Code_419+0x16>)
    1f48:	7010      	strb	r0, [r2, #0]
    1f4a:	0a00      	lsrs	r0, r0, #8
    1f4c:	4a39      	ldr	r2, [pc, #228]	; (2034 <Code_419+0x1a>)
    1f4e:	7010      	strb	r0, [r2, #0]
    1f50:	0a00      	lsrs	r0, r0, #8
    1f52:	4a39      	ldr	r2, [pc, #228]	; (2038 <Code_419+0x1e>)
    1f54:	7010      	strb	r0, [r2, #0]
    1f56:	4a34      	ldr	r2, [pc, #208]	; (2028 <Code_419+0xe>)
    1f58:	2380      	movs	r3, #128	; 0x80
    1f5a:	7013      	strb	r3, [r2, #0]
    1f5c:	4a32      	ldr	r2, [pc, #200]	; (2028 <Code_419+0xe>)
    1f5e:	7813      	ldrb	r3, [r2, #0]
    1f60:	2280      	movs	r2, #128	; 0x80
    1f62:	401a      	ands	r2, r3
    1f64:	d0fa      	beq.n	1f5c <Code_408+0x42>
    1f66:	bd0f      	pop	{r0, r1, r2, r3, pc}
    1f68:	f000 fd4c 	bl	2a04 <dotgaensefuesschen>
    1f6c:	6e614314 	mcrvs	3, 3, r4, cr1, cr4, {0}
    1f70:	20746f6e 	rsbscs	r6, r4, lr, ror #30
    1f74:	73617265 	cmnvc	r1, #1342177286	; 0x50000006
    1f78:	6f632065 	svcvs	0x00632065
    1f7c:	21206572 	teqcs	r0, r2, ror r5
    1f80:	f002000a 			; <UNDEFINED> instruction: 0xf002000a
    1f84:	fbfd 46c0 			; <UNDEFINED> instruction: 0xfbfd46c0

00001f88 <Dictionary_411>:
    1f88:	00002004 	andeq	r2, r0, r4
    1f8c:	650a0000 	strvs	r0, [sl, #-0]
    1f90:	65736172 	ldrbvs	r6, [r3, #-370]!	; 0x172
    1f94:	73616c66 	cmnvc	r1, #26112	; 0x6600
    1f98:	48210068 	stmdami	r1!, {r3, r5, r6}

00001f9a <Code_411>:
    1f9a:	4821      	ldr	r0, [pc, #132]	; (2020 <Code_419+0x6>)

00001f9c <eraseflash_intern>:
    1f9c:	b672      	cpsid	i
    1f9e:	492b      	ldr	r1, [pc, #172]	; (204c <Code_419+0x32>)
    1fa0:	4a2b      	ldr	r2, [pc, #172]	; (2050 <Code_419+0x36>)
    1fa2:	6803      	ldr	r3, [r0, #0]
    1fa4:	4293      	cmp	r3, r2
    1fa6:	d01c      	beq.n	1fe2 <eraseflash_intern+0x46>
    1fa8:	3f04      	subs	r7, #4
    1faa:	603e      	str	r6, [r7, #0]
    1fac:	0006      	movs	r6, r0
    1fae:	3f04      	subs	r7, #4
    1fb0:	603e      	str	r6, [r7, #0]
    1fb2:	f000 fd27 	bl	2a04 <dotgaensefuesschen>
    1fb6:	61724510 	cmnvs	r2, r0, lsl r5
    1fba:	62206573 	eorvs	r6, r0, #482344960	; 0x1cc00000
    1fbe:	6b636f6c 	blvs	18ddd76 <BIT24+0x8ddd76>
    1fc2:	20746120 	rsbscs	r6, r4, r0, lsr #2
    1fc6:	f0000020 			; <UNDEFINED> instruction: 0xf0000020
    1fca:	fd94 f000 	ldc2	0, cr15, [r4]
    1fce:	fd1a 200c 	ldc2	0, cr2, [sl, #-48]	; 0xffffffd0
    1fd2:	6d6f7266 	sfmvs	f7, 2, [pc, #-408]!	; 1e40 <Code_402+0x3e>
    1fd6:	616c4620 	cmnvs	ip, r0, lsr #12
    1fda:	000a6873 	andeq	r6, sl, r3, ror r8
    1fde:	f7ff ff9c 	bl	1f1a <Code_408>
    1fe2:	3004      	adds	r0, #4
    1fe4:	4288      	cmp	r0, r1
    1fe6:	d1dc      	bne.n	1fa2 <eraseflash_intern+0x6>
    1fe8:	f000 fd0c 	bl	2a04 <dotgaensefuesschen>
    1fec:	6e694612 	mcrvs	6, 3, r4, cr9, cr2, {0}
    1ff0:	65687369 	strbvs	r7, [r8, #-873]!	; 0x369
    1ff4:	52202e64 	eorpl	r2, r0, #1600	; 0x640
    1ff8:	74657365 	strbtvc	r7, [r5], #-869	; 0x365
    1ffc:	000a2120 	andeq	r2, sl, r0, lsr #2
    2000:	f002 fc50 	bl	48a4 <Code_1191>

00002004 <Dictionary_419>:
    2004:	0000209c 	muleq	r0, ip, r0
    2008:	650e0000 	strvs	r0, [lr, #-0]
    200c:	65736172 	ldrbvs	r6, [r3, #-370]!	; 0x172
    2010:	73616c66 	cmnvc	r1, #26112	; 0x6600
    2014:	6f726668 	svcvs	0x00726668
    2018:	0030006d 	eorseq	r0, r0, sp, rrx

0000201a <Code_419>:
    201a:	0030      	movs	r0, r6
    201c:	cf40      	ldmia	r7!, {r6}
    201e:	e7bd      	b.n	1f9c <eraseflash_intern>
    2020:	00006000 	andeq	r6, r0, r0
    2024:	ffffffff 			; <UNDEFINED> instruction: 0xffffffff
    2028:	40020000 	andmi	r0, r2, r0
    202c:	40020007 	andmi	r0, r2, r7
    2030:	40020004 	andmi	r0, r2, r4
    2034:	40020005 	andmi	r0, r2, r5
    2038:	40020006 	andmi	r0, r2, r6
    203c:	40020008 	andmi	r0, r2, r8
    2040:	40020009 	andmi	r0, r2, r9
    2044:	4002000a 	andmi	r0, r2, sl
    2048:	4002000b 	andmi	r0, r2, fp
    204c:	00020000 	andeq	r0, r2, r0
    2050:	ffffffff 			; <UNDEFINED> instruction: 0xffffffff

00002054 <sammeltabelleleeren>:
    2054:	4846      	ldr	r0, [pc, #280]	; (2170 <hflashstoreemulation_gefunden+0x2a>)
    2056:	2160      	movs	r1, #96	; 0x60
    2058:	2200      	movs	r2, #0
    205a:	8002      	strh	r2, [r0, #0]
    205c:	3002      	adds	r0, #2
    205e:	3901      	subs	r1, #1
    2060:	d1fb      	bne.n	205a <sammeltabelleleeren+0x6>
    2062:	4770      	bx	lr

00002064 <sammeltabelleleerprobe>:
    2064:	4842      	ldr	r0, [pc, #264]	; (2170 <hflashstoreemulation_gefunden+0x2a>)
    2066:	2160      	movs	r1, #96	; 0x60
    2068:	8802      	ldrh	r2, [r0, #0]
    206a:	2a00      	cmp	r2, #0
    206c:	d012      	beq.n	2094 <sammeltabelleleerprobe+0x30>
    206e:	f000 fcc9 	bl	2a04 <dotgaensefuesschen>
    2072:	706e551d 	rsbvc	r5, lr, sp, lsl r5
    2076:	65726961 	ldrbvs	r6, [r2, #-2401]!	; 0x961
    207a:	36312064 	ldrtcc	r2, [r1], -r4, rrx
    207e:	7469622d 	strbtvc	r6, [r9], #-557	; 0x22d
    2082:	616c4620 	cmnvs	ip, r0, lsr #12
    2086:	77206873 			; <UNDEFINED> instruction: 0x77206873
    208a:	65746972 	ldrbvs	r6, [r4, #-2418]!	; 0x972
    208e:	f0020a2e 			; <UNDEFINED> instruction: 0xf0020a2e
    2092:	fb76 3002 	usada8	r0, r6, r2, r3
    2096:	3901      	subs	r1, #1
    2098:	d1e6      	bne.n	2068 <sammeltabelleleerprobe+0x4>
    209a:	4770      	bx	lr

0000209c <Dictionary_422>:
    209c:	00002174 	andeq	r2, r0, r4, ror r1
    20a0:	68070000 	stmdavs	r7, {}	; <UNPREDICTABLE>
    20a4:	73616c66 	cmnvc	r1, #26112	; 0x6600
    20a8:	b5302168 	ldrlt	r2, [r0, #-360]!	; 0x168

000020aa <Code_422>:
    20aa:	b530      	push	{r4, r5, lr}
    20ac:	0032      	movs	r2, r6
    20ae:	cf40      	ldmia	r7!, {r6}
    20b0:	0850      	lsrs	r0, r2, #1
    20b2:	d313      	bcc.n	20dc <Code_422+0x32>
    20b4:	f000 fca6 	bl	2a04 <dotgaensefuesschen>
    20b8:	6c66681e 	stclvs	8, cr6, [r6], #-120	; 0xffffff88
    20bc:	21687361 	cmncs	r8, r1, ror #6
    20c0:	65656e20 	strbvs	r6, [r5, #-3616]!	; 0xe20
    20c4:	65207364 	strvs	r7, [r0, #-868]!	; 0x364
    20c8:	206e6576 	rsbcs	r6, lr, r6, ror r5
    20cc:	72646461 	rsbvc	r6, r4, #1627389952	; 0x61000000
    20d0:	65737365 	ldrbvs	r7, [r3, #-869]!	; 0x365
    20d4:	000a2e73 	andeq	r2, sl, r3, ror lr
    20d8:	f002 fb52 	bl	4780 <Code_1178>
    20dc:	2302      	movs	r3, #2
    20de:	4053      	eors	r3, r2
    20e0:	4823      	ldr	r0, [pc, #140]	; (2170 <hflashstoreemulation_gefunden+0x2a>)
    20e2:	2120      	movs	r1, #32
    20e4:	8804      	ldrh	r4, [r0, #0]
    20e6:	8845      	ldrh	r5, [r0, #2]
    20e8:	042d      	lsls	r5, r5, #16
    20ea:	432c      	orrs	r4, r5
    20ec:	429c      	cmp	r4, r3
    20ee:	d02a      	beq.n	2146 <hflashstoreemulation_gefunden>
    20f0:	3006      	adds	r0, #6
    20f2:	3901      	subs	r1, #1
    20f4:	d1f6      	bne.n	20e4 <Code_422+0x3a>
    20f6:	481e      	ldr	r0, [pc, #120]	; (2170 <hflashstoreemulation_gefunden+0x2a>)
    20f8:	2120      	movs	r1, #32
    20fa:	8804      	ldrh	r4, [r0, #0]
    20fc:	8845      	ldrh	r5, [r0, #2]
    20fe:	042d      	lsls	r5, r5, #16
    2100:	432c      	orrs	r4, r5
    2102:	d01a      	beq.n	213a <hflashstoreemulation_leerestelle>
    2104:	3006      	adds	r0, #6
    2106:	3901      	subs	r1, #1
    2108:	d1f7      	bne.n	20fa <Code_422+0x50>
    210a:	f000 fc7b 	bl	2a04 <dotgaensefuesschen>
    210e:	6f6f5427 	svcvs	0x006f5427
    2112:	6e616d20 	cdpvs	13, 6, cr6, cr1, cr0, {1}
    2116:	6e752079 	mrcvs	0, 3, r2, cr5, cr9, {3}
    211a:	72696170 	rsbvc	r6, r9, #28
    211e:	31206465 	teqcc	r0, r5, ror #8
    2122:	69622d36 	stmdbvs	r2!, {r1, r2, r4, r5, r8, sl, fp, sp}^
    2126:	6c462074 	mcrrvs	0, 7, r2, r6, cr4
    212a:	20687361 	rsbcs	r7, r8, r1, ror #6
    212e:	74697277 	strbtvc	r7, [r9], #-631	; 0x277
    2132:	0a2e7365 	beq	b9eece <BIT23+0x39eece>
    2136:	f002 fb23 	bl	4780 <Code_1178>

0000213a <hflashstoreemulation_leerestelle>:
    213a:	8002      	strh	r2, [r0, #0]
    213c:	0c12      	lsrs	r2, r2, #16
    213e:	8042      	strh	r2, [r0, #2]
    2140:	8086      	strh	r6, [r0, #4]
    2142:	cf40      	ldmia	r7!, {r6}
    2144:	bd30      	pop	{r4, r5, pc}

00002146 <hflashstoreemulation_gefunden>:
    2146:	2102      	movs	r1, #2
    2148:	4011      	ands	r1, r2
    214a:	d003      	beq.n	2154 <hflashstoreemulation_gefunden+0xe>
    214c:	3a02      	subs	r2, #2
    214e:	8881      	ldrh	r1, [r0, #4]
    2150:	0436      	lsls	r6, r6, #16
    2152:	e001      	b.n	2158 <hflashstoreemulation_gefunden+0x12>
    2154:	8881      	ldrh	r1, [r0, #4]
    2156:	0409      	lsls	r1, r1, #16
    2158:	430e      	orrs	r6, r1
    215a:	3f04      	subs	r7, #4
    215c:	603e      	str	r6, [r7, #0]
    215e:	0016      	movs	r6, r2
    2160:	2100      	movs	r1, #0
    2162:	8001      	strh	r1, [r0, #0]
    2164:	8041      	strh	r1, [r0, #2]
    2166:	8081      	strh	r1, [r0, #4]
    2168:	f7ff fe4b 	bl	1e02 <Code_402>
    216c:	bd30      	pop	{r4, r5, pc}
    216e:	f35c0000 	vhadd.u16	d16, d12, d0
    2172:	21a01fff 	strdcs	r1, [r0, pc]!

00002174 <Dictionary_429>:
    2174:	000021a0 	andeq	r2, r0, r0, lsr #3
    2178:	2b010262 	blcs	42b08 <BIT18+0x2b08>

0000217c <Code_429>:
    217c:	cf01      	ldmia	r7!, {r0}
    217e:	1836      	adds	r6, r6, r0
    2180:	4770      	bx	lr

00002182 <plus_allocator>:
    2182:	b500      	push	{lr}
    2184:	f7fe fa2f 	bl	5e6 <expect_two_elements>
    2188:	3f04      	subs	r7, #4
    218a:	603e      	str	r6, [r7, #0]
    218c:	4ed4      	ldr	r6, [pc, #848]	; (24e0 <Code_508+0xa>)
    218e:	3f04      	subs	r7, #4
    2190:	603e      	str	r6, [r7, #0]
    2192:	4ed4      	ldr	r6, [pc, #848]	; (24e4 <Code_508+0xe>)
    2194:	6981      	ldr	r1, [r0, #24]
    2196:	2928      	cmp	r1, #40	; 0x28
    2198:	d112      	bne.n	21c0 <Code_434+0x18>
    219a:	f7fe ff43 	bl	1024 <swap_allocator>
    219e:	e00f      	b.n	21c0 <Code_434+0x18>

000021a0 <Dictionary_434>:
    21a0:	0000221c 	andeq	r2, r0, ip, lsl r2
    21a4:	2d010262 	sfmcs	f0, 4, [r1, #-392]	; 0xfffffe78

000021a8 <Code_434>:
    21a8:	cf01      	ldmia	r7!, {r0}
    21aa:	1b86      	subs	r6, r0, r6
    21ac:	4770      	bx	lr
    21ae:	b500      	push	{lr}
    21b0:	f7fe fa19 	bl	5e6 <expect_two_elements>
    21b4:	3f04      	subs	r7, #4
    21b6:	603e      	str	r6, [r7, #0]
    21b8:	4ecb      	ldr	r6, [pc, #812]	; (24e8 <Code_508+0x12>)
    21ba:	3f04      	subs	r7, #4
    21bc:	603e      	str	r6, [r7, #0]
    21be:	4ecb      	ldr	r6, [pc, #812]	; (24ec <Code_508+0x16>)
    21c0:	6901      	ldr	r1, [r0, #16]
    21c2:	2928      	cmp	r1, #40	; 0x28
    21c4:	d10e      	bne.n	21e4 <Code_434+0x3c>
    21c6:	6941      	ldr	r1, [r0, #20]
    21c8:	29ff      	cmp	r1, #255	; 0xff
    21ca:	d80b      	bhi.n	21e4 <Code_434+0x3c>
    21cc:	cf40      	ldmia	r7!, {r6}
    21ce:	f7fe fa4d 	bl	66c <nos_change_tos_away_later>
    21d2:	430e      	orrs	r6, r1
    21d4:	6981      	ldr	r1, [r0, #24]
    21d6:	0209      	lsls	r1, r1, #8
    21d8:	430e      	orrs	r6, r1
    21da:	f001 f8fc 	bl	33d6 <Code_793>
    21de:	f7fe fa35 	bl	64c <eliminiere_tos>
    21e2:	bd00      	pop	{pc}
    21e4:	3704      	adds	r7, #4
    21e6:	f7fe fa1f 	bl	628 <expect_tos_in_register>
    21ea:	6982      	ldr	r2, [r0, #24]
    21ec:	2a28      	cmp	r2, #40	; 0x28
    21ee:	d103      	bne.n	21f8 <Code_434+0x50>
    21f0:	69c3      	ldr	r3, [r0, #28]
    21f2:	f7fe f994 	bl	51e <generiere_konstante>
    21f6:	001a      	movs	r2, r3
    21f8:	0189      	lsls	r1, r1, #6
    21fa:	00d2      	lsls	r2, r2, #3
    21fc:	430e      	orrs	r6, r1
    21fe:	4316      	orrs	r6, r2
    2200:	f7fe fa24 	bl	64c <eliminiere_tos>
    2204:	f7fe fa22 	bl	64c <eliminiere_tos>
    2208:	f7fe f95c 	bl	4c4 <befreie_tos>
    220c:	f7fe f9be 	bl	58c <get_free_register>
    2210:	6103      	str	r3, [r0, #16]
    2212:	431e      	orrs	r6, r3
    2214:	f001 f8df 	bl	33d6 <Code_793>
    2218:	bd00      	pop	{pc}
    221a:	46c0      	nop			; (mov r8, r8)

0000221c <Dictionary_441>:
    221c:	00002254 	andeq	r2, r0, r4, asr r2
    2220:	31020261 	tstcc	r2, r1, ror #4
    2224:	3e01002d 	cdpcc	0, 0, cr0, cr1, cr13, {1}

00002226 <Code_441>:
    2226:	3e01      	subs	r6, #1
    2228:	4770      	bx	lr

0000222a <allocator_one_minus>:
    222a:	3f04      	subs	r7, #4
    222c:	603e      	str	r6, [r7, #0]
    222e:	4eb0      	ldr	r6, [pc, #704]	; (24f0 <Code_508+0x1a>)

00002230 <chsmallplusminus>:
    2230:	b500      	push	{lr}
    2232:	f7fe f9cf 	bl	5d4 <expect_one_element>
    2236:	6901      	ldr	r1, [r0, #16]
    2238:	00c9      	lsls	r1, r1, #3
    223a:	430e      	orrs	r6, r1
    223c:	f7fe fa06 	bl	64c <eliminiere_tos>
    2240:	f7fe f940 	bl	4c4 <befreie_tos>
    2244:	f7fe f9a2 	bl	58c <get_free_register>
    2248:	6103      	str	r3, [r0, #16]
    224a:	431e      	orrs	r6, r3
    224c:	f001 f8c3 	bl	33d6 <Code_793>
    2250:	bd00      	pop	{pc}
    2252:	46c0      	nop			; (mov r8, r8)

00002254 <Dictionary_444>:
    2254:	0000226c 	andeq	r2, r0, ip, ror #4
    2258:	31020261 	tstcc	r2, r1, ror #4
    225c:	3601002b 	strcc	r0, [r1], -fp, lsr #32

0000225e <Code_444>:
    225e:	3601      	adds	r6, #1
    2260:	4770      	bx	lr
    2262:	3f04      	subs	r7, #4
    2264:	603e      	str	r6, [r7, #0]
    2266:	4ea3      	ldr	r6, [pc, #652]	; (24f4 <Code_508+0x1e>)
    2268:	e7e2      	b.n	2230 <chsmallplusminus>
    226a:	46c0      	nop			; (mov r8, r8)

0000226c <Dictionary_447>:
    226c:	00002284 	andeq	r2, r0, r4, lsl #5
    2270:	32020261 	andcc	r0, r2, #268435462	; 0x10000006
    2274:	3e02002d 	cdpcc	0, 0, cr0, cr2, cr13, {1}

00002276 <Code_447>:
    2276:	3e02      	subs	r6, #2
    2278:	4770      	bx	lr
    227a:	3f04      	subs	r7, #4
    227c:	603e      	str	r6, [r7, #0]
    227e:	4e9e      	ldr	r6, [pc, #632]	; (24f8 <Code_508+0x22>)
    2280:	e7d6      	b.n	2230 <chsmallplusminus>
    2282:	46c0      	nop			; (mov r8, r8)

00002284 <Dictionary_450>:
    2284:	0000229c 	muleq	r0, ip, r2
    2288:	32020261 	andcc	r0, r2, #268435462	; 0x10000006
    228c:	3602002b 	strcc	r0, [r2], -fp, lsr #32

0000228e <Code_450>:
    228e:	3602      	adds	r6, #2
    2290:	4770      	bx	lr
    2292:	3f04      	subs	r7, #4
    2294:	603e      	str	r6, [r7, #0]
    2296:	4e99      	ldr	r6, [pc, #612]	; (24fc <Code_508+0x26>)
    2298:	e7ca      	b.n	2230 <chsmallplusminus>
    229a:	46c0      	nop			; (mov r8, r8)

0000229c <Dictionary_453>:
    229c:	000022b4 			; <UNDEFINED> instruction: 0x000022b4
    22a0:	63050261 	movwvs	r0, #21089	; 0x5261
    22a4:	2b6c6c65 	blcs	1b1d440 <BIT24+0xb1d440>

000022a8 <Code_453>:
    22a8:	3604      	adds	r6, #4
    22aa:	4770      	bx	lr
    22ac:	3f04      	subs	r7, #4
    22ae:	603e      	str	r6, [r7, #0]
    22b0:	4e93      	ldr	r6, [pc, #588]	; (2500 <Code_508+0x2a>)
    22b2:	e7bd      	b.n	2230 <chsmallplusminus>

000022b4 <Dictionary_456>:
    22b4:	000022e4 	andeq	r2, r0, r4, ror #5
    22b8:	6e060061 	cdpvs	0, 0, cr0, cr6, cr1, {3}
    22bc:	74616765 	strbtvc	r6, [r1], #-1893	; 0x765
    22c0:	42760065 	rsbsmi	r0, r6, #101	; 0x65

000022c2 <Code_456>:
    22c2:	4276      	negs	r6, r6
    22c4:	4770      	bx	lr
    22c6:	3f04      	subs	r7, #4
    22c8:	603e      	str	r6, [r7, #0]
    22ca:	4e8e      	ldr	r6, [pc, #568]	; (2504 <Code_508+0x2e>)

000022cc <smalltworegisters>:
    22cc:	b500      	push	{lr}
    22ce:	f7fe f981 	bl	5d4 <expect_one_element>
    22d2:	f7fe f9dc 	bl	68e <make_tos_changeable>
    22d6:	6901      	ldr	r1, [r0, #16]
    22d8:	430e      	orrs	r6, r1
    22da:	00c9      	lsls	r1, r1, #3
    22dc:	430e      	orrs	r6, r1
    22de:	f001 f87a 	bl	33d6 <Code_793>
    22e2:	bd00      	pop	{pc}

000022e4 <Dictionary_459>:
    22e4:	000022fc 	strdeq	r2, [r0], -ip
    22e8:	6e030261 	cdpvs	2, 0, cr0, cr3, cr1, {3}
    22ec:	43f6746f 	mvnsmi	r7, #1862270976	; 0x6f000000

000022ee <Code_459>:
    22ee:	43f6      	mvns	r6, r6
    22f0:	4770      	bx	lr

000022f2 <allocator_not>:
    22f2:	3f04      	subs	r7, #4
    22f4:	603e      	str	r6, [r7, #0]
    22f6:	4e84      	ldr	r6, [pc, #528]	; (2508 <Code_508+0x32>)
    22f8:	e7e8      	b.n	22cc <smalltworegisters>
    22fa:	46c0      	nop			; (mov r8, r8)

000022fc <Dictionary_462>:
    22fc:	00002314 	andeq	r2, r0, r4, lsl r3
    2300:	73030261 	movwvc	r0, #12897	; 0x3261
    2304:	08767268 	ldmdaeq	r6!, {r3, r5, r6, r9, ip, sp, lr}^

00002306 <Code_462>:
    2306:	0876      	lsrs	r6, r6, #1
    2308:	4770      	bx	lr
    230a:	3f04      	subs	r7, #4
    230c:	603e      	str	r6, [r7, #0]
    230e:	4e7f      	ldr	r6, [pc, #508]	; (250c <Code_508+0x36>)
    2310:	e7dc      	b.n	22cc <smalltworegisters>
    2312:	46c0      	nop			; (mov r8, r8)

00002314 <Dictionary_465>:
    2314:	00002324 	andeq	r2, r0, r4, lsr #6
    2318:	73030261 	movwvc	r0, #12897	; 0x3261
    231c:	00766c68 	rsbseq	r6, r6, r8, ror #24

0000231e <Code_465>:
    231e:	0076      	lsls	r6, r6, #1
    2320:	4770      	bx	lr
    2322:	e006      	b.n	2332 <Code_466+0x4>

00002324 <Dictionary_466>:
    2324:	0000233c 	andeq	r2, r0, ip, lsr r3
    2328:	32020261 	andcc	r0, r2, #268435462	; 0x10000006
    232c:	0076002a 	rsbseq	r0, r6, sl, lsr #32

0000232e <Code_466>:
    232e:	0076      	lsls	r6, r6, #1
    2330:	4770      	bx	lr
    2332:	3f04      	subs	r7, #4
    2334:	603e      	str	r6, [r7, #0]
    2336:	2640      	movs	r6, #64	; 0x40
    2338:	e7c8      	b.n	22cc <smalltworegisters>
    233a:	46c0      	nop			; (mov r8, r8)

0000233c <Dictionary_469>:
    233c:	00002354 	andeq	r2, r0, r4, asr r3
    2340:	63050261 	movwvs	r0, #21089	; 0x5261
    2344:	736c6c65 	cmnvc	ip, #25856	; 0x6500

00002348 <Code_469>:
    2348:	00b6      	lsls	r6, r6, #2
    234a:	4770      	bx	lr
    234c:	3f04      	subs	r7, #4
    234e:	603e      	str	r6, [r7, #0]
    2350:	2680      	movs	r6, #128	; 0x80
    2352:	e7bb      	b.n	22cc <smalltworegisters>

00002354 <Dictionary_472>:
    2354:	0000236c 	andeq	r2, r0, ip, ror #6
    2358:	32020261 	andcc	r0, r2, #268435462	; 0x10000006
    235c:	1076002f 	rsbsne	r0, r6, pc, lsr #32

0000235e <Code_472>:
    235e:	1076      	asrs	r6, r6, #1
    2360:	4770      	bx	lr
    2362:	3f04      	subs	r7, #4
    2364:	603e      	str	r6, [r7, #0]
    2366:	4e6a      	ldr	r6, [pc, #424]	; (2510 <Code_508+0x3a>)
    2368:	e7b0      	b.n	22cc <smalltworegisters>
    236a:	46c0      	nop			; (mov r8, r8)

0000236c <Dictionary_475>:
    236c:	00002380 	andeq	r2, r0, r0, lsl #7
    2370:	61030061 	tstvs	r3, r1, rrx
    2374:	17f07362 	ldrbne	r7, [r0, r2, ror #6]!

00002376 <Code_475>:
    2376:	17f0      	asrs	r0, r6, #31
    2378:	1836      	adds	r6, r6, r0
    237a:	4046      	eors	r6, r0
    237c:	4770      	bx	lr
    237e:	46c0      	nop			; (mov r8, r8)

00002380 <Dictionary_476>:
    2380:	000023c8 	andeq	r2, r0, r8, asr #7
    2384:	75050042 	strvc	r0, [r5, #-66]	; 0x42
    2388:	646f6d2f 	strbtvs	r6, [pc], #-3375	; 2390 <Code_476+0x4>

0000238c <Code_476>:
    238c:	0031      	movs	r1, r6
    238e:	cf40      	ldmia	r7!, {r6}
    2390:	2900      	cmp	r1, #0
    2392:	d103      	bne.n	239c <Code_476+0x10>
    2394:	3f04      	subs	r7, #4
    2396:	603e      	str	r6, [r7, #0]
    2398:	2600      	movs	r6, #0
    239a:	4770      	bx	lr
    239c:	2201      	movs	r2, #1
    239e:	2300      	movs	r3, #0
    23a0:	428e      	cmp	r6, r1
    23a2:	d906      	bls.n	23b2 <Code_476+0x26>
    23a4:	3100      	adds	r1, #0
    23a6:	d404      	bmi.n	23b2 <Code_476+0x26>
    23a8:	0052      	lsls	r2, r2, #1
    23aa:	0049      	lsls	r1, r1, #1
    23ac:	d401      	bmi.n	23b2 <Code_476+0x26>
    23ae:	428e      	cmp	r6, r1
    23b0:	d8fa      	bhi.n	23a8 <Code_476+0x1c>
    23b2:	428e      	cmp	r6, r1
    23b4:	d301      	bcc.n	23ba <Code_476+0x2e>
    23b6:	1a76      	subs	r6, r6, r1
    23b8:	4313      	orrs	r3, r2
    23ba:	0849      	lsrs	r1, r1, #1
    23bc:	0852      	lsrs	r2, r2, #1
    23be:	d1f8      	bne.n	23b2 <Code_476+0x26>
    23c0:	3f04      	subs	r7, #4
    23c2:	603e      	str	r6, [r7, #0]
    23c4:	001e      	movs	r6, r3
    23c6:	4770      	bx	lr

000023c8 <Dictionary_482>:
    23c8:	00002438 	andeq	r2, r0, r8, lsr r4
    23cc:	2f040042 	svccs	0x00040042
    23d0:	00646f6d 	rsbeq	r6, r4, sp, ror #30

000023d4 <Code_482>:
    23d4:	b500      	push	{lr}
    23d6:	0030      	movs	r0, r6
    23d8:	cf40      	ldmia	r7!, {r6}
    23da:	2e00      	cmp	r6, #0
    23dc:	da1c      	bge.n	2418 <divmod_plus>
    23de:	4276      	negs	r6, r6

000023e0 <divmod_minus>:
    23e0:	2800      	cmp	r0, #0
    23e2:	da0c      	bge.n	23fe <divmod_minus_plus>

000023e4 <divmod_minus_minus>:
    23e4:	4240      	negs	r0, r0
    23e6:	3f04      	subs	r7, #4
    23e8:	603e      	str	r6, [r7, #0]
    23ea:	0006      	movs	r6, r0
    23ec:	f7ff ffce 	bl	238c <Code_476>
    23f0:	0030      	movs	r0, r6
    23f2:	cf40      	ldmia	r7!, {r6}
    23f4:	4276      	negs	r6, r6
    23f6:	3f04      	subs	r7, #4
    23f8:	603e      	str	r6, [r7, #0]
    23fa:	0006      	movs	r6, r0
    23fc:	bd00      	pop	{pc}

000023fe <divmod_minus_plus>:
    23fe:	3f04      	subs	r7, #4
    2400:	603e      	str	r6, [r7, #0]
    2402:	0006      	movs	r6, r0
    2404:	f7ff ffc2 	bl	238c <Code_476>
    2408:	0030      	movs	r0, r6
    240a:	cf40      	ldmia	r7!, {r6}
    240c:	4240      	negs	r0, r0
    240e:	4276      	negs	r6, r6
    2410:	3f04      	subs	r7, #4
    2412:	603e      	str	r6, [r7, #0]
    2414:	0006      	movs	r6, r0
    2416:	bd00      	pop	{pc}

00002418 <divmod_plus>:
    2418:	2800      	cmp	r0, #0
    241a:	da07      	bge.n	242c <divmod_plus_plus>

0000241c <divmod_plus_minus>:
    241c:	4240      	negs	r0, r0
    241e:	3f04      	subs	r7, #4
    2420:	603e      	str	r6, [r7, #0]
    2422:	0006      	movs	r6, r0
    2424:	f7ff ffb2 	bl	238c <Code_476>
    2428:	4276      	negs	r6, r6
    242a:	bd00      	pop	{pc}

0000242c <divmod_plus_plus>:
    242c:	3f04      	subs	r7, #4
    242e:	603e      	str	r6, [r7, #0]
    2430:	0006      	movs	r6, r0
    2432:	f7ff ffab 	bl	238c <Code_476>
    2436:	bd00      	pop	{pc}

00002438 <Dictionary_498>:
    2438:	0000244c 	andeq	r2, r0, ip, asr #8
    243c:	6d030042 	stcvs	0, cr0, [r3, #-264]	; 0xfffffef8
    2440:	b500646f 	strlt	r6, [r0, #-1135]	; 0x46f

00002442 <Code_498>:
    2442:	b500      	push	{lr}
    2444:	f7ff ffc6 	bl	23d4 <Code_482>
    2448:	cf40      	ldmia	r7!, {r6}
    244a:	bd00      	pop	{pc}

0000244c <Dictionary_500>:
    244c:	00002460 	andeq	r2, r0, r0, ror #8
    2450:	2f010042 	svccs	0x00010042

00002454 <Code_500>:
    2454:	b500      	push	{lr}
    2456:	f7ff ffbd 	bl	23d4 <Code_482>
    245a:	3704      	adds	r7, #4
    245c:	bd00      	pop	{pc}
    245e:	46c0      	nop			; (mov r8, r8)

00002460 <Dictionary_501>:
    2460:	00002470 	andeq	r2, r0, r0, ror r4
    2464:	2a013220 	bcs	4ecec <BIT18+0xecec>

00002468 <Code_501>:
    2468:	cf01      	ldmia	r7!, {r0}
    246a:	4346      	muls	r6, r0
    246c:	4770      	bx	lr
    246e:	4340      	muls	r0, r0

00002470 <Dictionary_502>:
    2470:	00002484 	andeq	r2, r0, r4, lsl #9
    2474:	65040061 	strvs	r0, [r4, #-97]	; 0x61
    2478:	006e6576 	rsbeq	r6, lr, r6, ror r5

0000247c <Code_502>:
    247c:	2001      	movs	r0, #1
    247e:	4030      	ands	r0, r6
    2480:	1836      	adds	r6, r6, r0
    2482:	4770      	bx	lr

00002484 <Dictionary_503>:
    2484:	0000249c 	muleq	r0, ip, r4
    2488:	62040081 	andvs	r0, r4, #129	; 0x81
    248c:	00657361 	rsbeq	r7, r5, r1, ror #6

00002490 <Code_503>:
    2490:	3f04      	subs	r7, #4
    2492:	603e      	str	r6, [r7, #0]
    2494:	4e1f      	ldr	r6, [pc, #124]	; (2514 <Code_508+0x3e>)
    2496:	4770      	bx	lr
    2498:	0000000a 	andeq	r0, r0, sl

0000249c <Dictionary_506>:
    249c:	000024b4 			; <UNDEFINED> instruction: 0x000024b4
    24a0:	62060000 	andvs	r0, r6, #0
    24a4:	72616e69 	rsbvc	r6, r1, #1680	; 0x690
    24a8:	481a0079 	ldmdami	sl, {r0, r3, r4, r5, r6}

000024aa <Code_506>:
    24aa:	481a      	ldr	r0, [pc, #104]	; (2514 <Code_508+0x3e>)
    24ac:	2102      	movs	r1, #2
    24ae:	6001      	str	r1, [r0, #0]
    24b0:	4770      	bx	lr
    24b2:	46c0      	nop			; (mov r8, r8)

000024b4 <Dictionary_507>:
    24b4:	000024cc 	andeq	r2, r0, ip, asr #9
    24b8:	64070000 	strvs	r0, [r7], #-0
    24bc:	6d696365 	stclvs	3, cr6, [r9, #-404]!	; 0xfffffe6c
    24c0:	48146c61 	ldmdami	r4, {r0, r5, r6, sl, fp, sp, lr}

000024c2 <Code_507>:
    24c2:	4814      	ldr	r0, [pc, #80]	; (2514 <Code_508+0x3e>)
    24c4:	210a      	movs	r1, #10
    24c6:	6001      	str	r1, [r0, #0]
    24c8:	4770      	bx	lr
    24ca:	46c0      	nop			; (mov r8, r8)

000024cc <Dictionary_508>:
    24cc:	00002560 	andeq	r2, r0, r0, ror #10
    24d0:	68030000 	stmdavs	r3, {}	; <UNPREDICTABLE>
    24d4:	480f7865 	stmdami	pc, {r0, r2, r5, r6, fp, ip, sp, lr}	; <UNPREDICTABLE>

000024d6 <Code_508>:
    24d6:	480f      	ldr	r0, [pc, #60]	; (2514 <Code_508+0x3e>)
    24d8:	2110      	movs	r1, #16
    24da:	6001      	str	r1, [r0, #0]
    24dc:	4770      	bx	lr
    24de:	30000000 	andcc	r0, r0, r0
    24e2:	18000000 	stmdane	r0, {}	; <UNPREDICTABLE>
    24e6:	38000000 	stmdacc	r0, {}	; <UNPREDICTABLE>
    24ea:	1a000000 	bne	24f2 <Code_508+0x1c>
    24ee:	1e400000 	cdpne	0, 4, cr0, cr0, cr0, {0}
    24f2:	1c400000 	marne	acc0, r0, r0
    24f6:	1e800000 	cdpne	0, 8, cr0, cr0, cr0, {0}
    24fa:	1c800000 	stcne	0, cr0, [r0], {0}
    24fe:	1d000000 	stcne	0, cr0, [r0, #-0]
    2502:	42400000 	submi	r0, r0, #0
    2506:	43c00000 	bicmi	r0, r0, #0
    250a:	08400000 	stmdaeq	r0, {}^	; <UNPREDICTABLE>
    250e:	10400000 	subne	r0, r0, r0
    2512:	2ffc0000 	svccs	0x00fc0000
    2516:	49802000 	stmibmi	r0, {sp}

00002518 <uart_init>:
    2518:	4980      	ldr	r1, [pc, #512]	; (271c <Code_538+0x22>)
    251a:	4881      	ldr	r0, [pc, #516]	; (2720 <Code_538+0x26>)
    251c:	6001      	str	r1, [r0, #0]
    251e:	4981      	ldr	r1, [pc, #516]	; (2724 <Code_538+0x2a>)
    2520:	4881      	ldr	r0, [pc, #516]	; (2728 <Code_538+0x2e>)
    2522:	6001      	str	r1, [r0, #0]
    2524:	4981      	ldr	r1, [pc, #516]	; (272c <Code_538+0x32>)
    2526:	4882      	ldr	r0, [pc, #520]	; (2730 <Code_538+0x36>)
    2528:	6001      	str	r1, [r0, #0]
    252a:	4982      	ldr	r1, [pc, #520]	; (2734 <Code_538+0x3a>)
    252c:	4882      	ldr	r0, [pc, #520]	; (2738 <Code_538+0x3e>)
    252e:	6001      	str	r1, [r0, #0]
    2530:	4882      	ldr	r0, [pc, #520]	; (273c <Code_538+0x42>)
    2532:	6001      	str	r1, [r0, #0]
    2534:	2100      	movs	r1, #0
    2536:	4882      	ldr	r0, [pc, #520]	; (2740 <Code_538+0x46>)
    2538:	7001      	strb	r1, [r0, #0]
    253a:	4882      	ldr	r0, [pc, #520]	; (2744 <Code_538+0x4a>)
    253c:	7001      	strb	r1, [r0, #0]
    253e:	4882      	ldr	r0, [pc, #520]	; (2748 <Code_538+0x4e>)
    2540:	7001      	strb	r1, [r0, #0]
    2542:	4882      	ldr	r0, [pc, #520]	; (274c <Code_538+0x52>)
    2544:	7001      	strb	r1, [r0, #0]
    2546:	2106      	movs	r1, #6
    2548:	4881      	ldr	r0, [pc, #516]	; (2750 <Code_538+0x56>)
    254a:	7001      	strb	r1, [r0, #0]
    254c:	2100      	movs	r1, #0
    254e:	4881      	ldr	r0, [pc, #516]	; (2754 <Code_538+0x5a>)
    2550:	7001      	strb	r1, [r0, #0]
    2552:	211a      	movs	r1, #26
    2554:	4880      	ldr	r0, [pc, #512]	; (2758 <Code_538+0x5e>)
    2556:	7001      	strb	r1, [r0, #0]
    2558:	210c      	movs	r1, #12
    255a:	4879      	ldr	r0, [pc, #484]	; (2740 <Code_538+0x46>)
    255c:	7001      	strb	r1, [r0, #0]
    255e:	4770      	bx	lr

00002560 <Dictionary_509>:
    2560:	0000257c 	andeq	r2, r0, ip, ror r5
    2564:	68090081 	stmdavs	r9, {r0, r7}
    2568:	2d6b6f6f 	stclcs	15, cr6, [fp, #-444]!	; 0xfffffe44
    256c:	74696d65 	strbtvc	r6, [r9], #-3429	; 0xd65

00002570 <Code_509>:
    2570:	3f04      	subs	r7, #4
    2572:	603e      	str	r6, [r7, #0]
    2574:	4e79      	ldr	r6, [pc, #484]	; (275c <Code_538+0x62>)
    2576:	4770      	bx	lr
    2578:	00002672 	andeq	r2, r0, r2, ror r6

0000257c <Dictionary_512>:
    257c:	00002598 	muleq	r0, r8, r5
    2580:	68080081 	stmdavs	r8, {r0, r7}
    2584:	2d6b6f6f 	stclcs	15, cr6, [fp, #-444]!	; 0xfffffe44
    2588:	0079656b 	rsbseq	r6, r9, fp, ror #10

0000258c <Code_512>:
    258c:	3f04      	subs	r7, #4
    258e:	603e      	str	r6, [r7, #0]
    2590:	4e73      	ldr	r6, [pc, #460]	; (2760 <Code_538+0x66>)
    2592:	4770      	bx	lr
    2594:	0000269a 	muleq	r0, sl, r6

00002598 <Dictionary_515>:
    2598:	000025b8 			; <UNDEFINED> instruction: 0x000025b8
    259c:	680a0081 	stmdavs	sl, {r0, r7}
    25a0:	2d6b6f6f 	stclcs	15, cr6, [fp, #-444]!	; 0xfffffe44
    25a4:	74696d65 	strbtvc	r6, [r9], #-3429	; 0xd65
    25a8:	3f04003f 	svccc	0x0004003f

000025aa <Code_515>:
    25aa:	3f04      	subs	r7, #4
    25ac:	603e      	str	r6, [r7, #0]
    25ae:	4e6d      	ldr	r6, [pc, #436]	; (2764 <Code_538+0x6a>)
    25b0:	4770      	bx	lr
    25b2:	000026c8 	andeq	r2, r0, r8, asr #13
    25b6:	25d446c0 	ldrbcs	r4, [r4, #1728]	; 0x6c0

000025b8 <Dictionary_518>:
    25b8:	000025d4 	ldrdeq	r2, [r0], -r4
    25bc:	68090081 	stmdavs	r9, {r0, r7}
    25c0:	2d6b6f6f 	stclcs	15, cr6, [fp, #-444]!	; 0xfffffe44
    25c4:	3f79656b 	svccc	0x0079656b

000025c8 <Code_518>:
    25c8:	3f04      	subs	r7, #4
    25ca:	603e      	str	r6, [r7, #0]
    25cc:	4e66      	ldr	r6, [pc, #408]	; (2768 <Code_538+0x6e>)
    25ce:	4770      	bx	lr
    25d0:	000026fa 	strdeq	r2, [r0], -sl

000025d4 <Dictionary_521>:
    25d4:	000025f4 	strdeq	r2, [r0], -r4
    25d8:	680a0081 	stmdavs	sl, {r0, r7}
    25dc:	2d6b6f6f 	stclcs	15, cr6, [fp, #-444]!	; 0xfffffe44
    25e0:	73756170 	cmnvc	r5, #28
    25e4:	3f040065 	svccc	0x00040065

000025e6 <Code_521>:
    25e6:	3f04      	subs	r7, #4
    25e8:	603e      	str	r6, [r7, #0]
    25ea:	4e60      	ldr	r6, [pc, #384]	; (276c <Code_538+0x72>)
    25ec:	4770      	bx	lr
    25ee:	00004852 	andeq	r4, r0, r2, asr r8
    25f2:	260c46c0 	strcs	r4, [ip], -r0, asr #13

000025f4 <Dictionary_524>:
    25f4:	0000260c 	andeq	r2, r0, ip, lsl #12
    25f8:	65040000 	strvs	r0, [r4, #-0]
    25fc:	0074696d 	rsbseq	r6, r4, sp, ror #18

00002600 <Code_524>:
    2600:	b50f      	push	{r0, r1, r2, r3, lr}
    2602:	4856      	ldr	r0, [pc, #344]	; (275c <Code_538+0x62>)
    2604:	f000 f829 	bl	265a <hook_intern>
    2608:	bd0f      	pop	{r0, r1, r2, r3, pc}
    260a:	46c0      	nop			; (mov r8, r8)

0000260c <Dictionary_525>:
    260c:	00002620 	andeq	r2, r0, r0, lsr #12
    2610:	6b030000 	blvs	c2618 <BIT19+0x42618>
    2614:	b50f7965 	strlt	r7, [pc, #-2405]	; 1cb7 <Code_384+0x2f>

00002616 <Code_525>:
    2616:	b50f      	push	{r0, r1, r2, r3, lr}
    2618:	4851      	ldr	r0, [pc, #324]	; (2760 <Code_538+0x66>)
    261a:	f000 f81e 	bl	265a <hook_intern>
    261e:	bd0f      	pop	{r0, r1, r2, r3, pc}

00002620 <Dictionary_526>:
    2620:	00002634 	andeq	r2, r0, r4, lsr r6
    2624:	65050000 	strvs	r0, [r5, #-0]
    2628:	3f74696d 	svccc	0x0074696d

0000262c <Code_526>:
    262c:	484d      	ldr	r0, [pc, #308]	; (2764 <Code_538+0x6a>)
    262e:	6800      	ldr	r0, [r0, #0]
    2630:	4687      	mov	pc, r0
    2632:	46c0      	nop			; (mov r8, r8)

00002634 <Dictionary_527>:
    2634:	00002648 	andeq	r2, r0, r8, asr #12
    2638:	6b040000 	blvs	102640 <BIT20+0x2640>
    263c:	003f7965 	eorseq	r7, pc, r5, ror #18

00002640 <Code_527>:
    2640:	4849      	ldr	r0, [pc, #292]	; (2768 <Code_538+0x6e>)
    2642:	6800      	ldr	r0, [r0, #0]
    2644:	4687      	mov	pc, r0
    2646:	46c0      	nop			; (mov r8, r8)

00002648 <Dictionary_528>:
    2648:	00002660 	andeq	r2, r0, r0, ror #12
    264c:	70050000 	andvc	r0, r5, r0
    2650:	65737561 	ldrbvs	r7, [r3, #-1377]!	; 0x561

00002654 <Code_528>:
    2654:	4845      	ldr	r0, [pc, #276]	; (276c <Code_538+0x72>)
    2656:	6800      	ldr	r0, [r0, #0]
    2658:	4687      	mov	pc, r0

0000265a <hook_intern>:
    265a:	6800      	ldr	r0, [r0, #0]
    265c:	4687      	mov	pc, r0
    265e:	46c0      	nop			; (mov r8, r8)

00002660 <Dictionary_529>:
    2660:	00002688 	andeq	r2, r0, r8, lsl #13
    2664:	730b0000 	movwvc	r0, #45056	; 0xb000
    2668:	61697265 	cmnvs	r9, r5, ror #4
    266c:	6d652d6c 	stclvs	13, cr2, [r5, #-432]!	; 0xfffffe50
    2670:	b5007469 	strlt	r7, [r0, #-1129]	; 0x469

00002672 <Code_529>:
    2672:	b500      	push	{lr}
    2674:	f000 f828 	bl	26c8 <Code_535>
    2678:	2e00      	cmp	r6, #0
    267a:	cf40      	ldmia	r7!, {r6}
    267c:	d0fa      	beq.n	2674 <Code_529+0x2>
    267e:	483c      	ldr	r0, [pc, #240]	; (2770 <Code_538+0x76>)
    2680:	7006      	strb	r6, [r0, #0]
    2682:	cf40      	ldmia	r7!, {r6}
    2684:	bd00      	pop	{pc}
    2686:	46c0      	nop			; (mov r8, r8)

00002688 <Dictionary_532>:
    2688:	000026b4 			; <UNDEFINED> instruction: 0x000026b4
    268c:	730a0000 	movwvc	r0, #40960	; 0xa000
    2690:	61697265 	cmnvs	r9, r5, ror #4
    2694:	656b2d6c 	strbvs	r2, [fp, #-3436]!	; 0xd6c
    2698:	b5000079 	strlt	r0, [r0, #-121]	; 0x79

0000269a <Code_532>:
    269a:	b500      	push	{lr}
    269c:	f000 f82d 	bl	26fa <Code_538>
    26a0:	2e00      	cmp	r6, #0
    26a2:	cf40      	ldmia	r7!, {r6}
    26a4:	d0fa      	beq.n	269c <Code_532+0x2>
    26a6:	4832      	ldr	r0, [pc, #200]	; (2770 <Code_538+0x76>)
    26a8:	3f04      	subs	r7, #4
    26aa:	603e      	str	r6, [r7, #0]
    26ac:	7806      	ldrb	r6, [r0, #0]
    26ae:	b2f6      	uxtb	r6, r6
    26b0:	bd00      	pop	{pc}
    26b2:	46c0      	nop			; (mov r8, r8)

000026b4 <Dictionary_535>:
    26b4:	000026e8 	andeq	r2, r0, r8, ror #13
    26b8:	730c0000 	movwvc	r0, #49152	; 0xc000
    26bc:	61697265 	cmnvs	r9, r5, ror #4
    26c0:	6d652d6c 	stclvs	13, cr2, [r5, #-432]!	; 0xfffffe50
    26c4:	003f7469 	eorseq	r7, pc, r9, ror #8

000026c8 <Code_535>:
    26c8:	b500      	push	{lr}
    26ca:	f7ff ffc3 	bl	2654 <Code_528>
    26ce:	4829      	ldr	r0, [pc, #164]	; (2774 <Code_538+0x7a>)
    26d0:	2108      	movs	r1, #8
    26d2:	7001      	strb	r1, [r0, #0]
    26d4:	3f04      	subs	r7, #4
    26d6:	603e      	str	r6, [r7, #0]
    26d8:	2600      	movs	r6, #0
    26da:	4826      	ldr	r0, [pc, #152]	; (2774 <Code_538+0x7a>)
    26dc:	2280      	movs	r2, #128	; 0x80
    26de:	7801      	ldrb	r1, [r0, #0]
    26e0:	4011      	ands	r1, r2
    26e2:	d000      	beq.n	26e6 <Code_535+0x1e>
    26e4:	43f6      	mvns	r6, r6
    26e6:	bd00      	pop	{pc}

000026e8 <Dictionary_538>:
    26e8:	00002778 	andeq	r2, r0, r8, ror r7
    26ec:	730b0000 	movwvc	r0, #45056	; 0xb000
    26f0:	61697265 	cmnvs	r9, r5, ror #4
    26f4:	656b2d6c 	strbvs	r2, [fp, #-3436]!	; 0xd6c
    26f8:	b5003f79 	strlt	r3, [r0, #-3961]	; 0xf79

000026fa <Code_538>:
    26fa:	b500      	push	{lr}
    26fc:	f7ff ffaa 	bl	2654 <Code_528>
    2700:	481c      	ldr	r0, [pc, #112]	; (2774 <Code_538+0x7a>)
    2702:	2108      	movs	r1, #8
    2704:	7001      	strb	r1, [r0, #0]
    2706:	3f04      	subs	r7, #4
    2708:	603e      	str	r6, [r7, #0]
    270a:	2600      	movs	r6, #0
    270c:	4819      	ldr	r0, [pc, #100]	; (2774 <Code_538+0x7a>)
    270e:	2220      	movs	r2, #32
    2710:	7801      	ldrb	r1, [r0, #0]
    2712:	4011      	ands	r1, r2
    2714:	d000      	beq.n	2718 <Code_538+0x1e>
    2716:	43f6      	mvns	r6, r6
    2718:	bd00      	pop	{pc}
    271a:	3f800000 	svccc	0x00800000
    271e:	80380000 	eorshi	r0, r8, r0
    2722:	04304004 	ldrteq	r4, [r0], #-4
    2726:	8034f000 	eorshi	pc, r4, r0
    272a:	00004004 	andeq	r4, r0, r4
    272e:	80040400 	andhi	r0, r4, r0, lsl #8
    2732:	02004004 	andeq	r4, r0, #4
    2736:	90040000 	andls	r0, r4, r0
    273a:	90084004 	andls	r4, r8, r4
    273e:	a0034004 	andge	r4, r3, r4
    2742:	a0024006 	andge	r4, r2, r6
    2746:	a0064006 	andge	r4, r6, r6
    274a:	a0054006 	andge	r4, r5, r6
    274e:	a00a4006 	andge	r4, sl, r6
    2752:	a0004006 	andge	r4, r0, r6
    2756:	a0014006 	andge	r4, r1, r6
    275a:	2ff84006 	svccs	0x00f84006
    275e:	2ff42000 	svccs	0x00f42000
    2762:	2ff02000 	svccs	0x00f02000
    2766:	2fec2000 	svccs	0x00ec2000
    276a:	2fe82000 	svccs	0x00e82000
    276e:	a0072000 	andge	r2, r7, r0
    2772:	a0044006 	andge	r4, r4, r6
    2776:	279c4006 	ldrcs	r4, [ip, r6]

00002778 <Dictionary_541>:
    2778:	0000279c 	muleq	r0, ip, r7
    277c:	63070000 	movwvs	r0, #28672	; 0x7000
    2780:	65707865 	ldrbvs	r7, [r0, #-2149]!	; 0x865
    2784:	b5007463 	strlt	r7, [r0, #-1123]	; 0x463

00002786 <Code_541>:
    2786:	b500      	push	{lr}
    2788:	6838      	ldr	r0, [r7, #0]
    278a:	b401      	push	{r0}
    278c:	3001      	adds	r0, #1
    278e:	6038      	str	r0, [r7, #0]
    2790:	f000 f80b 	bl	27aa <Code_543>
    2794:	bc01      	pop	{r0}
    2796:	7006      	strb	r6, [r0, #0]
    2798:	cf40      	ldmia	r7!, {r6}
    279a:	bd00      	pop	{pc}

0000279c <Dictionary_543>:
    279c:	00002814 	andeq	r2, r0, r4, lsl r8
    27a0:	61060000 	mrsvs	r0, (UNDEF: 6)
    27a4:	70656363 	rsbvc	r6, r5, r3, ror #6
    27a8:	b5000074 	strlt	r0, [r0, #-116]	; 0x74

000027aa <Code_543>:
    27aa:	b500      	push	{lr}
    27ac:	cf02      	ldmia	r7!, {r1}
    27ae:	3901      	subs	r1, #1
    27b0:	2200      	movs	r2, #0
    27b2:	f7ff ff30 	bl	2616 <Code_525>
    27b6:	0030      	movs	r0, r6
    27b8:	cf40      	ldmia	r7!, {r6}
    27ba:	287f      	cmp	r0, #127	; 0x7f
    27bc:	d009      	beq.n	27d2 <Code_543+0x28>
    27be:	2820      	cmp	r0, #32
    27c0:	d219      	bcs.n	27f6 <Code_543+0x4c>
    27c2:	2809      	cmp	r0, #9
    27c4:	d016      	beq.n	27f4 <Code_543+0x4a>
    27c6:	280a      	cmp	r0, #10
    27c8:	d01f      	beq.n	280a <Code_543+0x60>
    27ca:	280d      	cmp	r0, #13
    27cc:	d01d      	beq.n	280a <Code_543+0x60>
    27ce:	2808      	cmp	r0, #8
    27d0:	d1ef      	bne.n	27b2 <Code_543+0x8>
    27d2:	2a00      	cmp	r2, #0
    27d4:	d0ed      	beq.n	27b2 <Code_543+0x8>
    27d6:	f000 f915 	bl	2a04 <dotgaensefuesschen>
    27da:	08200803 	stmdaeq	r0!, {r0, r1, fp}
    27de:	2a00      	cmp	r2, #0
    27e0:	d0e7      	beq.n	27b2 <Code_543+0x8>
    27e2:	5c88      	ldrb	r0, [r1, r2]
    27e4:	3a01      	subs	r2, #1
    27e6:	2380      	movs	r3, #128	; 0x80
    27e8:	4003      	ands	r3, r0
    27ea:	d0e2      	beq.n	27b2 <Code_543+0x8>
    27ec:	2340      	movs	r3, #64	; 0x40
    27ee:	4003      	ands	r3, r0
    27f0:	d0f5      	beq.n	27de <Code_543+0x34>
    27f2:	e7de      	b.n	27b2 <Code_543+0x8>
    27f4:	2020      	movs	r0, #32
    27f6:	42b2      	cmp	r2, r6
    27f8:	d2db      	bcs.n	27b2 <Code_543+0x8>
    27fa:	3f04      	subs	r7, #4
    27fc:	603e      	str	r6, [r7, #0]
    27fe:	0006      	movs	r6, r0
    2800:	f7ff fefe 	bl	2600 <Code_524>
    2804:	3201      	adds	r2, #1
    2806:	5488      	strb	r0, [r1, r2]
    2808:	e7d3      	b.n	27b2 <Code_543+0x8>
    280a:	0016      	movs	r6, r2
    280c:	f000 f8a8 	bl	2960 <Code_574>
    2810:	bd00      	pop	{pc}
    2812:	46c0      	nop			; (mov r8, r8)

00002814 <Dictionary_547>:
    2814:	00002828 	andeq	r2, r0, r8, lsr #16
    2818:	74030040 	strvc	r0, [r3], #-64	; 0x40
    281c:	3f046269 	svccc	0x00046269

0000281e <Code_547>:
    281e:	3f04      	subs	r7, #4
    2820:	603e      	str	r6, [r7, #0]
    2822:	4e2b      	ldr	r6, [pc, #172]	; (28d0 <Code_559+0x20>)
    2824:	4770      	bx	lr
    2826:	46c0      	nop			; (mov r8, r8)

00002828 <Dictionary_549>:
    2828:	00002840 	andeq	r2, r0, r0, asr #16
    282c:	3e030081 	cdpcc	0, 0, cr0, cr3, cr1, {4}
    2830:	3f046e69 	svccc	0x00046e69

00002832 <Code_549>:
    2832:	3f04      	subs	r7, #4
    2834:	603e      	str	r6, [r7, #0]
    2836:	4e27      	ldr	r6, [pc, #156]	; (28d4 <Code_559+0x24>)
    2838:	4770      	bx	lr
    283a:	00000000 	andeq	r0, r0, r0
    283e:	286846c0 	stmdacs	r8!, {r6, r7, r9, sl, lr}^

00002840 <Dictionary_552>:
    2840:	00002868 	andeq	r2, r0, r8, ror #16
    2844:	630e0082 	movwvs	r0, #57474	; 0xe082
    2848:	65727275 	ldrbvs	r7, [r2, #-629]!	; 0x275
    284c:	732d746e 	teqvc	sp, #1845493760	; 0x6e000000
    2850:	6372756f 	cmnvs	r2, #465567744	; 0x1bc00000
    2854:	3f040065 	svccc	0x00040065

00002856 <Code_552>:
    2856:	3f04      	subs	r7, #4
    2858:	603e      	str	r6, [r7, #0]
    285a:	4e1f      	ldr	r6, [pc, #124]	; (28d8 <Code_559+0x28>)
    285c:	4770      	bx	lr
    285e:	00000000 	andeq	r0, r0, r0
    2862:	1ffff094 	svcne	0x00fff094
    2866:	288446c0 	stmcs	r4, {r6, r7, r9, sl, lr}

00002868 <Dictionary_555>:
    2868:	00002884 	andeq	r2, r0, r4, lsl #17
    286c:	73090000 	movwvc	r0, #36864	; 0x9000
    2870:	6f737465 	svcvs	0x00737465
    2874:	65637275 	strbvs	r7, [r3, #-629]!	; 0x275

00002878 <Code_555>:
    2878:	4817      	ldr	r0, [pc, #92]	; (28d8 <Code_559+0x28>)
    287a:	cf02      	ldmia	r7!, {r1}
    287c:	6006      	str	r6, [r0, #0]
    287e:	6041      	str	r1, [r0, #4]
    2880:	cf40      	ldmia	r7!, {r6}
    2882:	4770      	bx	lr

00002884 <Dictionary_557>:
    2884:	000028a4 	andeq	r2, r0, r4, lsr #17
    2888:	73060000 	movwvc	r0, #24576	; 0x6000
    288c:	6372756f 	cmnvs	r2, #465567744	; 0x1bc00000
    2890:	3f040065 	svccc	0x00040065

00002892 <Code_557>:
    2892:	3f04      	subs	r7, #4
    2894:	603e      	str	r6, [r7, #0]
    2896:	4e10      	ldr	r6, [pc, #64]	; (28d8 <Code_559+0x28>)
    2898:	3f04      	subs	r7, #4
    289a:	6870      	ldr	r0, [r6, #4]
    289c:	6038      	str	r0, [r7, #0]
    289e:	6836      	ldr	r6, [r6, #0]
    28a0:	4770      	bx	lr
    28a2:	46c0      	nop			; (mov r8, r8)

000028a4 <Dictionary_559>:
    28a4:	000028dc 	ldrdeq	r2, [r0], -ip
    28a8:	71050000 	mrsvc	r0, (UNDEF: 5)
    28ac:	79726575 	ldmdbvc	r2!, {r0, r2, r4, r5, r6, r8, sl, sp, lr}^

000028b0 <Code_559>:
    28b0:	b50f      	push	{r0, r1, r2, r3, lr}
    28b2:	4808      	ldr	r0, [pc, #32]	; (28d4 <Code_559+0x24>)
    28b4:	2100      	movs	r1, #0
    28b6:	6001      	str	r1, [r0, #0]
    28b8:	f7ff ffb1 	bl	281e <Code_547>
    28bc:	3f04      	subs	r7, #4
    28be:	603e      	str	r6, [r7, #0]
    28c0:	3f04      	subs	r7, #4
    28c2:	603e      	str	r6, [r7, #0]
    28c4:	26c8      	movs	r6, #200	; 0xc8
    28c6:	f7ff ff70 	bl	27aa <Code_543>
    28ca:	f7ff ffd5 	bl	2878 <Code_555>
    28ce:	bd0f      	pop	{r0, r1, r2, r3, pc}
    28d0:	1ffff094 	svcne	0x00fff094
    28d4:	20002fe4 	andcs	r2, r0, r4, ror #31
    28d8:	20002fdc 	ldrdcs	r2, [r0], -ip

000028dc <Dictionary_564>:
    28dc:	0000292c 	andeq	r2, r0, ip, lsr #18
    28e0:	63070000 	movwvs	r0, #28672	; 0x7000
    28e4:	61706d6f 	cmnvs	r0, pc, ror #26
    28e8:	b50f6572 	strlt	r6, [pc, #-1394]	; 237e <Code_475+0x8>

000028ea <Code_564>:
    28ea:	b50f      	push	{r0, r1, r2, r3, lr}
    28ec:	0031      	movs	r1, r6
    28ee:	cf40      	ldmia	r7!, {r6}
    28f0:	cf01      	ldmia	r7!, {r0}
    28f2:	4288      	cmp	r0, r1
    28f4:	d002      	beq.n	28fc <Code_564+0x12>
    28f6:	cf40      	ldmia	r7!, {r6}
    28f8:	2600      	movs	r6, #0
    28fa:	bd0f      	pop	{r0, r1, r2, r3, pc}
    28fc:	cf02      	ldmia	r7!, {r1}
    28fe:	2800      	cmp	r0, #0
    2900:	d010      	beq.n	2924 <Code_564+0x3a>
    2902:	3801      	subs	r0, #1
    2904:	5c0a      	ldrb	r2, [r1, r0]
    2906:	5c33      	ldrb	r3, [r6, r0]
    2908:	2a41      	cmp	r2, #65	; 0x41
    290a:	d302      	bcc.n	2912 <Code_564+0x28>
    290c:	2a5b      	cmp	r2, #91	; 0x5b
    290e:	d200      	bcs.n	2912 <Code_564+0x28>
    2910:	3220      	adds	r2, #32
    2912:	2b41      	cmp	r3, #65	; 0x41
    2914:	d302      	bcc.n	291c <Code_564+0x32>
    2916:	2b5b      	cmp	r3, #91	; 0x5b
    2918:	d200      	bcs.n	291c <Code_564+0x32>
    291a:	3320      	adds	r3, #32
    291c:	429a      	cmp	r2, r3
    291e:	d0ee      	beq.n	28fe <Code_564+0x14>
    2920:	2600      	movs	r6, #0
    2922:	bd0f      	pop	{r0, r1, r2, r3, pc}
    2924:	2600      	movs	r6, #0
    2926:	43f6      	mvns	r6, r6
    2928:	bd0f      	pop	{r0, r1, r2, r3, pc}
    292a:	46c0      	nop			; (mov r8, r8)

0000292c <Dictionary_569>:
    292c:	00002940 	andeq	r2, r0, r0, asr #18
    2930:	63020000 	movwvs	r0, #8192	; 0x2000
    2934:	b5000072 	strlt	r0, [r0, #-114]	; 0x72

00002936 <Code_569>:
    2936:	b500      	push	{lr}
    2938:	f000 f864 	bl	2a04 <dotgaensefuesschen>
    293c:	bd000a01 	vstrlt	s0, [r0, #-4]

00002940 <Dictionary_571>:
    2940:	00002954 	andeq	r2, r0, r4, asr r9
    2944:	62020000 	andvs	r0, r2, #0
    2948:	3f04006c 	svccc	0x0004006c

0000294a <Code_571>:
    294a:	3f04      	subs	r7, #4
    294c:	603e      	str	r6, [r7, #0]
    294e:	2620      	movs	r6, #32
    2950:	4770      	bx	lr
    2952:	46c0      	nop			; (mov r8, r8)

00002954 <Dictionary_574>:
    2954:	00002968 	andeq	r2, r0, r8, ror #18
    2958:	73050000 	movwvc	r0, #20480	; 0x5000
    295c:	65636170 	strbvs	r6, [r3, #-368]!	; 0x170

00002960 <Code_574>:
    2960:	3f04      	subs	r7, #4
    2962:	603e      	str	r6, [r7, #0]
    2964:	2620      	movs	r6, #32
    2966:	e64b      	b.n	2600 <Code_524>

00002968 <Dictionary_577>:
    2968:	00002988 	andeq	r2, r0, r8, lsl #19
    296c:	73060000 	movwvc	r0, #24576	; 0x6000
    2970:	65636170 	strbvs	r6, [r3, #-368]!	; 0x170
    2974:	b5000073 	strlt	r0, [r0, #-115]	; 0x73

00002976 <Code_577>:
    2976:	b500      	push	{lr}
    2978:	2e00      	cmp	r6, #0
    297a:	dd03      	ble.n	2984 <Code_577+0xe>
    297c:	f7ff fff0 	bl	2960 <Code_574>
    2980:	3e01      	subs	r6, #1
    2982:	d1fb      	bne.n	297c <Code_577+0x6>
    2984:	cf40      	ldmia	r7!, {r6}
    2986:	bd00      	pop	{pc}

00002988 <Dictionary_579>:
    2988:	00002998 	muleq	r0, r8, r9
    298c:	5b060050 	blpl	182ad4 <BIT20+0x82ad4>
    2990:	72616863 	rsbvc	r6, r1, #6488064	; 0x630000
    2994:	e005005d 	and	r0, r5, sp, asr r0

00002996 <Code_579>:
    2996:	e005      	b.n	29a4 <Code_580>

00002998 <Dictionary_580>:
    2998:	000029b0 			; <UNDEFINED> instruction: 0x000029b0
    299c:	63040000 	movwvs	r0, #16384	; 0x4000
    29a0:	00726168 	rsbseq	r6, r2, r8, ror #2

000029a4 <Code_580>:
    29a4:	b500      	push	{lr}
    29a6:	f001 fc0d 	bl	41c4 <Code_1081>
    29aa:	cf40      	ldmia	r7!, {r6}
    29ac:	7836      	ldrb	r6, [r6, #0]
    29ae:	bd00      	pop	{pc}

000029b0 <Dictionary_582>:
    29b0:	000029c0 	andeq	r2, r0, r0, asr #19
    29b4:	28010450 	stmdacs	r1, {r4, r6, sl}

000029b8 <Code_582>:
    29b8:	3f04      	subs	r7, #4
    29ba:	603e      	str	r6, [r7, #0]
    29bc:	2629      	movs	r6, #41	; 0x29
    29be:	e006      	b.n	29ce <Code_585+0x6>

000029c0 <Dictionary_585>:
    29c0:	000029dc 	ldrdeq	r2, [r0], -ip
    29c4:	5c010450 	cfstrspl	mvf0, [r1], {80}	; 0x50

000029c8 <Code_585>:
    29c8:	3f04      	subs	r7, #4
    29ca:	603e      	str	r6, [r7, #0]
    29cc:	2600      	movs	r6, #0
    29ce:	b500      	push	{lr}
    29d0:	f001 fc02 	bl	41d8 <Code_1083>
    29d4:	3704      	adds	r7, #4
    29d6:	cf40      	ldmia	r7!, {r6}
    29d8:	bd00      	pop	{pc}
    29da:	46c0      	nop			; (mov r8, r8)

000029dc <Dictionary_590>:
    29dc:	00002a24 	andeq	r2, r0, r4, lsr #20
    29e0:	2e020010 	mcrcs	0, 0, r0, cr2, cr0, {0}
    29e4:	48a10022 	stmiami	r1!, {r1, r5}

000029e6 <Code_590>:
    29e6:	48a1      	ldr	r0, [pc, #644]	; (2c6c <Code_629+0x9c>)
    29e8:	b500      	push	{lr}
    29ea:	3f04      	subs	r7, #4
    29ec:	603e      	str	r6, [r7, #0]
    29ee:	0006      	movs	r6, r0
    29f0:	f000 f9e2 	bl	2db8 <Code_674>
    29f4:	3f04      	subs	r7, #4
    29f6:	603e      	str	r6, [r7, #0]
    29f8:	2622      	movs	r6, #34	; 0x22
    29fa:	f001 fbed 	bl	41d8 <Code_1083>
    29fe:	f000 fd24 	bl	344a <Code_805>
    2a02:	bd00      	pop	{pc}

00002a04 <dotgaensefuesschen>:
    2a04:	b40a      	push	{r1, r3}
    2a06:	3f04      	subs	r7, #4
    2a08:	603e      	str	r6, [r7, #0]
    2a0a:	4676      	mov	r6, lr
    2a0c:	3e01      	subs	r6, #1
    2a0e:	7833      	ldrb	r3, [r6, #0]
    2a10:	2101      	movs	r1, #1
    2a12:	3301      	adds	r3, #1
    2a14:	4019      	ands	r1, r3
    2a16:	185b      	adds	r3, r3, r1
    2a18:	4671      	mov	r1, lr
    2a1a:	18c9      	adds	r1, r1, r3
    2a1c:	468e      	mov	lr, r1
    2a1e:	bc0a      	pop	{r1, r3}
    2a20:	e03c      	b.n	2a9c <Code_605>
    2a22:	46c0      	nop			; (mov r8, r8)

00002a24 <Dictionary_596>:
    2a24:	00002a4c 	andeq	r2, r0, ip, asr #20
    2a28:	63020010 	movwvs	r0, #8208	; 0x2010
    2a2c:	48900022 	ldmmi	r0, {r1, r5}

00002a2e <Code_596>:
    2a2e:	4890      	ldr	r0, [pc, #576]	; (2c70 <Code_629+0xa0>)
    2a30:	e7da      	b.n	29e8 <Code_590+0x2>

00002a32 <dotcfuesschen>:
    2a32:	3f04      	subs	r7, #4
    2a34:	603e      	str	r6, [r7, #0]
    2a36:	4676      	mov	r6, lr
    2a38:	3e01      	subs	r6, #1
    2a3a:	7833      	ldrb	r3, [r6, #0]
    2a3c:	2101      	movs	r1, #1
    2a3e:	3301      	adds	r3, #1
    2a40:	4019      	ands	r1, r3
    2a42:	185b      	adds	r3, r3, r1
    2a44:	4671      	mov	r1, lr
    2a46:	18c9      	adds	r1, r1, r3
    2a48:	468e      	mov	lr, r1
    2a4a:	4770      	bx	lr

00002a4c <Dictionary_598>:
    2a4c:	00002a78 	andeq	r2, r0, r8, ror sl
    2a50:	73020010 	movwvc	r0, #8208	; 0x2010
    2a54:	48870022 	stmmi	r7, {r1, r5}

00002a56 <Code_598>:
    2a56:	4887      	ldr	r0, [pc, #540]	; (2c74 <Code_629+0xa4>)
    2a58:	e7c6      	b.n	29e8 <Code_590+0x2>

00002a5a <dotsfuesschen>:
    2a5a:	3f04      	subs	r7, #4
    2a5c:	603e      	str	r6, [r7, #0]
    2a5e:	4676      	mov	r6, lr
    2a60:	3f04      	subs	r7, #4
    2a62:	603e      	str	r6, [r7, #0]
    2a64:	3e01      	subs	r6, #1
    2a66:	7836      	ldrb	r6, [r6, #0]
    2a68:	2101      	movs	r1, #1
    2a6a:	1c73      	adds	r3, r6, #1
    2a6c:	4019      	ands	r1, r3
    2a6e:	185b      	adds	r3, r3, r1
    2a70:	4671      	mov	r1, lr
    2a72:	18c9      	adds	r1, r1, r3
    2a74:	468e      	mov	lr, r1
    2a76:	4770      	bx	lr

00002a78 <Dictionary_602>:
    2a78:	00002a90 	muleq	r0, r0, sl
    2a7c:	63050000 	movwvs	r0, #20480	; 0x5000
    2a80:	746e756f 	strbtvc	r7, [lr], #-1391	; 0x56f

00002a84 <Code_602>:
    2a84:	3601      	adds	r6, #1
    2a86:	3f04      	subs	r7, #4
    2a88:	603e      	str	r6, [r7, #0]
    2a8a:	3e01      	subs	r6, #1
    2a8c:	7836      	ldrb	r6, [r6, #0]
    2a8e:	4770      	bx	lr

00002a90 <Dictionary_605>:
    2a90:	00002ab8 			; <UNDEFINED> instruction: 0x00002ab8
    2a94:	63050000 	movwvs	r0, #20480	; 0x5000
    2a98:	65707974 	ldrbvs	r7, [r0, #-2420]!	; 0x974

00002a9c <Code_605>:
    2a9c:	b501      	push	{r0, lr}
    2a9e:	7830      	ldrb	r0, [r6, #0]
    2aa0:	2800      	cmp	r0, #0
    2aa2:	d007      	beq.n	2ab4 <Code_605+0x18>
    2aa4:	3601      	adds	r6, #1
    2aa6:	3f04      	subs	r7, #4
    2aa8:	603e      	str	r6, [r7, #0]
    2aaa:	7836      	ldrb	r6, [r6, #0]
    2aac:	f7ff fda8 	bl	2600 <Code_524>
    2ab0:	3801      	subs	r0, #1
    2ab2:	d1f7      	bne.n	2aa4 <Code_605+0x8>
    2ab4:	cf40      	ldmia	r7!, {r6}
    2ab6:	bd01      	pop	{r0, pc}

00002ab8 <Dictionary_609>:
    2ab8:	00002ae8 	andeq	r2, r0, r8, ror #21
    2abc:	74040000 	strvc	r0, [r4], #-0
    2ac0:	00657079 	rsbeq	r7, r5, r9, ror r0

00002ac4 <Code_609>:
    2ac4:	0031      	movs	r1, r6
    2ac6:	cf40      	ldmia	r7!, {r6}
    2ac8:	0030      	movs	r0, r6
    2aca:	cf40      	ldmia	r7!, {r6}

00002acc <stype_addr_r0_len_r1>:
    2acc:	b500      	push	{lr}
    2ace:	2900      	cmp	r1, #0
    2ad0:	d008      	beq.n	2ae4 <stype_addr_r0_len_r1+0x18>
    2ad2:	2200      	movs	r2, #0
    2ad4:	3f04      	subs	r7, #4
    2ad6:	603e      	str	r6, [r7, #0]
    2ad8:	5c86      	ldrb	r6, [r0, r2]
    2ada:	f7ff fd91 	bl	2600 <Code_524>
    2ade:	3201      	adds	r2, #1
    2ae0:	4291      	cmp	r1, r2
    2ae2:	d1f7      	bne.n	2ad4 <stype_addr_r0_len_r1+0x8>
    2ae4:	bd00      	pop	{pc}
    2ae6:	46c0      	nop			; (mov r8, r8)

00002ae8 <Dictionary_613>:
    2ae8:	00002b24 	andeq	r2, r0, r4, lsr #22
    2aec:	68040000 	stmdavs	r4, {}	; <UNPREDICTABLE>
    2af0:	002e7865 	eoreq	r7, lr, r5, ror #16

00002af4 <Code_613>:
    2af4:	b507      	push	{r0, r1, r2, lr}
    2af6:	0031      	movs	r1, r6
    2af8:	cf40      	ldmia	r7!, {r6}
    2afa:	2020      	movs	r0, #32
    2afc:	220f      	movs	r2, #15
    2afe:	3804      	subs	r0, #4
    2b00:	3f04      	subs	r7, #4
    2b02:	603e      	str	r6, [r7, #0]
    2b04:	000e      	movs	r6, r1
    2b06:	40c6      	lsrs	r6, r0
    2b08:	4016      	ands	r6, r2
    2b0a:	2e09      	cmp	r6, #9
    2b0c:	d901      	bls.n	2b12 <Code_613+0x1e>
    2b0e:	3637      	adds	r6, #55	; 0x37
    2b10:	e000      	b.n	2b14 <Code_613+0x20>
    2b12:	3630      	adds	r6, #48	; 0x30
    2b14:	f7ff fd74 	bl	2600 <Code_524>
    2b18:	2800      	cmp	r0, #0
    2b1a:	d1f0      	bne.n	2afe <Code_613+0xa>
    2b1c:	f7ff ff20 	bl	2960 <Code_574>
    2b20:	bd07      	pop	{r0, r1, r2, pc}
    2b22:	46c0      	nop			; (mov r8, r8)

00002b24 <Dictionary_616>:
    2b24:	00002b34 	andeq	r2, r0, r4, lsr fp
    2b28:	68030000 	stmdavs	r3, {}	; <UNPREDICTABLE>
    2b2c:	b51f732e 	ldrlt	r7, [pc, #-814]	; 2806 <Code_543+0x5c>

00002b2e <Code_616>:
    2b2e:	b51f      	push	{r0, r1, r2, r3, r4, lr}
    2b30:	4c51      	ldr	r4, [pc, #324]	; (2c78 <Code_629+0xa8>)
    2b32:	e00e      	b.n	2b52 <Code_618+0x4>

00002b34 <Dictionary_617>:
    2b34:	00002b44 	andeq	r2, r0, r4, asr #22
    2b38:	75030000 	strvc	r0, [r3, #-0]
    2b3c:	b51f732e 	ldrlt	r7, [pc, #-814]	; 2816 <Dictionary_547+0x2>

00002b3e <Code_617>:
    2b3e:	b51f      	push	{r0, r1, r2, r3, r4, lr}
    2b40:	4c4e      	ldr	r4, [pc, #312]	; (2c7c <Code_629+0xac>)
    2b42:	e006      	b.n	2b52 <Code_618+0x4>

00002b44 <Dictionary_618>:
    2b44:	00002bc4 	andeq	r2, r0, r4, asr #23
    2b48:	2e020000 	cdpcs	0, 0, cr0, cr2, cr0, {0}
    2b4c:	b51f0073 	ldrlt	r0, [pc, #-115]	; 2ae1 <stype_addr_r0_len_r1+0x15>

00002b4e <Code_618>:
    2b4e:	b51f      	push	{r0, r1, r2, r3, r4, lr}
    2b50:	4c4b      	ldr	r4, [pc, #300]	; (2c80 <Code_629+0xb0>)
    2b52:	494c      	ldr	r1, [pc, #304]	; (2c84 <Code_629+0xb4>)
    2b54:	1bc9      	subs	r1, r1, r7
    2b56:	0889      	lsrs	r1, r1, #2
    2b58:	4a4b      	ldr	r2, [pc, #300]	; (2c88 <Code_629+0xb8>)
    2b5a:	6810      	ldr	r0, [r2, #0]
    2b5c:	b403      	push	{r0, r1}
    2b5e:	200a      	movs	r0, #10
    2b60:	6010      	str	r0, [r2, #0]
    2b62:	f7ff ff4f 	bl	2a04 <dotgaensefuesschen>
    2b66:	61745308 	cmnvs	r4, r8, lsl #6
    2b6a:	203a6b63 	eorscs	r6, sl, r3, ror #22
    2b6e:	3f04005b 	svccc	0x0004005b
    2b72:	603e      	str	r6, [r7, #0]
    2b74:	000e      	movs	r6, r1
    2b76:	f001 fd0d 	bl	4594 <Code_1149>
    2b7a:	f7ff ff43 	bl	2a04 <dotgaensefuesschen>
    2b7e:	00205d02 	eoreq	r5, r0, r2, lsl #26
    2b82:	bc03      	pop	{r0, r1}
    2b84:	4a40      	ldr	r2, [pc, #256]	; (2c88 <Code_629+0xb8>)
    2b86:	6010      	str	r0, [r2, #0]
    2b88:	2900      	cmp	r1, #0
    2b8a:	d00a      	beq.n	2ba2 <Code_618+0x54>
    2b8c:	4a3f      	ldr	r2, [pc, #252]	; (2c8c <Code_629+0xbc>)
    2b8e:	6810      	ldr	r0, [r2, #0]
    2b90:	b406      	push	{r1, r2}
    2b92:	3f04      	subs	r7, #4
    2b94:	603e      	str	r6, [r7, #0]
    2b96:	0006      	movs	r6, r0
    2b98:	47a0      	blx	r4
    2b9a:	bc06      	pop	{r1, r2}
    2b9c:	3a04      	subs	r2, #4
    2b9e:	3901      	subs	r1, #1
    2ba0:	d1f5      	bne.n	2b8e <Code_618+0x40>
    2ba2:	f7ff ff2f 	bl	2a04 <dotgaensefuesschen>
    2ba6:	4f542006 	svcmi	0x00542006
    2baa:	00203a53 	eoreq	r3, r0, r3, asr sl
    2bae:	3f04      	subs	r7, #4
    2bb0:	603e      	str	r6, [r7, #0]
    2bb2:	0036      	movs	r6, r6
    2bb4:	47a0      	blx	r4
    2bb6:	f7ff ff25 	bl	2a04 <dotgaensefuesschen>
    2bba:	3e2a2004 	cdpcc	0, 2, cr2, cr10, cr4, {0}
    2bbe:	bd1f000a 	ldclt	0, cr0, [pc, #-40]	; 2b9c <Code_618+0x4e>
    2bc2:	46c0      	nop			; (mov r8, r8)

00002bc4 <Dictionary_629>:
    2bc4:	00002c90 	muleq	r0, r0, ip
    2bc8:	77050000 	strvc	r0, [r5, -r0]
    2bcc:	7364726f 	cmnvc	r4, #-268435450	; 0xf0000006

00002bd0 <Code_629>:
    2bd0:	b500      	push	{lr}
    2bd2:	f7ff ff17 	bl	2a04 <dotgaensefuesschen>
    2bd6:	726f7706 	rsbvc	r7, pc, #1572864	; 0x180000
    2bda:	000a7364 	andeq	r7, sl, r4, ror #6
    2bde:	f000 fe72 	bl	38c6 <Code_880>
    2be2:	f7ff ff0f 	bl	2a04 <dotgaensefuesschen>
    2be6:	64644109 	strbtvs	r4, [r4], #-265	; 0x109
    2bea:	73736572 	cmnvc	r3, #478150656	; 0x1c800000
    2bee:	3f04203a 	svccc	0x0004203a
    2bf2:	603e      	str	r6, [r7, #0]
    2bf4:	f7ff ff7e 	bl	2af4 <Code_613>
    2bf8:	f7ff ff04 	bl	2a04 <dotgaensefuesschen>
    2bfc:	6e694c06 	cdpvs	12, 6, cr4, cr9, cr6, {0}
    2c00:	00203a6b 	eoreq	r3, r0, fp, ror #20
    2c04:	3f04      	subs	r7, #4
    2c06:	603e      	str	r6, [r7, #0]
    2c08:	6836      	ldr	r6, [r6, #0]
    2c0a:	f7ff ff73 	bl	2af4 <Code_613>
    2c0e:	f7ff fef9 	bl	2a04 <dotgaensefuesschen>
    2c12:	616c4607 	cmnvs	ip, r7, lsl #12
    2c16:	203a7367 	eorscs	r7, sl, r7, ror #6
    2c1a:	3f04      	subs	r7, #4
    2c1c:	603e      	str	r6, [r7, #0]
    2c1e:	88b6      	ldrh	r6, [r6, #4]
    2c20:	f7ff ff68 	bl	2af4 <Code_613>
    2c24:	f7ff feee 	bl	2a04 <dotgaensefuesschen>
    2c28:	646f4306 	strbtvs	r4, [pc], #-774	; 2c30 <Code_629+0x60>
    2c2c:	00203a65 	eoreq	r3, r0, r5, ror #20
    2c30:	1db0      	adds	r0, r6, #6
    2c32:	f000 fe83 	bl	393c <skipstring>
    2c36:	3f04      	subs	r7, #4
    2c38:	603e      	str	r6, [r7, #0]
    2c3a:	0006      	movs	r6, r0
    2c3c:	f7ff ff5a 	bl	2af4 <Code_613>
    2c40:	f7ff fee0 	bl	2a04 <dotgaensefuesschen>
    2c44:	6d614e06 	stclvs	14, cr4, [r1, #-24]!	; 0xffffffe8
    2c48:	00203a65 	eoreq	r3, r0, r5, ror #20
    2c4c:	3f04      	subs	r7, #4
    2c4e:	603e      	str	r6, [r7, #0]
    2c50:	3606      	adds	r6, #6
    2c52:	f7ff ff23 	bl	2a9c <Code_605>
    2c56:	f7ff fed5 	bl	2a04 <dotgaensefuesschen>
    2c5a:	f0000a01 			; <UNDEFINED> instruction: 0xf0000a01
    2c5e:	fe4b 0030 	mcr2	0, 2, r0, cr11, cr0, {1}
    2c62:	cf40      	ldmia	r7!, {r6}
    2c64:	d0bd      	beq.n	2be2 <Code_629+0x12>
    2c66:	cf40      	ldmia	r7!, {r6}
    2c68:	bd00      	pop	{pc}
    2c6a:	2a040000 	bcs	102c72 <BIT20+0x2c72>
    2c6e:	2a320000 	bcs	c82c76 <BIT23+0x482c76>
    2c72:	2a5a0000 	bcs	1682c7a <BIT24+0x682c7a>
    2c76:	2af50000 	bcs	ffd42c7e <BIT31+0x7fd42c7e>
    2c7a:	45830000 	strmi	r0, [r3]
    2c7e:	45950000 	ldrmi	r0, [r5]
    2c82:	f25c0000 	vhadd.s16	d16, d12, d0
    2c86:	2ffc1fff 	svccs	0x00fc1fff
    2c8a:	f2582000 	vhadd.s16	d18, d8, d0
    2c8e:	2dac1fff 	stccs	15, cr1, [ip, #1020]!	; 0x3fc

00002c90 <Dictionary_649>:
    2c90:	00002dac 	andeq	r2, r0, ip, lsr #27
    2c94:	72100000 	andsvc	r0, r0, #0
    2c98:	73696765 	cmnvc	r9, #26476544	; 0x1940000
    2c9c:	6c726574 	cfldr64vs	mvdx6, [r2], #-464	; 0xfffffe30
    2ca0:	72657469 	rsbvc	r7, r5, #1761607680	; 0x69000000
    2ca4:	002c6c61 	eoreq	r6, ip, r1, ror #24

00002ca8 <Code_649>:
    2ca8:	b53f      	push	{r0, r1, r2, r3, r4, r5, lr}
    2caa:	0035      	movs	r5, r6
    2cac:	cf40      	ldmia	r7!, {r6}
    2cae:	0029      	movs	r1, r5
    2cb0:	00c9      	lsls	r1, r1, #3
    2cb2:	4329      	orrs	r1, r5
    2cb4:	022d      	lsls	r5, r5, #8
    2cb6:	489e      	ldr	r0, [pc, #632]	; (2f30 <Code_703+0x32>)
    2cb8:	4305      	orrs	r5, r0
    2cba:	23ff      	movs	r3, #255	; 0xff
    2cbc:	2200      	movs	r2, #0
    2cbe:	0030      	movs	r0, r6
    2cc0:	40d0      	lsrs	r0, r2
    2cc2:	4398      	bics	r0, r3
    2cc4:	d001      	beq.n	2cca <Code_649+0x22>
    2cc6:	3201      	adds	r2, #1
    2cc8:	e7f9      	b.n	2cbe <Code_649+0x16>
    2cca:	0030      	movs	r0, r6
    2ccc:	40d0      	lsrs	r0, r2
    2cce:	4018      	ands	r0, r3
    2cd0:	4328      	orrs	r0, r5
    2cd2:	3f04      	subs	r7, #4
    2cd4:	603e      	str	r6, [r7, #0]
    2cd6:	0006      	movs	r6, r0
    2cd8:	f000 fb7d 	bl	33d6 <Code_793>
    2cdc:	4895      	ldr	r0, [pc, #596]	; (2f34 <Code_703+0x36>)
    2cde:	4305      	orrs	r5, r0
    2ce0:	0018      	movs	r0, r3
    2ce2:	4090      	lsls	r0, r2
    2ce4:	4386      	bics	r6, r0
    2ce6:	d010      	beq.n	2d0a <Code_649+0x62>
    2ce8:	2400      	movs	r4, #0
    2cea:	0030      	movs	r0, r6
    2cec:	40e0      	lsrs	r0, r4
    2cee:	4398      	bics	r0, r3
    2cf0:	d001      	beq.n	2cf6 <Code_649+0x4e>
    2cf2:	3401      	adds	r4, #1
    2cf4:	e7f9      	b.n	2cea <Code_649+0x42>
    2cf6:	1b10      	subs	r0, r2, r4
    2cf8:	3f04      	subs	r7, #4
    2cfa:	603e      	str	r6, [r7, #0]
    2cfc:	000e      	movs	r6, r1
    2cfe:	0180      	lsls	r0, r0, #6
    2d00:	4306      	orrs	r6, r0
    2d02:	f000 fb68 	bl	33d6 <Code_793>
    2d06:	0022      	movs	r2, r4
    2d08:	e7df      	b.n	2cca <Code_649+0x22>
    2d0a:	2a00      	cmp	r2, #0
    2d0c:	d006      	beq.n	2d1c <Code_649+0x74>
    2d0e:	3f04      	subs	r7, #4
    2d10:	603e      	str	r6, [r7, #0]
    2d12:	000e      	movs	r6, r1
    2d14:	0192      	lsls	r2, r2, #6
    2d16:	4316      	orrs	r6, r2
    2d18:	f000 fb5d 	bl	33d6 <Code_793>
    2d1c:	cf40      	ldmia	r7!, {r6}
    2d1e:	bd3f      	pop	{r0, r1, r2, r3, r4, r5, pc}

00002d20 <registerliteralkommalang>:
    2d20:	b51f      	push	{r0, r1, r2, r3, r4, lr}
    2d22:	0031      	movs	r1, r6
    2d24:	cf40      	ldmia	r7!, {r6}
    2d26:	4c84      	ldr	r4, [pc, #528]	; (2f38 <Code_703+0x3a>)
    2d28:	430c      	orrs	r4, r1
    2d2a:	00c9      	lsls	r1, r1, #3
    2d2c:	430c      	orrs	r4, r1
    2d2e:	0149      	lsls	r1, r1, #5
    2d30:	0030      	movs	r0, r6
    2d32:	cf40      	ldmia	r7!, {r6}
    2d34:	0e02      	lsrs	r2, r0, #24
    2d36:	23ff      	movs	r3, #255	; 0xff
    2d38:	401a      	ands	r2, r3
    2d3a:	4b7d      	ldr	r3, [pc, #500]	; (2f30 <Code_703+0x32>)
    2d3c:	430b      	orrs	r3, r1
    2d3e:	4313      	orrs	r3, r2
    2d40:	3f04      	subs	r7, #4
    2d42:	603e      	str	r6, [r7, #0]
    2d44:	001e      	movs	r6, r3
    2d46:	f000 fb46 	bl	33d6 <Code_793>
    2d4a:	3f04      	subs	r7, #4
    2d4c:	603e      	str	r6, [r7, #0]
    2d4e:	0026      	movs	r6, r4
    2d50:	f000 fb41 	bl	33d6 <Code_793>
    2d54:	0c02      	lsrs	r2, r0, #16
    2d56:	23ff      	movs	r3, #255	; 0xff
    2d58:	401a      	ands	r2, r3
    2d5a:	4b78      	ldr	r3, [pc, #480]	; (2f3c <Code_703+0x3e>)
    2d5c:	430b      	orrs	r3, r1
    2d5e:	4313      	orrs	r3, r2
    2d60:	3f04      	subs	r7, #4
    2d62:	603e      	str	r6, [r7, #0]
    2d64:	001e      	movs	r6, r3
    2d66:	f000 fb36 	bl	33d6 <Code_793>
    2d6a:	3f04      	subs	r7, #4
    2d6c:	603e      	str	r6, [r7, #0]
    2d6e:	0026      	movs	r6, r4
    2d70:	f000 fb31 	bl	33d6 <Code_793>
    2d74:	0a02      	lsrs	r2, r0, #8
    2d76:	23ff      	movs	r3, #255	; 0xff
    2d78:	401a      	ands	r2, r3
    2d7a:	4b70      	ldr	r3, [pc, #448]	; (2f3c <Code_703+0x3e>)
    2d7c:	430b      	orrs	r3, r1
    2d7e:	4313      	orrs	r3, r2
    2d80:	3f04      	subs	r7, #4
    2d82:	603e      	str	r6, [r7, #0]
    2d84:	001e      	movs	r6, r3
    2d86:	f000 fb26 	bl	33d6 <Code_793>
    2d8a:	3f04      	subs	r7, #4
    2d8c:	603e      	str	r6, [r7, #0]
    2d8e:	0026      	movs	r6, r4
    2d90:	f000 fb21 	bl	33d6 <Code_793>
    2d94:	0002      	movs	r2, r0
    2d96:	23ff      	movs	r3, #255	; 0xff
    2d98:	401a      	ands	r2, r3
    2d9a:	4b68      	ldr	r3, [pc, #416]	; (2f3c <Code_703+0x3e>)
    2d9c:	430b      	orrs	r3, r1
    2d9e:	4313      	orrs	r3, r2
    2da0:	3f04      	subs	r7, #4
    2da2:	603e      	str	r6, [r7, #0]
    2da4:	001e      	movs	r6, r3
    2da6:	f000 fb16 	bl	33d6 <Code_793>
    2daa:	bd1f      	pop	{r0, r1, r2, r3, r4, pc}

00002dac <Dictionary_674>:
    2dac:	00002e1c 	andeq	r2, r0, ip, lsl lr
    2db0:	63050000 	movwvs	r0, #20480	; 0x5000
    2db4:	2c6c6c61 	stclcs	12, cr6, [ip], #-388	; 0xfffffe7c

00002db8 <Code_674>:
    2db8:	b50f      	push	{r0, r1, r2, r3, lr}
    2dba:	0033      	movs	r3, r6
    2dbc:	f000 fe62 	bl	3a84 <Code_909>
    2dc0:	0030      	movs	r0, r6
    2dc2:	cf40      	ldmia	r7!, {r6}
    2dc4:	1a1b      	subs	r3, r3, r0
    2dc6:	3b04      	subs	r3, #4
    2dc8:	495d      	ldr	r1, [pc, #372]	; (2f40 <Code_703+0x42>)
    2dca:	4019      	ands	r1, r3
    2dcc:	2900      	cmp	r1, #0
    2dce:	d00e      	beq.n	2dee <Code_674+0x36>
    2dd0:	4a5c      	ldr	r2, [pc, #368]	; (2f44 <Code_703+0x46>)
    2dd2:	4291      	cmp	r1, r2
    2dd4:	d00b      	beq.n	2dee <Code_674+0x36>
    2dd6:	3601      	adds	r6, #1
    2dd8:	3f04      	subs	r7, #4
    2dda:	603e      	str	r6, [r7, #0]
    2ddc:	2600      	movs	r6, #0
    2dde:	f7ff ff63 	bl	2ca8 <Code_649>
    2de2:	3f04      	subs	r7, #4
    2de4:	603e      	str	r6, [r7, #0]
    2de6:	4e58      	ldr	r6, [pc, #352]	; (2f48 <Code_703+0x4a>)
    2de8:	f000 faf5 	bl	33d6 <Code_793>
    2dec:	bd0f      	pop	{r0, r1, r2, r3, pc}
    2dee:	cf40      	ldmia	r7!, {r6}
    2df0:	085b      	lsrs	r3, r3, #1
    2df2:	4856      	ldr	r0, [pc, #344]	; (2f4c <Code_703+0x4e>)
    2df4:	4956      	ldr	r1, [pc, #344]	; (2f50 <Code_703+0x52>)
    2df6:	4019      	ands	r1, r3
    2df8:	4308      	orrs	r0, r1
    2dfa:	0adb      	lsrs	r3, r3, #11
    2dfc:	4955      	ldr	r1, [pc, #340]	; (2f54 <Code_703+0x56>)
    2dfe:	4019      	ands	r1, r3
    2e00:	0409      	lsls	r1, r1, #16
    2e02:	4308      	orrs	r0, r1
    2e04:	0a9b      	lsrs	r3, r3, #10
    2e06:	2101      	movs	r1, #1
    2e08:	4019      	ands	r1, r3
    2e0a:	0689      	lsls	r1, r1, #26
    2e0c:	4308      	orrs	r0, r1
    2e0e:	3f04      	subs	r7, #4
    2e10:	603e      	str	r6, [r7, #0]
    2e12:	0006      	movs	r6, r0
    2e14:	f000 fb09 	bl	342a <Code_802>
    2e18:	bd0f      	pop	{r0, r1, r2, r3, pc}
    2e1a:	46c0      	nop			; (mov r8, r8)

00002e1c <Dictionary_683>:
    2e1c:	00002e70 	andeq	r2, r0, r0, ror lr
    2e20:	6c080000 	stcvs	0, cr0, [r8], {-0}
    2e24:	72657469 	rsbvc	r7, r5, #1761607680	; 0x69000000
    2e28:	002c6c61 	eoreq	r6, ip, r1, ror #24

00002e2c <Code_683>:
    2e2c:	b508      	push	{r3, lr}
    2e2e:	3f04      	subs	r7, #4
    2e30:	603e      	str	r6, [r7, #0]
    2e32:	4e49      	ldr	r6, [pc, #292]	; (2f58 <Code_703+0x5a>)
    2e34:	f000 facf 	bl	33d6 <Code_793>
    2e38:	3f04      	subs	r7, #4
    2e3a:	603e      	str	r6, [r7, #0]
    2e3c:	4e47      	ldr	r6, [pc, #284]	; (2f5c <Code_703+0x5e>)
    2e3e:	f000 faca 	bl	33d6 <Code_793>
    2e42:	4b47      	ldr	r3, [pc, #284]	; (2f60 <Code_703+0x62>)
    2e44:	0030      	movs	r0, r6
    2e46:	4018      	ands	r0, r3
    2e48:	4298      	cmp	r0, r3
    2e4a:	d10b      	bne.n	2e64 <Code_683+0x38>
    2e4c:	43f6      	mvns	r6, r6
    2e4e:	3f04      	subs	r7, #4
    2e50:	603e      	str	r6, [r7, #0]
    2e52:	2606      	movs	r6, #6
    2e54:	f7ff ff28 	bl	2ca8 <Code_649>
    2e58:	3f04      	subs	r7, #4
    2e5a:	603e      	str	r6, [r7, #0]
    2e5c:	4e41      	ldr	r6, [pc, #260]	; (2f64 <Code_703+0x66>)
    2e5e:	f000 faba 	bl	33d6 <Code_793>
    2e62:	bd08      	pop	{r3, pc}
    2e64:	3f04      	subs	r7, #4
    2e66:	603e      	str	r6, [r7, #0]
    2e68:	2606      	movs	r6, #6
    2e6a:	f7ff ff1d 	bl	2ca8 <Code_649>
    2e6e:	bd08      	pop	{r3, pc}

00002e70 <Dictionary_694>:
    2e70:	00002e98 	muleq	r0, r8, lr
    2e74:	63060000 	movwvs	r0, #24576	; 0x6000
    2e78:	74616572 	strbtvc	r6, [r1], #-1394	; 0x572
    2e7c:	b5000065 	strlt	r0, [r0, #-101]	; 0x65

00002e7e <Code_694>:
    2e7e:	b500      	push	{lr}
    2e80:	f000 f83d 	bl	2efe <Code_703>
    2e84:	202e      	movs	r0, #46	; 0x2e
    2e86:	0200      	lsls	r0, r0, #8
    2e88:	30b7      	adds	r0, #183	; 0xb7
    2e8a:	4780      	blx	r0
    2e8c:	3f04      	subs	r7, #4
    2e8e:	603e      	str	r6, [r7, #0]
    2e90:	4676      	mov	r6, lr
    2e92:	3e01      	subs	r6, #1
    2e94:	bd00      	pop	{pc}
    2e96:	46c0      	nop			; (mov r8, r8)

00002e98 <Dictionary_696>:
    2e98:	00002ef0 	strdeq	r2, [r0], -r0
    2e9c:	64050020 	strvs	r0, [r5], #-32
    2ea0:	3e73656f 	cdpcc	5, 7, cr6, cr3, cr15, {3}

00002ea4 <Code_696>:
    2ea4:	202e      	movs	r0, #46	; 0x2e
    2ea6:	0200      	lsls	r0, r0, #8
    2ea8:	30b7      	adds	r0, #183	; 0xb7
    2eaa:	4780      	blx	r0
    2eac:	3f04      	subs	r7, #4
    2eae:	603e      	str	r6, [r7, #0]
    2eb0:	4676      	mov	r6, lr
    2eb2:	3e01      	subs	r6, #1
    2eb4:	4770      	bx	lr

00002eb6 <dodoes>:
    2eb6:	3f04      	subs	r7, #4
    2eb8:	603e      	str	r6, [r7, #0]
    2eba:	4676      	mov	r6, lr
    2ebc:	3e01      	subs	r6, #1
    2ebe:	4a2a      	ldr	r2, [pc, #168]	; (2f68 <Code_703+0x6a>)
    2ec0:	6813      	ldr	r3, [r2, #0]
    2ec2:	492a      	ldr	r1, [pc, #168]	; (2f6c <Code_703+0x6e>)
    2ec4:	6809      	ldr	r1, [r1, #0]
    2ec6:	2002      	movs	r0, #2
    2ec8:	4008      	ands	r0, r1
    2eca:	d100      	bne.n	2ece <dodoes+0x18>
    2ecc:	3102      	adds	r1, #2
    2ece:	3102      	adds	r1, #2
    2ed0:	6011      	str	r1, [r2, #0]
    2ed2:	3601      	adds	r6, #1
    2ed4:	3f04      	subs	r7, #4
    2ed6:	603e      	str	r6, [r7, #0]
    2ed8:	2600      	movs	r6, #0
    2eda:	f7ff ff21 	bl	2d20 <registerliteralkommalang>
    2ede:	3f04      	subs	r7, #4
    2ee0:	603e      	str	r6, [r7, #0]
    2ee2:	4e19      	ldr	r6, [pc, #100]	; (2f48 <Code_703+0x4a>)
    2ee4:	f000 fa77 	bl	33d6 <Code_793>
    2ee8:	6013      	str	r3, [r2, #0]
    2eea:	f000 f9e0 	bl	32ae <Code_779>
    2eee:	bd00      	pop	{pc}

00002ef0 <Dictionary_703>:
    2ef0:	00002f74 	andeq	r2, r0, r4, ror pc
    2ef4:	3c070000 	stccc	0, cr0, [r7], {-0}
    2ef8:	6c697562 	cfstr64vs	mvdx7, [r9], #-392	; 0xfffffe78
    2efc:	b5007364 	strlt	r7, [r0, #-868]	; 0x364

00002efe <Code_703>:
    2efe:	b500      	push	{lr}
    2f00:	f000 fb6e 	bl	35e0 <Code_824>
    2f04:	f000 fdbe 	bl	3a84 <Code_909>
    2f08:	2002      	movs	r0, #2
    2f0a:	4006      	ands	r6, r0
    2f0c:	cf40      	ldmia	r7!, {r6}
    2f0e:	d104      	bne.n	2f1a <Code_703+0x1c>
    2f10:	3f04      	subs	r7, #4
    2f12:	603e      	str	r6, [r7, #0]
    2f14:	2636      	movs	r6, #54	; 0x36
    2f16:	f000 fa5e 	bl	33d6 <Code_793>
    2f1a:	3f04      	subs	r7, #4
    2f1c:	603e      	str	r6, [r7, #0]
    2f1e:	4e14      	ldr	r6, [pc, #80]	; (2f70 <Code_703+0x72>)
    2f20:	f000 fa59 	bl	33d6 <Code_793>
    2f24:	3f04      	subs	r7, #4
    2f26:	603e      	str	r6, [r7, #0]
    2f28:	2610      	movs	r6, #16
    2f2a:	f000 fac1 	bl	34b0 <Code_813>
    2f2e:	bd00      	pop	{pc}
    2f30:	00002000 	andeq	r2, r0, r0
    2f34:	00001000 	andeq	r1, r0, r0
    2f38:	00000200 	andeq	r0, r0, r0, lsl #4
    2f3c:	00003000 	andeq	r3, r0, r0
    2f40:	ffc00001 			; <UNDEFINED> instruction: 0xffc00001
    2f44:	ffc00000 			; <UNDEFINED> instruction: 0xffc00000
    2f48:	00004780 	andeq	r4, r0, r0, lsl #15
    2f4c:	f000f800 			; <UNDEFINED> instruction: 0xf000f800
    2f50:	000007ff 	strdeq	r0, [r0], -pc	; <UNPREDICTABLE>
    2f54:	000003ff 	strdeq	r0, [r0], -pc	; <UNPREDICTABLE>
    2f58:	00003f04 	andeq	r3, r0, r4, lsl #30
    2f5c:	0000603e 	andeq	r6, r0, lr, lsr r0
    2f60:	ffff0000 			; <UNDEFINED> instruction: 0xffff0000
    2f64:	000043f6 	strdeq	r4, [r0], -r6
    2f68:	1ffff000 	svcne	0x00fff000
    2f6c:	1ffff014 	svcne	0x00fff014
    2f70:	0000b500 	andeq	fp, r0, r0, lsl #10

00002f74 <Dictionary_711>:
    2f74:	00002f80 	andeq	r2, r0, r0, lsl #31
    2f78:	5b030050 	blpl	c30c0 <BIT19+0x430c0>
    2f7c:	e0035d27 	and	r5, r3, r7, lsr #26

00002f7e <Code_711>:
    2f7e:	e003      	b.n	2f88 <Code_712>

00002f80 <Dictionary_712>:
    2f80:	00002f98 	muleq	r0, r8, pc	; <UNPREDICTABLE>
    2f84:	27010000 	strcs	r0, [r1, -r0]

00002f88 <Code_712>:
    2f88:	b500      	push	{lr}
    2f8a:	f001 f91b 	bl	41c4 <Code_1081>
    2f8e:	f000 fd14 	bl	39ba <find_not_found>
    2f92:	0030      	movs	r0, r6
    2f94:	cf40      	ldmia	r7!, {r6}
    2f96:	bd00      	pop	{pc}

00002f98 <Dictionary_714>:
    2f98:	00002fd8 	ldrdeq	r2, [r0], -r8
    2f9c:	70080010 	andvc	r0, r8, r0, lsl r0
    2fa0:	7074736f 	rsbsvc	r7, r4, pc, ror #6
    2fa4:	00656e6f 	rsbeq	r6, r5, pc, ror #28

00002fa8 <Code_714>:
    2fa8:	b500      	push	{lr}
    2faa:	f7ff ffed 	bl	2f88 <Code_712>
    2fae:	2110      	movs	r1, #16
    2fb0:	4001      	ands	r1, r0
    2fb2:	d10d      	bne.n	2fd0 <Code_714+0x28>
    2fb4:	2120      	movs	r1, #32
    2fb6:	4001      	ands	r1, r0
    2fb8:	d005      	beq.n	2fc6 <Code_714+0x1e>
    2fba:	f7ff ff37 	bl	2e2c <Code_683>
    2fbe:	3f04      	subs	r7, #4
    2fc0:	603e      	str	r6, [r7, #0]
    2fc2:	4ee0      	ldr	r6, [pc, #896]	; (3344 <setflags_ram+0x1c>)
    2fc4:	e004      	b.n	2fd0 <Code_714+0x28>
    2fc6:	f7ff ff31 	bl	2e2c <Code_683>
    2fca:	3f04      	subs	r7, #4
    2fcc:	603e      	str	r6, [r7, #0]
    2fce:	4ede      	ldr	r6, [pc, #888]	; (3348 <setflags_ram+0x20>)
    2fd0:	f7ff fef2 	bl	2db8 <Code_674>
    2fd4:	bd00      	pop	{pc}
    2fd6:	46c0      	nop			; (mov r8, r8)

00002fd8 <Dictionary_717>:
    2fd8:	00003024 	andeq	r3, r0, r4, lsr #32
    2fdc:	69070000 	stmdbvs	r7, {}	; <UNPREDICTABLE>
    2fe0:	6e696c6e 	cdpvs	12, 6, cr6, cr9, cr14, {3}
    2fe4:	b5002c65 	strlt	r2, [r0, #-3173]	; 0xc65

00002fe6 <Code_717>:
    2fe6:	b500      	push	{lr}
    2fe8:	49d8      	ldr	r1, [pc, #864]	; (334c <setflags_ram+0x24>)
    2fea:	4ad9      	ldr	r2, [pc, #868]	; (3350 <setflags_ram+0x28>)
    2fec:	4bd9      	ldr	r3, [pc, #868]	; (3354 <setflags_ram+0x2c>)
    2fee:	8830      	ldrh	r0, [r6, #0]
    2ff0:	4288      	cmp	r0, r1
    2ff2:	d008      	beq.n	3006 <Code_717+0x20>
    2ff4:	4290      	cmp	r0, r2
    2ff6:	d008      	beq.n	300a <Code_717+0x24>
    2ff8:	4298      	cmp	r0, r3
    2ffa:	d006      	beq.n	300a <Code_717+0x24>
    2ffc:	3f04      	subs	r7, #4
    2ffe:	603e      	str	r6, [r7, #0]
    3000:	0006      	movs	r6, r0
    3002:	f000 f9e8 	bl	33d6 <Code_793>
    3006:	3602      	adds	r6, #2
    3008:	e7f1      	b.n	2fee <Code_717+0x8>
    300a:	cf40      	ldmia	r7!, {r6}
    300c:	bd00      	pop	{pc}

0000300e <suchedefinitionsende>:
    300e:	b40e      	push	{r1, r2, r3}
    3010:	4acf      	ldr	r2, [pc, #828]	; (3350 <setflags_ram+0x28>)
    3012:	4bd0      	ldr	r3, [pc, #832]	; (3354 <setflags_ram+0x2c>)
    3014:	8801      	ldrh	r1, [r0, #0]
    3016:	3002      	adds	r0, #2
    3018:	4291      	cmp	r1, r2
    301a:	d001      	beq.n	3020 <suchedefinitionsende+0x12>
    301c:	4299      	cmp	r1, r3
    301e:	d1f9      	bne.n	3014 <suchedefinitionsende+0x6>
    3020:	bc0e      	pop	{r1, r2, r3}
    3022:	4770      	bx	lr

00003024 <Dictionary_721>:
    3024:	00003038 	andeq	r3, r0, r8, lsr r0
    3028:	72040000 	andvc	r0, r4, #0
    302c:	002c7465 	eoreq	r7, ip, r5, ror #8

00003030 <Code_721>:
    3030:	3f04      	subs	r7, #4
    3032:	603e      	str	r6, [r7, #0]
    3034:	4ec6      	ldr	r6, [pc, #792]	; (3350 <setflags_ram+0x28>)
    3036:	e1ce      	b.n	33d6 <Code_793>

00003038 <Dictionary_724>:
    3038:	00003048 	andeq	r3, r0, r8, asr #32
    303c:	65040030 	strvs	r0, [r4, #-48]	; 0x30
    3040:	00746978 	rsbseq	r6, r4, r8, ror r9

00003044 <Code_724>:
    3044:	e7f4      	b.n	3030 <Code_721>
    3046:	46c0      	nop			; (mov r8, r8)

00003048 <Dictionary_725>:
    3048:	00003060 	andeq	r3, r0, r0, rrx
    304c:	72070030 	andvc	r0, r7, #48	; 0x30
    3050:	72756365 	rsbsvc	r6, r5, #-1811939327	; 0x94000001
    3054:	3f046573 	svccc	0x00046573

00003056 <Code_725>:
    3056:	3f04      	subs	r7, #4
    3058:	603e      	str	r6, [r7, #0]
    305a:	4ebf      	ldr	r6, [pc, #764]	; (3358 <setflags_ram+0x30>)
    305c:	6836      	ldr	r6, [r6, #0]
    305e:	e6ab      	b.n	2db8 <Code_674>

00003060 <Dictionary_727>:
    3060:	00003078 	andeq	r3, r0, r8, ror r0
    3064:	73050081 	movwvc	r0, #20609	; 0x5081
    3068:	65746174 	ldrbvs	r6, [r4, #-372]!	; 0x174

0000306c <Code_727>:
    306c:	3f04      	subs	r7, #4
    306e:	603e      	str	r6, [r7, #0]
    3070:	4eba      	ldr	r6, [pc, #744]	; (335c <setflags_ram+0x34>)
    3072:	4770      	bx	lr
    3074:	00000000 	andeq	r0, r0, r0

00003078 <Dictionary_730>:
    3078:	0000308c 	andeq	r3, r0, ip, lsl #1
    307c:	5d010000 	stcpl	0, cr0, [r1, #-0]

00003080 <Code_730>:
    3080:	48b6      	ldr	r0, [pc, #728]	; (335c <setflags_ram+0x34>)
    3082:	2100      	movs	r1, #0
    3084:	43c9      	mvns	r1, r1
    3086:	6001      	str	r1, [r0, #0]
    3088:	4770      	bx	lr
    308a:	46c0      	nop			; (mov r8, r8)

0000308c <Dictionary_731>:
    308c:	0000309c 	muleq	r0, ip, r0
    3090:	5b010010 	blpl	430d8 <BIT18+0x30d8>

00003094 <Code_731>:
    3094:	48b1      	ldr	r0, [pc, #708]	; (335c <setflags_ram+0x34>)
    3096:	2100      	movs	r1, #0
    3098:	6001      	str	r1, [r0, #0]
    309a:	4770      	bx	lr

0000309c <Dictionary_732>:
    309c:	000030c4 	andeq	r3, r0, r4, asr #1
    30a0:	3a010000 	bcc	430a8 <BIT18+0x30a8>

000030a4 <Code_732>:
    30a4:	b500      	push	{lr}
    30a6:	48ae      	ldr	r0, [pc, #696]	; (3360 <setflags_ram+0x38>)
    30a8:	6007      	str	r7, [r0, #0]
    30aa:	f000 fa99 	bl	35e0 <Code_824>
    30ae:	3f04      	subs	r7, #4
    30b0:	603e      	str	r6, [r7, #0]
    30b2:	4ea6      	ldr	r6, [pc, #664]	; (334c <setflags_ram+0x24>)
    30b4:	f000 f98f 	bl	33d6 <Code_793>
    30b8:	48a8      	ldr	r0, [pc, #672]	; (335c <setflags_ram+0x34>)
    30ba:	2100      	movs	r1, #0
    30bc:	43c9      	mvns	r1, r1
    30be:	6001      	str	r1, [r0, #0]
    30c0:	bd00      	pop	{pc}
    30c2:	46c0      	nop			; (mov r8, r8)

000030c4 <Dictionary_735>:
    30c4:	0000310c 	andeq	r3, r0, ip, lsl #2
    30c8:	3b010030 	blcc	43190 <BIT18+0x3190>

000030cc <Code_735>:
    30cc:	b500      	push	{lr}
    30ce:	48a4      	ldr	r0, [pc, #656]	; (3360 <setflags_ram+0x38>)
    30d0:	6801      	ldr	r1, [r0, #0]
    30d2:	42b9      	cmp	r1, r7
    30d4:	d00e      	beq.n	30f4 <Code_735+0x28>
    30d6:	f7ff fc95 	bl	2a04 <dotgaensefuesschen>
    30da:	74532015 	ldrbvc	r2, [r3], #-21
    30de:	206b6361 	rsbcs	r6, fp, r1, ror #6
    30e2:	20746f6e 	rsbscs	r6, r4, lr, ror #30
    30e6:	616c6162 	cmnvs	ip, r2, ror #2
    30ea:	6465636e 	strbtvs	r6, [r5], #-878	; 0x36e
    30ee:	f0010a2e 			; <UNDEFINED> instruction: 0xf0010a2e
    30f2:	fb46 3f04 	smlsd	pc, r6, r4, r3	; <UNPREDICTABLE>
    30f6:	603e      	str	r6, [r7, #0]
    30f8:	4e95      	ldr	r6, [pc, #596]	; (3350 <setflags_ram+0x28>)
    30fa:	f000 f96c 	bl	33d6 <Code_793>
    30fe:	f000 f8d6 	bl	32ae <Code_779>
    3102:	4896      	ldr	r0, [pc, #600]	; (335c <setflags_ram+0x34>)
    3104:	2100      	movs	r1, #0
    3106:	6001      	str	r1, [r0, #0]
    3108:	bd00      	pop	{pc}
    310a:	46c0      	nop			; (mov r8, r8)

0000310c <Dictionary_739>:
    310c:	00003120 	andeq	r3, r0, r0, lsr #2
    3110:	65070000 	strvs	r0, [r7, #-0]
    3114:	75636578 	strbvc	r6, [r3, #-1400]!	; 0x578
    3118:	00306574 	eorseq	r6, r0, r4, ror r5

0000311a <Code_739>:
    311a:	0030      	movs	r0, r6
    311c:	cf40      	ldmia	r7!, {r6}
    311e:	4687      	mov	pc, r0

00003120 <Dictionary_741>:
    3120:	00003138 	andeq	r3, r0, r8, lsr r1
    3124:	69090010 	stmdbvs	r9, {r4}
    3128:	64656d6d 	strbtvs	r6, [r5], #-3437	; 0xd6d
    312c:	65746169 	ldrbvs	r6, [r4, #-361]!	; 0x169

00003130 <Code_741>:
    3130:	3f04      	subs	r7, #4
    3132:	603e      	str	r6, [r7, #0]
    3134:	2610      	movs	r6, #16
    3136:	e0eb      	b.n	3310 <Code_785>

00003138 <Dictionary_744>:
    3138:	00003150 	andeq	r3, r0, r0, asr r1
    313c:	69060010 	stmdbvs	r6, {r4}
    3140:	6e696c6e 	cdpvs	12, 6, cr6, cr9, cr14, {3}
    3144:	3f040065 	svccc	0x00040065

00003146 <Code_744>:
    3146:	3f04      	subs	r7, #4
    3148:	603e      	str	r6, [r7, #0]
    314a:	2620      	movs	r6, #32
    314c:	e0e0      	b.n	3310 <Code_785>
    314e:	46c0      	nop			; (mov r8, r8)

00003150 <Dictionary_747>:
    3150:	0000316c 	andeq	r3, r0, ip, ror #2
    3154:	630b0010 	movwvs	r0, #45072	; 0xb010
    3158:	69706d6f 	ldmdbvs	r0!, {r0, r1, r2, r3, r5, r6, r8, sl, fp, sp, lr}^
    315c:	6e6f656c 	cdpvs	5, 6, cr6, cr15, cr12, {3}
    3160:	3f04796c 	svccc	0x0004796c

00003162 <Code_747>:
    3162:	3f04      	subs	r7, #4
    3164:	603e      	str	r6, [r7, #0]
    3166:	2630      	movs	r6, #48	; 0x30
    3168:	e0d2      	b.n	3310 <Code_785>
    316a:	46c0      	nop			; (mov r8, r8)

0000316c <Dictionary_750>:
    316c:	00003188 	andeq	r3, r0, r8, lsl #3
    3170:	300a0010 	andcc	r0, sl, r0, lsl r0
    3174:	6c6f662d 	stclvs	6, cr6, [pc], #-180	; 30c8 <Dictionary_735+0x4>
    3178:	6c626164 	stfvse	f6, [r2], #-400	; 0xfffffe70
    317c:	3f040065 	svccc	0x00040065

0000317e <Code_750>:
    317e:	3f04      	subs	r7, #4
    3180:	603e      	str	r6, [r7, #0]
    3182:	2640      	movs	r6, #64	; 0x40
    3184:	e0c4      	b.n	3310 <Code_785>
    3186:	46c0      	nop			; (mov r8, r8)

00003188 <Dictionary_753>:
    3188:	000031a4 	andeq	r3, r0, r4, lsr #3
    318c:	310a0010 	tstcc	sl, r0, lsl r0
    3190:	6c6f662d 	stclvs	6, cr6, [pc], #-180	; 30e4 <Code_735+0x18>
    3194:	6c626164 	stfvse	f6, [r2], #-400	; 0xfffffe70
    3198:	3f040065 	svccc	0x00040065

0000319a <Code_753>:
    319a:	3f04      	subs	r7, #4
    319c:	603e      	str	r6, [r7, #0]
    319e:	2641      	movs	r6, #65	; 0x41
    31a0:	e0b6      	b.n	3310 <Code_785>
    31a2:	46c0      	nop			; (mov r8, r8)

000031a4 <Dictionary_756>:
    31a4:	000031c0 	andeq	r3, r0, r0, asr #3
    31a8:	320a0010 	andcc	r0, sl, #16
    31ac:	6c6f662d 	stclvs	6, cr6, [pc], #-180	; 3100 <Code_735+0x34>
    31b0:	6c626164 	stfvse	f6, [r2], #-400	; 0xfffffe70
    31b4:	3f040065 	svccc	0x00040065

000031b6 <Code_756>:
    31b6:	3f04      	subs	r7, #4
    31b8:	603e      	str	r6, [r7, #0]
    31ba:	2642      	movs	r6, #66	; 0x42
    31bc:	e0a8      	b.n	3310 <Code_785>
    31be:	46c0      	nop			; (mov r8, r8)

000031c0 <Dictionary_759>:
    31c0:	000031dc 	ldrdeq	r3, [r0], -ip
    31c4:	330a0010 	movwcc	r0, #40976	; 0xa010
    31c8:	6c6f662d 	stclvs	6, cr6, [pc], #-180	; 311c <Code_739+0x2>
    31cc:	6c626164 	stfvse	f6, [r2], #-400	; 0xfffffe70
    31d0:	3f040065 	svccc	0x00040065

000031d2 <Code_759>:
    31d2:	3f04      	subs	r7, #4
    31d4:	603e      	str	r6, [r7, #0]
    31d6:	2643      	movs	r6, #67	; 0x43
    31d8:	e09a      	b.n	3310 <Code_785>
    31da:	46c0      	nop			; (mov r8, r8)

000031dc <Dictionary_762>:
    31dc:	000031f8 	strdeq	r3, [r0], -r8
    31e0:	340a0010 	strcc	r0, [sl], #-16
    31e4:	6c6f662d 	stclvs	6, cr6, [pc], #-180	; 3138 <Dictionary_744>
    31e8:	6c626164 	stfvse	f6, [r2], #-400	; 0xfffffe70
    31ec:	3f040065 	svccc	0x00040065

000031ee <Code_762>:
    31ee:	3f04      	subs	r7, #4
    31f0:	603e      	str	r6, [r7, #0]
    31f2:	2644      	movs	r6, #68	; 0x44
    31f4:	e08c      	b.n	3310 <Code_785>
    31f6:	46c0      	nop			; (mov r8, r8)

000031f8 <Dictionary_765>:
    31f8:	00003214 	andeq	r3, r0, r4, lsl r2
    31fc:	350a0010 	strcc	r0, [sl, #-16]
    3200:	6c6f662d 	stclvs	6, cr6, [pc], #-180	; 3154 <Dictionary_747+0x4>
    3204:	6c626164 	stfvse	f6, [r2], #-400	; 0xfffffe70
    3208:	3f040065 	svccc	0x00040065

0000320a <Code_765>:
    320a:	3f04      	subs	r7, #4
    320c:	603e      	str	r6, [r7, #0]
    320e:	2645      	movs	r6, #69	; 0x45
    3210:	e07e      	b.n	3310 <Code_785>
    3212:	46c0      	nop			; (mov r8, r8)

00003214 <Dictionary_768>:
    3214:	00003230 	andeq	r3, r0, r0, lsr r2
    3218:	360a0010 			; <UNDEFINED> instruction: 0x360a0010
    321c:	6c6f662d 	stclvs	6, cr6, [pc], #-180	; 3170 <Dictionary_750+0x4>
    3220:	6c626164 	stfvse	f6, [r2], #-400	; 0xfffffe70
    3224:	3f040065 	svccc	0x00040065

00003226 <Code_768>:
    3226:	3f04      	subs	r7, #4
    3228:	603e      	str	r6, [r7, #0]
    322a:	2646      	movs	r6, #70	; 0x46
    322c:	e070      	b.n	3310 <Code_785>
    322e:	46c0      	nop			; (mov r8, r8)

00003230 <Dictionary_771>:
    3230:	0000324c 	andeq	r3, r0, ip, asr #4
    3234:	370a0010 	smladcc	sl, r0, r0, r0
    3238:	6c6f662d 	stclvs	6, cr6, [pc], #-180	; 318c <Dictionary_753+0x4>
    323c:	6c626164 	stfvse	f6, [r2], #-400	; 0xfffffe70
    3240:	3f040065 	svccc	0x00040065

00003242 <Code_771>:
    3242:	3f04      	subs	r7, #4
    3244:	603e      	str	r6, [r7, #0]
    3246:	2647      	movs	r6, #71	; 0x47
    3248:	e062      	b.n	3310 <Code_785>
    324a:	46c0      	nop			; (mov r8, r8)

0000324c <Dictionary_774>:
    324c:	0000327c 	andeq	r3, r0, ip, ror r2
    3250:	63080000 	movwvs	r0, #32768	; 0x8000
    3254:	74736e6f 	ldrbtvc	r6, [r3], #-3695	; 0xe6f
    3258:	00746e61 	rsbseq	r6, r4, r1, ror #28

0000325c <Code_774>:
    325c:	b500      	push	{lr}
    325e:	f000 f9bf 	bl	35e0 <Code_824>
    3262:	f7ff fde3 	bl	2e2c <Code_683>
    3266:	3f04      	subs	r7, #4
    3268:	603e      	str	r6, [r7, #0]
    326a:	4e3a      	ldr	r6, [pc, #232]	; (3354 <setflags_ram+0x2c>)
    326c:	f000 f8b3 	bl	33d6 <Code_793>
    3270:	f7ff ff85 	bl	317e <Code_750>
    3274:	f000 f81b 	bl	32ae <Code_779>
    3278:	bd00      	pop	{pc}
    327a:	46c0      	nop			; (mov r8, r8)

0000327c <Dictionary_777>:
    327c:	000032a0 	andeq	r3, r0, r0, lsr #5
    3280:	32090000 	andcc	r0, r9, #0
    3284:	736e6f63 	cmnvc	lr, #396	; 0x18c
    3288:	746e6174 	strbtvc	r6, [lr], #-372	; 0x174

0000328c <Code_777>:
    328c:	b500      	push	{lr}
    328e:	f000 f9a7 	bl	35e0 <Code_824>
    3292:	6839      	ldr	r1, [r7, #0]
    3294:	603e      	str	r6, [r7, #0]
    3296:	460e      	mov	r6, r1
    3298:	f7ff fdc8 	bl	2e2c <Code_683>
    329c:	e7e1      	b.n	3262 <Code_774+0x6>
    329e:	46c0      	nop			; (mov r8, r8)

000032a0 <Dictionary_779>:
    32a0:	00003300 	andeq	r3, r0, r0, lsl #6
    32a4:	73060000 	movwvc	r0, #24576	; 0x6000
    32a8:	6764756d 	strbvs	r7, [r4, -sp, ror #10]!
    32ac:	b5000065 	strlt	r0, [r0, #-101]	; 0x65

000032ae <Code_779>:
    32ae:	b500      	push	{lr}
    32b0:	482c      	ldr	r0, [pc, #176]	; (3364 <setflags_ram+0x3c>)
    32b2:	6801      	ldr	r1, [r0, #0]
    32b4:	4a2b      	ldr	r2, [pc, #172]	; (3364 <setflags_ram+0x3c>)
    32b6:	4291      	cmp	r1, r2
    32b8:	d21c      	bcs.n	32f4 <smudge_ram>
    32ba:	3902      	subs	r1, #2
    32bc:	880a      	ldrh	r2, [r1, #0]
    32be:	4b2a      	ldr	r3, [pc, #168]	; (3368 <setflags_ram+0x40>)
    32c0:	429a      	cmp	r2, r3
    32c2:	d104      	bne.n	32ce <Code_779+0x20>
    32c4:	3f04      	subs	r7, #4
    32c6:	603e      	str	r6, [r7, #0]
    32c8:	4e28      	ldr	r6, [pc, #160]	; (336c <setflags_ram+0x44>)
    32ca:	f000 f884 	bl	33d6 <Code_793>
    32ce:	f000 f870 	bl	33b2 <Code_790>
    32d2:	4827      	ldr	r0, [pc, #156]	; (3370 <setflags_ram+0x48>)
    32d4:	6800      	ldr	r0, [r0, #0]
    32d6:	3f04      	subs	r7, #4
    32d8:	603e      	str	r6, [r7, #0]
    32da:	0006      	movs	r6, r0
    32dc:	4925      	ldr	r1, [pc, #148]	; (3374 <setflags_ram+0x4c>)
    32de:	6809      	ldr	r1, [r1, #0]
    32e0:	3104      	adds	r1, #4
    32e2:	4a20      	ldr	r2, [pc, #128]	; (3364 <setflags_ram+0x3c>)
    32e4:	6813      	ldr	r3, [r2, #0]
    32e6:	6011      	str	r1, [r2, #0]
    32e8:	f000 f875 	bl	33d6 <Code_793>
    32ec:	6013      	str	r3, [r2, #0]
    32ee:	f7fe feb9 	bl	2064 <sammeltabelleleerprobe>
    32f2:	bd00      	pop	{pc}

000032f4 <smudge_ram>:
    32f4:	f000 f85d 	bl	33b2 <Code_790>
    32f8:	3f04      	subs	r7, #4
    32fa:	603e      	str	r6, [r7, #0]
    32fc:	2600      	movs	r6, #0
    32fe:	e008      	b.n	3312 <setflags_intern>

00003300 <Dictionary_785>:
    3300:	00003378 	andeq	r3, r0, r8, ror r3
    3304:	73080000 	movwvc	r0, #32768	; 0x8000
    3308:	6c667465 	cfstrdvs	mvd7, [r6], #-404	; 0xfffffe6c
    330c:	00736761 	rsbseq	r6, r3, r1, ror #14

00003310 <Code_785>:
    3310:	b500      	push	{lr}

00003312 <setflags_intern>:
    3312:	4814      	ldr	r0, [pc, #80]	; (3364 <setflags_ram+0x3c>)
    3314:	6801      	ldr	r1, [r0, #0]
    3316:	4a13      	ldr	r2, [pc, #76]	; (3364 <setflags_ram+0x3c>)
    3318:	4291      	cmp	r1, r2
    331a:	d205      	bcs.n	3328 <setflags_ram>
    331c:	4814      	ldr	r0, [pc, #80]	; (3370 <setflags_ram+0x48>)
    331e:	6801      	ldr	r1, [r0, #0]
    3320:	4331      	orrs	r1, r6
    3322:	6001      	str	r1, [r0, #0]
    3324:	cf40      	ldmia	r7!, {r6}
    3326:	bd00      	pop	{pc}

00003328 <setflags_ram>:
    3328:	0032      	movs	r2, r6
    332a:	cf40      	ldmia	r7!, {r6}
    332c:	4811      	ldr	r0, [pc, #68]	; (3374 <setflags_ram+0x4c>)
    332e:	6800      	ldr	r0, [r0, #0]
    3330:	3004      	adds	r0, #4
    3332:	8801      	ldrh	r1, [r0, #0]
    3334:	4b0c      	ldr	r3, [pc, #48]	; (3368 <setflags_ram+0x40>)
    3336:	4299      	cmp	r1, r3
    3338:	d101      	bne.n	333e <setflags_ram+0x16>
    333a:	0011      	movs	r1, r2
    333c:	e000      	b.n	3340 <setflags_ram+0x18>
    333e:	4311      	orrs	r1, r2
    3340:	8001      	strh	r1, [r0, #0]
    3342:	bd00      	pop	{pc}
    3344:	00002fe6 	andeq	r2, r0, r6, ror #31
    3348:	00002db8 			; <UNDEFINED> instruction: 0x00002db8
    334c:	0000b500 	andeq	fp, r0, r0, lsl #10
    3350:	0000bd00 	andeq	fp, r0, r0, lsl #26
    3354:	00004770 	andeq	r4, r0, r0, ror r7
    3358:	1ffff014 	svcne	0x00fff014
    335c:	20002fd8 	ldrdcs	r2, [r0], -r8
    3360:	1ffff010 	svcne	0x00fff010
    3364:	1ffff000 	svcne	0x00fff000
    3368:	0000ffff 	strdeq	pc, [r0], -pc	; <UNPREDICTABLE>
    336c:	00000000 	andeq	r0, r0, r0
    3370:	1ffff020 	svcne	0x00fff020
    3374:	1ffff004 	svcne	0x00fff004

00003378 <Dictionary_788>:
    3378:	00003388 	andeq	r3, r0, r8, lsl #7
    337c:	61050000 	mrsvs	r0, (UNDEF: 5)
    3380:	6e67696c 	cdpvs	9, 6, cr6, cr7, cr12, {3}

00003384 <Code_788>:
    3384:	e015      	b.n	33b2 <Code_790>
    3386:	46c0      	nop			; (mov r8, r8)

00003388 <Dictionary_789>:
    3388:	000033a4 	andeq	r3, r0, r4, lsr #7
    338c:	61070041 	tstvs	r7, r1, asr #32
    3390:	6e67696c 	cdpvs	9, 6, cr6, cr7, cr12, {3}
    3394:	20016465 	andcs	r6, r1, r5, ror #8

00003396 <Code_789>:
    3396:	2001      	movs	r0, #1
    3398:	4030      	ands	r0, r6
    339a:	1836      	adds	r6, r6, r0
    339c:	2002      	movs	r0, #2
    339e:	4030      	ands	r0, r6
    33a0:	1836      	adds	r6, r6, r0
    33a2:	4770      	bx	lr

000033a4 <Dictionary_790>:
    33a4:	000033cc 	andeq	r3, r0, ip, asr #7
    33a8:	61070000 	mrsvs	r0, (UNDEF: 7)
    33ac:	6e67696c 	cdpvs	9, 6, cr6, cr7, cr12, {3}
    33b0:	b5002c34 	strlt	r2, [r0, #-3124]	; 0xc34

000033b2 <Code_790>:
    33b2:	b500      	push	{lr}
    33b4:	4880      	ldr	r0, [pc, #512]	; (35b8 <Zweitpointertausch+0x4e>)
    33b6:	6801      	ldr	r1, [r0, #0]
    33b8:	2002      	movs	r0, #2
    33ba:	4001      	ands	r1, r0
    33bc:	d004      	beq.n	33c8 <Code_790+0x16>
    33be:	3f04      	subs	r7, #4
    33c0:	603e      	str	r6, [r7, #0]
    33c2:	2600      	movs	r6, #0
    33c4:	f000 f807 	bl	33d6 <Code_793>
    33c8:	bd00      	pop	{pc}
    33ca:	46c0      	nop			; (mov r8, r8)

000033cc <Dictionary_793>:
    33cc:	00003404 	andeq	r3, r0, r4, lsl #8
    33d0:	68020000 	stmdavs	r2, {}	; <UNPREDICTABLE>
    33d4:	b50f002c 	strlt	r0, [pc, #-44]	; 33b0 <Dictionary_790+0xc>

000033d6 <Code_793>:
    33d6:	b50f      	push	{r0, r1, r2, r3, lr}
    33d8:	b2b6      	uxth	r6, r6
    33da:	4877      	ldr	r0, [pc, #476]	; (35b8 <Zweitpointertausch+0x4e>)
    33dc:	6801      	ldr	r1, [r0, #0]
    33de:	4a76      	ldr	r2, [pc, #472]	; (35b8 <Zweitpointertausch+0x4e>)
    33e0:	4291      	cmp	r1, r2
    33e2:	d205      	bcs.n	33f0 <hkomma_ram>
    33e4:	3f04      	subs	r7, #4
    33e6:	603e      	str	r6, [r7, #0]
    33e8:	000e      	movs	r6, r1
    33ea:	f7fe fe5e 	bl	20aa <Code_422>
    33ee:	e002      	b.n	33f6 <hkomma_fertig>

000033f0 <hkomma_ram>:
    33f0:	0032      	movs	r2, r6
    33f2:	cf40      	ldmia	r7!, {r6}
    33f4:	800a      	strh	r2, [r1, #0]

000033f6 <hkomma_fertig>:
    33f6:	3f04      	subs	r7, #4
    33f8:	603e      	str	r6, [r7, #0]
    33fa:	2602      	movs	r6, #2
    33fc:	f000 f858 	bl	34b0 <Code_813>
    3400:	bd0f      	pop	{r0, r1, r2, r3, pc}
    3402:	46c0      	nop			; (mov r8, r8)

00003404 <Dictionary_799>:
    3404:	00003420 	andeq	r3, r0, r0, lsr #8
    3408:	2c010000 	stccs	0, cr0, [r1], {-0}

0000340c <Code_799>:
    340c:	b500      	push	{lr}
    340e:	3f04      	subs	r7, #4
    3410:	603e      	str	r6, [r7, #0]
    3412:	f7ff ffe0 	bl	33d6 <Code_793>
    3416:	0c36      	lsrs	r6, r6, #16
    3418:	f7ff ffdd 	bl	33d6 <Code_793>
    341c:	bd00      	pop	{pc}
    341e:	46c0      	nop			; (mov r8, r8)

00003420 <Dictionary_802>:
    3420:	0000343c 	andeq	r3, r0, ip, lsr r4
    3424:	3e030000 	cdpcc	0, 0, cr0, cr3, cr0, {0}
    3428:	b5002c3c 	strlt	r2, [r0, #-3132]	; 0xc3c

0000342a <Code_802>:
    342a:	b500      	push	{lr}
    342c:	3f04      	subs	r7, #4
    342e:	603e      	str	r6, [r7, #0]
    3430:	0c36      	lsrs	r6, r6, #16
    3432:	f7ff ffd0 	bl	33d6 <Code_793>
    3436:	f7ff ffce 	bl	33d6 <Code_793>
    343a:	bd00      	pop	{pc}

0000343c <Dictionary_805>:
    343c:	000034a4 	andeq	r3, r0, r4, lsr #9
    3440:	73070000 	movwvc	r0, #28672	; 0x7000
    3444:	6e697274 	mcrvs	2, 3, r7, cr9, cr4, {3}
    3448:	b5072c67 	strlt	r2, [r7, #-3175]	; 0xc67

0000344a <Code_805>:
    344a:	b507      	push	{r0, r1, r2, lr}
    344c:	21ff      	movs	r1, #255	; 0xff
    344e:	4031      	ands	r1, r6
    3450:	cf40      	ldmia	r7!, {r6}
    3452:	0030      	movs	r0, r6
    3454:	cf40      	ldmia	r7!, {r6}
    3456:	2900      	cmp	r1, #0
    3458:	d105      	bne.n	3466 <Code_805+0x1c>
    345a:	3f04      	subs	r7, #4
    345c:	603e      	str	r6, [r7, #0]
    345e:	2600      	movs	r6, #0
    3460:	f7ff ffb9 	bl	33d6 <Code_793>
    3464:	bd07      	pop	{r0, r1, r2, pc}
    3466:	3f04      	subs	r7, #4
    3468:	603e      	str	r6, [r7, #0]
    346a:	7806      	ldrb	r6, [r0, #0]
    346c:	0236      	lsls	r6, r6, #8
    346e:	430e      	orrs	r6, r1
    3470:	f7ff ffb1 	bl	33d6 <Code_793>
    3474:	3001      	adds	r0, #1
    3476:	3901      	subs	r1, #1
    3478:	2902      	cmp	r1, #2
    347a:	d30a      	bcc.n	3492 <Code_805+0x48>
    347c:	3f04      	subs	r7, #4
    347e:	603e      	str	r6, [r7, #0]
    3480:	7846      	ldrb	r6, [r0, #1]
    3482:	0236      	lsls	r6, r6, #8
    3484:	7802      	ldrb	r2, [r0, #0]
    3486:	4316      	orrs	r6, r2
    3488:	f7ff ffa5 	bl	33d6 <Code_793>
    348c:	3002      	adds	r0, #2
    348e:	3902      	subs	r1, #2
    3490:	e7f2      	b.n	3478 <Code_805+0x2e>
    3492:	2900      	cmp	r1, #0
    3494:	d100      	bne.n	3498 <Code_805+0x4e>
    3496:	bd07      	pop	{r0, r1, r2, pc}
    3498:	3f04      	subs	r7, #4
    349a:	603e      	str	r6, [r7, #0]
    349c:	7806      	ldrb	r6, [r0, #0]
    349e:	f7ff ff9a 	bl	33d6 <Code_793>
    34a2:	bd07      	pop	{r0, r1, r2, pc}

000034a4 <Dictionary_813>:
    34a4:	00003500 	andeq	r3, r0, r0, lsl #10
    34a8:	61050000 	mrsvs	r0, (UNDEF: 5)
    34ac:	746f6c6c 	strbtvc	r6, [pc], #-3180	; 34b4 <Code_813+0x4>

000034b0 <Code_813>:
    34b0:	4841      	ldr	r0, [pc, #260]	; (35b8 <Zweitpointertausch+0x4e>)
    34b2:	6801      	ldr	r1, [r0, #0]
    34b4:	4a40      	ldr	r2, [pc, #256]	; (35b8 <Zweitpointertausch+0x4e>)
    34b6:	4291      	cmp	r1, r2
    34b8:	d20f      	bcs.n	34da <allot_ram>
    34ba:	0032      	movs	r2, r6
    34bc:	cf40      	ldmia	r7!, {r6}
    34be:	1889      	adds	r1, r1, r2
    34c0:	4a3e      	ldr	r2, [pc, #248]	; (35bc <Zweitpointertausch+0x52>)
    34c2:	4291      	cmp	r1, r2
    34c4:	d319      	bcc.n	34fa <allot_ok>
    34c6:	f7ff fa9d 	bl	2a04 <dotgaensefuesschen>
    34ca:	616c460b 	cmnvs	ip, fp, lsl #12
    34ce:	66206873 			; <UNDEFINED> instruction: 0x66206873
    34d2:	0a6c6c75 	beq	1b1e6ae <BIT24+0xb1e6ae>
    34d6:	f001 f953 	bl	4780 <Code_1178>

000034da <allot_ram>:
    34da:	0032      	movs	r2, r6
    34dc:	cf40      	ldmia	r7!, {r6}
    34de:	1889      	adds	r1, r1, r2
    34e0:	4a37      	ldr	r2, [pc, #220]	; (35c0 <Zweitpointertausch+0x56>)
    34e2:	6812      	ldr	r2, [r2, #0]
    34e4:	4291      	cmp	r1, r2
    34e6:	d308      	bcc.n	34fa <allot_ok>
    34e8:	f7ff fa8c 	bl	2a04 <dotgaensefuesschen>
    34ec:	6d615209 	sfmvs	f5, 2, [r1, #-36]!	; 0xffffffdc
    34f0:	6c756620 	ldclvs	6, cr6, [r5], #-128	; 0xffffff80
    34f4:	f0010a6c 			; <UNDEFINED> instruction: 0xf0010a6c
    34f8:	f943 6001 	vst4.8	{d22-d25}, [r3], r1

000034fa <allot_ok>:
    34fa:	6001      	str	r1, [r0, #0]
    34fc:	4770      	bx	lr
    34fe:	46c0      	nop			; (mov r8, r8)

00003500 <Dictionary_818>:
    3500:	00003528 	andeq	r3, r0, r8, lsr #10
    3504:	630d0000 	movwvs	r0, #53248	; 0xd000
    3508:	69706d6f 	ldmdbvs	r0!, {r0, r1, r2, r3, r5, r6, r8, sl, fp, sp, lr}^
    350c:	6f74656c 	svcvs	0x0074656c
    3510:	3f6d6172 	svccc	0x006d6172

00003514 <Code_818>:
    3514:	3f04      	subs	r7, #4
    3516:	603e      	str	r6, [r7, #0]
    3518:	2600      	movs	r6, #0
    351a:	4827      	ldr	r0, [pc, #156]	; (35b8 <Zweitpointertausch+0x4e>)
    351c:	6800      	ldr	r0, [r0, #0]
    351e:	4926      	ldr	r1, [pc, #152]	; (35b8 <Zweitpointertausch+0x4e>)
    3520:	4288      	cmp	r0, r1
    3522:	d348      	bcc.n	35b6 <Zweitpointertausch+0x4c>
    3524:	43f6      	mvns	r6, r6
    3526:	4770      	bx	lr

00003528 <Dictionary_821>:
    3528:	00003548 	andeq	r3, r0, r8, asr #10
    352c:	630c0000 	movwvs	r0, #49152	; 0xc000
    3530:	69706d6f 	ldmdbvs	r0!, {r0, r1, r2, r3, r5, r6, r8, sl, fp, sp, lr}^
    3534:	6f74656c 	svcvs	0x0074656c
    3538:	006d6172 	rsbeq	r6, sp, r2, ror r1

0000353c <Code_821>:
    353c:	481e      	ldr	r0, [pc, #120]	; (35b8 <Zweitpointertausch+0x4e>)
    353e:	6800      	ldr	r0, [r0, #0]
    3540:	491d      	ldr	r1, [pc, #116]	; (35b8 <Zweitpointertausch+0x4e>)
    3542:	4288      	cmp	r0, r1
    3544:	d311      	bcc.n	356a <Zweitpointertausch>
    3546:	4770      	bx	lr

00003548 <Dictionary_822>:
    3548:	000035d0 	ldrdeq	r3, [r0], -r0
    354c:	630e0000 	movwvs	r0, #57344	; 0xe000
    3550:	69706d6f 	ldmdbvs	r0!, {r0, r1, r2, r3, r5, r6, r8, sl, fp, sp, lr}^
    3554:	6f74656c 	svcvs	0x0074656c
    3558:	73616c66 	cmnvc	r1, #26112	; 0x6600
    355c:	48160068 	ldmdami	r6, {r3, r5, r6}

0000355e <Code_822>:
    355e:	4816      	ldr	r0, [pc, #88]	; (35b8 <Zweitpointertausch+0x4e>)
    3560:	6800      	ldr	r0, [r0, #0]
    3562:	4915      	ldr	r1, [pc, #84]	; (35b8 <Zweitpointertausch+0x4e>)
    3564:	4288      	cmp	r0, r1
    3566:	d200      	bcs.n	356a <Zweitpointertausch>
    3568:	4770      	bx	lr

0000356a <Zweitpointertausch>:
    356a:	4816      	ldr	r0, [pc, #88]	; (35c4 <Zweitpointertausch+0x5a>)
    356c:	4916      	ldr	r1, [pc, #88]	; (35c8 <Zweitpointertausch+0x5e>)
    356e:	6802      	ldr	r2, [r0, #0]
    3570:	680b      	ldr	r3, [r1, #0]
    3572:	600a      	str	r2, [r1, #0]
    3574:	6003      	str	r3, [r0, #0]
    3576:	4810      	ldr	r0, [pc, #64]	; (35b8 <Zweitpointertausch+0x4e>)
    3578:	4914      	ldr	r1, [pc, #80]	; (35cc <Zweitpointertausch+0x62>)
    357a:	6802      	ldr	r2, [r0, #0]
    357c:	680b      	ldr	r3, [r1, #0]
    357e:	600a      	str	r2, [r1, #0]
    3580:	6003      	str	r3, [r0, #0]
    3582:	480f      	ldr	r0, [pc, #60]	; (35c0 <Zweitpointertausch+0x56>)
    3584:	6800      	ldr	r0, [r0, #0]
    3586:	4283      	cmp	r3, r0
    3588:	d315      	bcc.n	35b6 <Zweitpointertausch+0x4c>
    358a:	b500      	push	{lr}
    358c:	f7ff fa3a 	bl	2a04 <dotgaensefuesschen>
    3590:	61562023 	cmpvs	r6, r3, lsr #32
    3594:	62616972 	rsbvs	r6, r1, #1867776	; 0x1c8000
    3598:	2073656c 	rsbscs	r6, r3, ip, ror #10
    359c:	6c6c6f63 	stclvs	15, cr6, [ip], #-396	; 0xfffffe74
    35a0:	20656469 	rsbcs	r6, r5, r9, ror #8
    35a4:	68746977 	ldmdavs	r4!, {r0, r1, r2, r4, r5, r6, r8, fp, sp, lr}^
    35a8:	63696420 	cmnvs	r9, #536870912	; 0x20000000
    35ac:	6e6f6974 	mcrvs	9, 3, r6, cr15, cr4, {3}
    35b0:	0a797261 	beq	1e5ff3c <BIT24+0xe5ff3c>
    35b4:	bd00      	pop	{pc}
    35b6:	4770      	bx	lr
    35b8:	1ffff000 	svcne	0x00fff000
    35bc:	00020000 	andeq	r0, r2, r0
    35c0:	1ffff024 	svcne	0x00fff024
    35c4:	1ffff004 	svcne	0x00fff004
    35c8:	1ffff01c 	svcne	0x00fff01c
    35cc:	1ffff018 	svcne	0x00fff018

000035d0 <Dictionary_824>:
    35d0:	000036bc 			; <UNDEFINED> instruction: 0x000036bc
    35d4:	28080000 	stmdacs	r8, {}	; <UNPREDICTABLE>
    35d8:	61657263 	cmnvs	r5, r3, ror #4
    35dc:	00296574 	eoreq	r6, r9, r4, ror r5

000035e0 <Code_824>:
    35e0:	b500      	push	{lr}
    35e2:	f000 fdef 	bl	41c4 <Code_1081>
    35e6:	2e00      	cmp	r6, #0
    35e8:	d10e      	bne.n	3608 <Code_824+0x28>
    35ea:	f7ff fa0b 	bl	2a04 <dotgaensefuesschen>
    35ee:	72432015 	subvc	r2, r3, #21
    35f2:	65746165 	ldrbvs	r6, [r4, #-357]!	; 0x165
    35f6:	65656e20 	strbvs	r6, [r5, #-3616]!	; 0xe20
    35fa:	6e207364 	cdpvs	3, 2, cr7, cr0, cr4, {3}
    35fe:	20656d61 	rsbcs	r6, r5, r1, ror #26
    3602:	f0010a21 			; <UNDEFINED> instruction: 0xf0010a21
    3606:	f8bc 6838 	ldrh.w	r6, [ip, #2104]	; 0x838
    360a:	3f04      	subs	r7, #4
    360c:	603e      	str	r6, [r7, #0]
    360e:	3f04      	subs	r7, #4
    3610:	6038      	str	r0, [r7, #0]
    3612:	f000 f9a3 	bl	395c <Code_887>
    3616:	cf40      	ldmia	r7!, {r6}
    3618:	2e00      	cmp	r6, #0
    361a:	cf40      	ldmia	r7!, {r6}
    361c:	d011      	beq.n	3642 <Code_824+0x62>
    361e:	6838      	ldr	r0, [r7, #0]
    3620:	3f04      	subs	r7, #4
    3622:	603e      	str	r6, [r7, #0]
    3624:	3f04      	subs	r7, #4
    3626:	6038      	str	r0, [r7, #0]
    3628:	f7ff f9ec 	bl	2a04 <dotgaensefuesschen>
    362c:	64655209 	strbtvs	r5, [r5], #-521	; 0x209
    3630:	6e696665 	cdpvs	6, 6, cr6, cr9, cr5, {3}
    3634:	f7ff2065 			; <UNDEFINED> instruction: 0xf7ff2065
    3638:	fa45 f7ff 			; <UNDEFINED> instruction: 0xfa45f7ff
    363c:	f9e3 2e02 	vld3.8	{d18[]-d20[]}, [r3], r2
    3640:	f7ff000a 			; <UNDEFINED> instruction: 0xf7ff000a
    3644:	feb6 f000 	cdp2	0, 11, cr15, cr6, cr0, {0}
    3648:	fa1d 488d 			; <UNDEFINED> instruction: 0xfa1d488d
    364c:	6800      	ldr	r0, [r0, #0]
    364e:	498c      	ldr	r1, [pc, #560]	; (3880 <rambuffer_ram+0x44>)
    3650:	4288      	cmp	r0, r1
    3652:	d21c      	bcs.n	368e <create_ram>
    3654:	488b      	ldr	r0, [pc, #556]	; (3884 <rambuffer_ram+0x48>)
    3656:	2100      	movs	r1, #0
    3658:	6001      	str	r1, [r0, #0]
    365a:	3f04      	subs	r7, #4
    365c:	603e      	str	r6, [r7, #0]
    365e:	2606      	movs	r6, #6
    3660:	f7ff ff26 	bl	34b0 <Code_813>
    3664:	f7fd fd4c 	bl	1100 <Code_198>
    3668:	f7ff feef 	bl	344a <Code_805>
    366c:	4886      	ldr	r0, [pc, #536]	; (3888 <rambuffer_ram+0x4c>)
    366e:	6801      	ldr	r1, [r0, #0]
    3670:	680a      	ldr	r2, [r1, #0]
    3672:	4b86      	ldr	r3, [pc, #536]	; (388c <rambuffer_ram+0x50>)
    3674:	429a      	cmp	r2, r3
    3676:	d107      	bne.n	3688 <Code_824+0xa8>
    3678:	4a81      	ldr	r2, [pc, #516]	; (3880 <rambuffer_ram+0x44>)
    367a:	6813      	ldr	r3, [r2, #0]
    367c:	6011      	str	r1, [r2, #0]
    367e:	3f04      	subs	r7, #4
    3680:	603e      	str	r6, [r7, #0]
    3682:	f7ff fec3 	bl	340c <Code_799>
    3686:	6013      	str	r3, [r2, #0]
    3688:	6006      	str	r6, [r0, #0]
    368a:	cf40      	ldmia	r7!, {r6}
    368c:	e010      	b.n	36b0 <create_ende>

0000368e <create_ram>:
    368e:	487e      	ldr	r0, [pc, #504]	; (3888 <rambuffer_ram+0x4c>)
    3690:	3f04      	subs	r7, #4
    3692:	603e      	str	r6, [r7, #0]
    3694:	6806      	ldr	r6, [r0, #0]
    3696:	f7ff feb9 	bl	340c <Code_799>
    369a:	3f04      	subs	r7, #4
    369c:	603e      	str	r6, [r7, #0]
    369e:	4e7c      	ldr	r6, [pc, #496]	; (3890 <rambuffer_ram+0x54>)
    36a0:	f7ff fe99 	bl	33d6 <Code_793>
    36a4:	4878      	ldr	r0, [pc, #480]	; (3888 <rambuffer_ram+0x4c>)
    36a6:	0031      	movs	r1, r6
    36a8:	cf40      	ldmia	r7!, {r6}
    36aa:	6001      	str	r1, [r0, #0]
    36ac:	f7ff fecd 	bl	344a <Code_805>

000036b0 <create_ende>:
    36b0:	4873      	ldr	r0, [pc, #460]	; (3880 <rambuffer_ram+0x44>)
    36b2:	6801      	ldr	r1, [r0, #0]
    36b4:	4877      	ldr	r0, [pc, #476]	; (3894 <rambuffer_ram+0x58>)
    36b6:	6001      	str	r1, [r0, #0]
    36b8:	bd00      	pop	{pc}
    36ba:	46c0      	nop			; (mov r8, r8)

000036bc <Dictionary_842>:
    36bc:	000036d4 	ldrdeq	r3, [r0], -r4
    36c0:	76080000 	strvc	r0, [r8], -r0
    36c4:	61697261 	cmnvs	r9, r1, ror #4
    36c8:	00656c62 	rsbeq	r6, r5, r2, ror #24

000036cc <Code_842>:
    36cc:	3f04      	subs	r7, #4
    36ce:	603e      	str	r6, [r7, #0]
    36d0:	2601      	movs	r6, #1
    36d2:	e013      	b.n	36fc <Code_848>

000036d4 <Dictionary_845>:
    36d4:	000036ec 	andeq	r3, r0, ip, ror #13
    36d8:	32090000 	andcc	r0, r9, #0
    36dc:	69726176 	ldmdbvs	r2!, {r1, r2, r4, r5, r6, r8, sp, lr}^
    36e0:	656c6261 	strbvs	r6, [ip, #-609]!	; 0x261

000036e4 <Code_845>:
    36e4:	3f04      	subs	r7, #4
    36e6:	603e      	str	r6, [r7, #0]
    36e8:	2602      	movs	r6, #2
    36ea:	e007      	b.n	36fc <Code_848>

000036ec <Dictionary_848>:
    36ec:	000037c4 	andeq	r3, r0, r4, asr #15
    36f0:	6e090000 	cdpvs	0, 0, cr0, cr9, cr0, {0}
    36f4:	69726176 	ldmdbvs	r2!, {r1, r2, r4, r5, r6, r8, sp, lr}^
    36f8:	656c6261 	strbvs	r6, [ip, #-609]!	; 0x261

000036fc <Code_848>:
    36fc:	b500      	push	{lr}
    36fe:	f7ff ff6f 	bl	35e0 <Code_824>
    3702:	485f      	ldr	r0, [pc, #380]	; (3880 <rambuffer_ram+0x44>)
    3704:	6801      	ldr	r1, [r0, #0]
    3706:	4a5e      	ldr	r2, [pc, #376]	; (3880 <rambuffer_ram+0x44>)
    3708:	4291      	cmp	r1, r2
    370a:	d233      	bcs.n	3774 <variable_ram>
    370c:	200f      	movs	r0, #15
    370e:	4006      	ands	r6, r0
    3710:	00b2      	lsls	r2, r6, #2
    3712:	4861      	ldr	r0, [pc, #388]	; (3898 <rambuffer_ram+0x5c>)
    3714:	6801      	ldr	r1, [r0, #0]
    3716:	1a89      	subs	r1, r1, r2
    3718:	4a60      	ldr	r2, [pc, #384]	; (389c <rambuffer_ram+0x60>)
    371a:	4291      	cmp	r1, r2
    371c:	d20b      	bcs.n	3736 <Code_848+0x3a>
    371e:	f7ff f971 	bl	2a04 <dotgaensefuesschen>
    3722:	746f4e0f 	strbtvc	r4, [pc], #-3599	; 372a <Code_848+0x2e>
    3726:	6f6e6520 	svcvs	0x006e6520
    372a:	20686775 	rsbcs	r6, r8, r5, ror r7
    372e:	0a4d4152 	beq	1353c7e <BIT24+0x353c7e>
    3732:	f001 f825 	bl	4780 <Code_1178>
    3736:	6001      	str	r1, [r0, #0]
    3738:	3f04      	subs	r7, #4
    373a:	603e      	str	r6, [r7, #0]
    373c:	000e      	movs	r6, r1
    373e:	f7ff fb75 	bl	2e2c <Code_683>
    3742:	3f04      	subs	r7, #4
    3744:	603e      	str	r6, [r7, #0]
    3746:	4e56      	ldr	r6, [pc, #344]	; (38a0 <rambuffer_ram+0x64>)
    3748:	f7ff fe45 	bl	33d6 <Code_793>
    374c:	0030      	movs	r0, r6
    374e:	cf40      	ldmia	r7!, {r6}
    3750:	0002      	movs	r2, r0
    3752:	2800      	cmp	r0, #0
    3754:	d005      	beq.n	3762 <Code_848+0x66>
    3756:	600e      	str	r6, [r1, #0]
    3758:	3104      	adds	r1, #4
    375a:	f7ff fe57 	bl	340c <Code_799>
    375e:	3801      	subs	r0, #1
    3760:	d1f9      	bne.n	3756 <Code_848+0x5a>
    3762:	3f04      	subs	r7, #4
    3764:	603e      	str	r6, [r7, #0]
    3766:	2680      	movs	r6, #128	; 0x80
    3768:	4316      	orrs	r6, r2
    376a:	f7ff fdd1 	bl	3310 <Code_785>
    376e:	f7ff fd9e 	bl	32ae <Code_779>
    3772:	bd00      	pop	{pc}

00003774 <variable_ram>:
    3774:	f000 f986 	bl	3a84 <Code_909>
    3778:	2002      	movs	r0, #2
    377a:	4006      	ands	r6, r0
    377c:	cf40      	ldmia	r7!, {r6}
    377e:	d104      	bne.n	378a <variable_ram+0x16>
    3780:	3f04      	subs	r7, #4
    3782:	603e      	str	r6, [r7, #0]
    3784:	2636      	movs	r6, #54	; 0x36
    3786:	f7ff fe26 	bl	33d6 <Code_793>
    378a:	3f04      	subs	r7, #4
    378c:	603e      	str	r6, [r7, #0]
    378e:	4e45      	ldr	r6, [pc, #276]	; (38a4 <rambuffer_ram+0x68>)
    3790:	f7ff fe4b 	bl	342a <Code_802>
    3794:	3f04      	subs	r7, #4
    3796:	603e      	str	r6, [r7, #0]
    3798:	4e43      	ldr	r6, [pc, #268]	; (38a8 <rambuffer_ram+0x6c>)
    379a:	f7ff fe46 	bl	342a <Code_802>
    379e:	3f04      	subs	r7, #4
    37a0:	603e      	str	r6, [r7, #0]
    37a2:	4e3f      	ldr	r6, [pc, #252]	; (38a0 <rambuffer_ram+0x64>)
    37a4:	f7ff fe17 	bl	33d6 <Code_793>
    37a8:	0030      	movs	r0, r6
    37aa:	cf40      	ldmia	r7!, {r6}
    37ac:	2800      	cmp	r0, #0
    37ae:	d003      	beq.n	37b8 <variable_ram+0x44>
    37b0:	f7ff fe2c 	bl	340c <Code_799>
    37b4:	3801      	subs	r0, #1
    37b6:	d1fb      	bne.n	37b0 <variable_ram+0x3c>
    37b8:	f7ff fce1 	bl	317e <Code_750>
    37bc:	f7ff fd77 	bl	32ae <Code_779>
    37c0:	bd00      	pop	{pc}
    37c2:	46c0      	nop			; (mov r8, r8)

000037c4 <Dictionary_865>:
    37c4:	000038b0 			; <UNDEFINED> instruction: 0x000038b0
    37c8:	62070000 	andvs	r0, r7, #0
    37cc:	65666675 	strbvs	r6, [r6, #-1653]!	; 0x675
    37d0:	b5003a72 	strlt	r3, [r0, #-2674]	; 0xa72

000037d2 <Code_865>:
    37d2:	b500      	push	{lr}
    37d4:	f7ff ff04 	bl	35e0 <Code_824>
    37d8:	2001      	movs	r0, #1
    37da:	4030      	ands	r0, r6
    37dc:	1836      	adds	r6, r6, r0
    37de:	2002      	movs	r0, #2
    37e0:	4030      	ands	r0, r6
    37e2:	1836      	adds	r6, r6, r0
    37e4:	4826      	ldr	r0, [pc, #152]	; (3880 <rambuffer_ram+0x44>)
    37e6:	6801      	ldr	r1, [r0, #0]
    37e8:	4a25      	ldr	r2, [pc, #148]	; (3880 <rambuffer_ram+0x44>)
    37ea:	4291      	cmp	r1, r2
    37ec:	d226      	bcs.n	383c <rambuffer_ram>
    37ee:	482a      	ldr	r0, [pc, #168]	; (3898 <rambuffer_ram+0x5c>)
    37f0:	6801      	ldr	r1, [r0, #0]
    37f2:	1b89      	subs	r1, r1, r6
    37f4:	4a29      	ldr	r2, [pc, #164]	; (389c <rambuffer_ram+0x60>)
    37f6:	4291      	cmp	r1, r2
    37f8:	d20b      	bcs.n	3812 <Code_865+0x40>
    37fa:	f7ff f903 	bl	2a04 <dotgaensefuesschen>
    37fe:	746f4e0f 	strbtvc	r4, [pc], #-3599	; 3806 <Code_865+0x34>
    3802:	6f6e6520 	svcvs	0x006e6520
    3806:	20686775 	rsbcs	r6, r8, r5, ror r7
    380a:	0a4d4152 	beq	1353d5a <BIT24+0x353d5a>
    380e:	f000 ffb7 	bl	4780 <Code_1178>
    3812:	6001      	str	r1, [r0, #0]
    3814:	3f04      	subs	r7, #4
    3816:	603e      	str	r6, [r7, #0]
    3818:	000e      	movs	r6, r1
    381a:	f7ff fb07 	bl	2e2c <Code_683>
    381e:	3f04      	subs	r7, #4
    3820:	603e      	str	r6, [r7, #0]
    3822:	4e1f      	ldr	r6, [pc, #124]	; (38a0 <rambuffer_ram+0x64>)
    3824:	f7ff fdd7 	bl	33d6 <Code_793>
    3828:	f7ff fdf0 	bl	340c <Code_799>
    382c:	3f04      	subs	r7, #4
    382e:	603e      	str	r6, [r7, #0]
    3830:	4e1e      	ldr	r6, [pc, #120]	; (38ac <rambuffer_ram+0x70>)
    3832:	f7ff fd6d 	bl	3310 <Code_785>
    3836:	f7ff fd3a 	bl	32ae <Code_779>
    383a:	bd00      	pop	{pc}

0000383c <rambuffer_ram>:
    383c:	f000 f922 	bl	3a84 <Code_909>
    3840:	2002      	movs	r0, #2
    3842:	4006      	ands	r6, r0
    3844:	cf40      	ldmia	r7!, {r6}
    3846:	d104      	bne.n	3852 <rambuffer_ram+0x16>
    3848:	3f04      	subs	r7, #4
    384a:	603e      	str	r6, [r7, #0]
    384c:	2636      	movs	r6, #54	; 0x36
    384e:	f7ff fdc2 	bl	33d6 <Code_793>
    3852:	3f04      	subs	r7, #4
    3854:	603e      	str	r6, [r7, #0]
    3856:	4e13      	ldr	r6, [pc, #76]	; (38a4 <rambuffer_ram+0x68>)
    3858:	f7ff fde7 	bl	342a <Code_802>
    385c:	3f04      	subs	r7, #4
    385e:	603e      	str	r6, [r7, #0]
    3860:	4e11      	ldr	r6, [pc, #68]	; (38a8 <rambuffer_ram+0x6c>)
    3862:	f7ff fde2 	bl	342a <Code_802>
    3866:	3f04      	subs	r7, #4
    3868:	603e      	str	r6, [r7, #0]
    386a:	4e0d      	ldr	r6, [pc, #52]	; (38a0 <rambuffer_ram+0x64>)
    386c:	f7ff fdb3 	bl	33d6 <Code_793>
    3870:	f7ff fe1e 	bl	34b0 <Code_813>
    3874:	f7ff fc83 	bl	317e <Code_750>
    3878:	f7ff fd19 	bl	32ae <Code_779>
    387c:	bd00      	pop	{pc}
    387e:	f0000000 			; <UNDEFINED> instruction: 0xf0000000
    3882:	f0201fff 			; <UNDEFINED> instruction: 0xf0201fff
    3886:	f0041fff 			; <UNDEFINED> instruction: 0xf0041fff
    388a:	ffff1fff 			; <UNDEFINED> instruction: 0xffff1fff
    388e:	ffffffff 			; <UNDEFINED> instruction: 0xffffffff
    3892:	f0140000 			; <UNDEFINED> instruction: 0xf0140000
    3896:	f0241fff 			; <UNDEFINED> instruction: 0xf0241fff
    389a:	f41c1fff 			; <UNDEFINED> instruction: 0xf41c1fff
    389e:	47701fff 			; <UNDEFINED> instruction: 0x47701fff
    38a2:	603e0000 	eorsvs	r0, lr, r0
    38a6:	36023f04 	strcc	r3, [r2], -r4, lsl #30
    38aa:	0140467e 	hvceq	1134	; 0x46e
	...

000038b0 <Dictionary_880>:
    38b0:	000038e0 	andeq	r3, r0, r0, ror #17
    38b4:	640f0000 	strvs	r0, [pc], #-0	; 38bc <Dictionary_880+0xc>
    38b8:	69746369 	ldmdbvs	r4!, {r0, r3, r5, r6, r8, r9, sp, lr}^
    38bc:	72616e6f 	rsbvc	r6, r1, #1776	; 0x6f0
    38c0:	61747379 	cmnvs	r4, r9, ror r3
    38c4:	48427472 	stmdami	r2, {r1, r4, r5, r6, sl, ip, sp, lr}^

000038c6 <Code_880>:
    38c6:	4842      	ldr	r0, [pc, #264]	; (39d0 <find_not_found+0x16>)
    38c8:	6800      	ldr	r0, [r0, #0]
    38ca:	4941      	ldr	r1, [pc, #260]	; (39d0 <find_not_found+0x16>)
    38cc:	3f04      	subs	r7, #4
    38ce:	603e      	str	r6, [r7, #0]
    38d0:	4288      	cmp	r0, r1
    38d2:	d201      	bcs.n	38d8 <Code_880+0x12>
    38d4:	4e3f      	ldr	r6, [pc, #252]	; (39d4 <find_not_found+0x1a>)
    38d6:	4770      	bx	lr
    38d8:	4e3f      	ldr	r6, [pc, #252]	; (39d8 <find_not_found+0x1e>)
    38da:	6836      	ldr	r6, [r6, #0]
    38dc:	4770      	bx	lr
    38de:	46c0      	nop			; (mov r8, r8)

000038e0 <Dictionary_882>:
    38e0:	0000391c 	andeq	r3, r0, ip, lsl r9
    38e4:	640e0000 	strvs	r0, [lr], #-0
    38e8:	69746369 	ldmdbvs	r4!, {r0, r3, r5, r6, r8, r9, sp, lr}^
    38ec:	72616e6f 	rsbvc	r6, r1, #1776	; 0x6f0
    38f0:	78656e79 	stmdavc	r5!, {r0, r3, r4, r5, r6, r9, sl, fp, sp, lr}^
    38f4:	b5030074 	strlt	r0, [r3, #-116]	; 0x74

000038f6 <Code_882>:
    38f6:	b503      	push	{r0, r1, lr}
    38f8:	6831      	ldr	r1, [r6, #0]
    38fa:	4838      	ldr	r0, [pc, #224]	; (39dc <find_not_found+0x22>)
    38fc:	4281      	cmp	r1, r0
    38fe:	d007      	beq.n	3910 <Code_882+0x1a>
    3900:	7988      	ldrb	r0, [r1, #6]
    3902:	28ff      	cmp	r0, #255	; 0xff
    3904:	d004      	beq.n	3910 <Code_882+0x1a>
    3906:	000e      	movs	r6, r1
    3908:	3f04      	subs	r7, #4
    390a:	603e      	str	r6, [r7, #0]
    390c:	2600      	movs	r6, #0
    390e:	bd03      	pop	{r0, r1, pc}
    3910:	3f04      	subs	r7, #4
    3912:	603e      	str	r6, [r7, #0]
    3914:	2600      	movs	r6, #0
    3916:	43f6      	mvns	r6, r6
    3918:	bd03      	pop	{r0, r1, pc}
    391a:	46c0      	nop			; (mov r8, r8)

0000391c <Dictionary_886>:
    391c:	00003950 	andeq	r3, r0, r0, asr r9
    3920:	730a0000 	movwvc	r0, #40960	; 0xa000
    3924:	7370696b 	cmnvc	r0, #1753088	; 0x1ac000
    3928:	6e697274 	mcrvs	2, 3, r7, cr9, cr4, {3}
    392c:	78310067 	ldmdavc	r1!, {r0, r1, r2, r5, r6}

0000392e <Code_886>:
    392e:	7831      	ldrb	r1, [r6, #0]
    3930:	3101      	adds	r1, #1
    3932:	2201      	movs	r2, #1
    3934:	400a      	ands	r2, r1
    3936:	1889      	adds	r1, r1, r2
    3938:	1876      	adds	r6, r6, r1
    393a:	4770      	bx	lr

0000393c <skipstring>:
    393c:	b406      	push	{r1, r2}
    393e:	7801      	ldrb	r1, [r0, #0]
    3940:	3101      	adds	r1, #1
    3942:	2201      	movs	r2, #1
    3944:	400a      	ands	r2, r1
    3946:	1889      	adds	r1, r1, r2
    3948:	1840      	adds	r0, r0, r1
    394a:	bc06      	pop	{r1, r2}
    394c:	4770      	bx	lr
    394e:	46c0      	nop			; (mov r8, r8)

00003950 <Dictionary_887>:
    3950:	000039e4 	andeq	r3, r0, r4, ror #19
    3954:	66040000 	strvs	r0, [r4], -r0
    3958:	00646e69 	rsbeq	r6, r4, r9, ror #28

0000395c <Code_887>:
    395c:	b53f      	push	{r0, r1, r2, r3, r4, r5, lr}
    395e:	2200      	movs	r2, #0
    3960:	2300      	movs	r3, #0
    3962:	0035      	movs	r5, r6
    3964:	cf40      	ldmia	r7!, {r6}
    3966:	0034      	movs	r4, r6
    3968:	cf40      	ldmia	r7!, {r6}
    396a:	f7ff ffac 	bl	38c6 <Code_880>
    396e:	481c      	ldr	r0, [pc, #112]	; (39e0 <find_not_found+0x26>)
    3970:	88b1      	ldrh	r1, [r6, #4]
    3972:	4288      	cmp	r0, r1
    3974:	d017      	beq.n	39a6 <Code_887+0x4a>
    3976:	3f04      	subs	r7, #4
    3978:	603e      	str	r6, [r7, #0]
    397a:	3606      	adds	r6, #6
    397c:	f7ff f882 	bl	2a84 <Code_602>
    3980:	3f04      	subs	r7, #4
    3982:	603e      	str	r6, [r7, #0]
    3984:	0026      	movs	r6, r4
    3986:	3f04      	subs	r7, #4
    3988:	603e      	str	r6, [r7, #0]
    398a:	002e      	movs	r6, r5
    398c:	f7fe ffad 	bl	28ea <Code_564>
    3990:	2e00      	cmp	r6, #0
    3992:	cf40      	ldmia	r7!, {r6}
    3994:	d007      	beq.n	39a6 <Code_887+0x4a>
    3996:	1db0      	adds	r0, r6, #6
    3998:	f7ff ffd0 	bl	393c <skipstring>
    399c:	0002      	movs	r2, r0
    399e:	000b      	movs	r3, r1
    39a0:	480b      	ldr	r0, [pc, #44]	; (39d0 <find_not_found+0x16>)
    39a2:	4282      	cmp	r2, r0
    39a4:	d204      	bcs.n	39b0 <Code_887+0x54>
    39a6:	f7ff ffa6 	bl	38f6 <Code_882>
    39aa:	0030      	movs	r0, r6
    39ac:	cf40      	ldmia	r7!, {r6}
    39ae:	d0de      	beq.n	396e <Code_887+0x12>
    39b0:	0016      	movs	r6, r2
    39b2:	3f04      	subs	r7, #4
    39b4:	603e      	str	r6, [r7, #0]
    39b6:	001e      	movs	r6, r3
    39b8:	bd3f      	pop	{r0, r1, r2, r3, r4, r5, pc}

000039ba <find_not_found>:
    39ba:	b500      	push	{lr}
    39bc:	0031      	movs	r1, r6
    39be:	6838      	ldr	r0, [r7, #0]
    39c0:	f7ff ffcc 	bl	395c <Code_887>
    39c4:	683a      	ldr	r2, [r7, #0]
    39c6:	2a00      	cmp	r2, #0
    39c8:	d101      	bne.n	39ce <find_not_found+0x14>
    39ca:	f000 fe59 	bl	4680 <not_found_addr_r0_len_r1>
    39ce:	bd00      	pop	{pc}
    39d0:	1ffff000 	svcne	0x00fff000
    39d4:	00000410 	andeq	r0, r0, r0, lsl r4
    39d8:	1ffff004 	svcne	0x00fff004
    39dc:	ffffffff 			; <UNDEFINED> instruction: 0xffffffff
    39e0:	0000ffff 	strdeq	pc, [r0], -pc	; <UNPREDICTABLE>

000039e4 <Dictionary_900>:
    39e4:	00003a40 	andeq	r3, r0, r0, asr #20
    39e8:	63060000 	movwvs	r0, #24576	; 0x6000
    39ec:	706d756a 	rsbvc	r7, sp, sl, ror #10
    39f0:	0032002c 	eorseq	r0, r2, ip, lsr #32

000039f2 <Code_900>:
    39f2:	0032      	movs	r2, r6
    39f4:	cf40      	ldmia	r7!, {r6}
    39f6:	0031      	movs	r1, r6
    39f8:	cf40      	ldmia	r7!, {r6}
    39fa:	1b8b      	subs	r3, r1, r6
    39fc:	3b04      	subs	r3, #4
    39fe:	49e9      	ldr	r1, [pc, #932]	; (3da4 <Code_981+0x10>)
    3a00:	4019      	ands	r1, r3
    3a02:	2900      	cmp	r1, #0
    3a04:	d00d      	beq.n	3a22 <jump_too_far+0x16>
    3a06:	48e8      	ldr	r0, [pc, #928]	; (3da8 <Code_981+0x14>)
    3a08:	4281      	cmp	r1, r0
    3a0a:	d00a      	beq.n	3a22 <jump_too_far+0x16>

00003a0c <jump_too_far>:
    3a0c:	f7fe fffa 	bl	2a04 <dotgaensefuesschen>
    3a10:	6d754a0d 	vldmdbvs	r5!, {s9-s21}
    3a14:	6f742070 	svcvs	0x00742070
    3a18:	6166206f 	cmnvs	r6, pc, rrx
    3a1c:	f0000a72 			; <UNDEFINED> instruction: 0xf0000a72
    3a20:	feaf 105b 	mcr2	0, 5, r1, cr15, cr11, {2}
    3a24:	21ff      	movs	r1, #255	; 0xff
    3a26:	400b      	ands	r3, r1
    3a28:	4313      	orrs	r3, r2
    3a2a:	0030      	movs	r0, r6
    3a2c:	001e      	movs	r6, r3

00003a2e <sprungbefehl_einfuegen>:
    3a2e:	b500      	push	{lr}
    3a30:	4ade      	ldr	r2, [pc, #888]	; (3dac <Code_981+0x18>)
    3a32:	6813      	ldr	r3, [r2, #0]
    3a34:	6010      	str	r0, [r2, #0]
    3a36:	f7ff fcce 	bl	33d6 <Code_793>
    3a3a:	6013      	str	r3, [r2, #0]
    3a3c:	bd00      	pop	{pc}
    3a3e:	46c0      	nop			; (mov r8, r8)

00003a40 <Dictionary_904>:
    3a40:	00003a78 	andeq	r3, r0, r8, ror sl
    3a44:	6a050000 	bvs	143a4c <BIT20+0x43a4c>
    3a48:	2c706d75 	ldclcs	13, cr6, [r0], #-468	; 0xfffffe2c

00003a4c <Code_904>:
    3a4c:	0031      	movs	r1, r6
    3a4e:	cf40      	ldmia	r7!, {r6}
    3a50:	0030      	movs	r0, r6
    3a52:	cf40      	ldmia	r7!, {r6}
    3a54:	1a0b      	subs	r3, r1, r0
    3a56:	3b04      	subs	r3, #4
    3a58:	49d5      	ldr	r1, [pc, #852]	; (3db0 <Code_981+0x1c>)
    3a5a:	4019      	ands	r1, r3
    3a5c:	2900      	cmp	r1, #0
    3a5e:	d002      	beq.n	3a66 <Code_904+0x1a>
    3a60:	4ad4      	ldr	r2, [pc, #848]	; (3db4 <Code_981+0x20>)
    3a62:	4291      	cmp	r1, r2
    3a64:	d1d2      	bne.n	3a0c <jump_too_far>
    3a66:	105b      	asrs	r3, r3, #1
    3a68:	4ad3      	ldr	r2, [pc, #844]	; (3db8 <Code_981+0x24>)
    3a6a:	4013      	ands	r3, r2
    3a6c:	4ad3      	ldr	r2, [pc, #844]	; (3dbc <Code_981+0x28>)
    3a6e:	4313      	orrs	r3, r2
    3a70:	3f04      	subs	r7, #4
    3a72:	603e      	str	r6, [r7, #0]
    3a74:	001e      	movs	r6, r3
    3a76:	e7da      	b.n	3a2e <sprungbefehl_einfuegen>

00003a78 <Dictionary_909>:
    3a78:	00003a90 	muleq	r0, r0, sl
    3a7c:	68040000 	stmdavs	r4, {}	; <UNPREDICTABLE>
    3a80:	00657265 	rsbeq	r7, r5, r5, ror #4

00003a84 <Code_909>:
    3a84:	3f04      	subs	r7, #4
    3a86:	603e      	str	r6, [r7, #0]
    3a88:	4ec8      	ldr	r6, [pc, #800]	; (3dac <Code_981+0x18>)
    3a8a:	6836      	ldr	r6, [r6, #0]
    3a8c:	4770      	bx	lr
    3a8e:	46c0      	nop			; (mov r8, r8)

00003a90 <Dictionary_911>:
    3a90:	00003bcc 	andeq	r3, r0, ip, asr #23
    3a94:	660d0000 	strvs	r0, [sp], -r0
    3a98:	6873616c 	ldmdavs	r3!, {r2, r3, r5, r6, r8, sp, lr}^
    3a9c:	2d726176 	ldfcse	f6, [r2, #-472]!	; 0xfffffe28
    3aa0:	65726568 	ldrbvs	r6, [r2, #-1384]!	; 0x568

00003aa4 <Code_911>:
    3aa4:	3f04      	subs	r7, #4
    3aa6:	603e      	str	r6, [r7, #0]
    3aa8:	4ec5      	ldr	r6, [pc, #788]	; (3dc0 <Code_981+0x2c>)
    3aaa:	6836      	ldr	r6, [r6, #0]
    3aac:	4770      	bx	lr

00003aae <nullprobekomma>:
    3aae:	b500      	push	{lr}
    3ab0:	3f04      	subs	r7, #4
    3ab2:	603e      	str	r6, [r7, #0]
    3ab4:	4ec3      	ldr	r6, [pc, #780]	; (3dc4 <Code_981+0x30>)
    3ab6:	f7ff fc8e 	bl	33d6 <Code_793>
    3aba:	3f04      	subs	r7, #4
    3abc:	603e      	str	r6, [r7, #0]
    3abe:	4ec2      	ldr	r6, [pc, #776]	; (3dc8 <Code_981+0x34>)
    3ac0:	f7ff fc89 	bl	33d6 <Code_793>
    3ac4:	bd00      	pop	{pc}

00003ac6 <branch_r>:
    3ac6:	e7dd      	b.n	3a84 <Code_909>

00003ac8 <r_branch_jne>:
    3ac8:	b500      	push	{lr}
    3aca:	f000 f837 	bl	3b3c <branch_v>
    3ace:	6839      	ldr	r1, [r7, #0]
    3ad0:	603e      	str	r6, [r7, #0]
    3ad2:	460e      	mov	r6, r1
    3ad4:	3f04      	subs	r7, #4
    3ad6:	603e      	str	r6, [r7, #0]
    3ad8:	4ebc      	ldr	r6, [pc, #752]	; (3dcc <Code_981+0x38>)
    3ada:	f7ff ff8a 	bl	39f2 <Code_900>
    3ade:	bd00      	pop	{pc}

00003ae0 <r_branch_jvc>:
    3ae0:	b500      	push	{lr}
    3ae2:	f000 f82b 	bl	3b3c <branch_v>
    3ae6:	6839      	ldr	r1, [r7, #0]
    3ae8:	603e      	str	r6, [r7, #0]
    3aea:	460e      	mov	r6, r1
    3aec:	3f04      	subs	r7, #4
    3aee:	603e      	str	r6, [r7, #0]
    3af0:	4eb7      	ldr	r6, [pc, #732]	; (3dd0 <Code_981+0x3c>)
    3af2:	f7ff ff7e 	bl	39f2 <Code_900>
    3af6:	bd00      	pop	{pc}

00003af8 <r_nullbranch>:
    3af8:	b500      	push	{lr}
    3afa:	f7ff ffd8 	bl	3aae <nullprobekomma>
    3afe:	f000 f81d 	bl	3b3c <branch_v>
    3b02:	6839      	ldr	r1, [r7, #0]
    3b04:	603e      	str	r6, [r7, #0]
    3b06:	460e      	mov	r6, r1
    3b08:	3f04      	subs	r7, #4
    3b0a:	603e      	str	r6, [r7, #0]
    3b0c:	4eb1      	ldr	r6, [pc, #708]	; (3dd4 <Code_981+0x40>)
    3b0e:	f7ff ff70 	bl	39f2 <Code_900>
    3b12:	bd00      	pop	{pc}

00003b14 <r_branch>:
    3b14:	b500      	push	{lr}
    3b16:	f000 f811 	bl	3b3c <branch_v>
    3b1a:	6839      	ldr	r1, [r7, #0]
    3b1c:	603e      	str	r6, [r7, #0]
    3b1e:	460e      	mov	r6, r1
    3b20:	f7ff ff94 	bl	3a4c <Code_904>
    3b24:	bd00      	pop	{pc}

00003b26 <nullbranch_v>:
    3b26:	b500      	push	{lr}
    3b28:	f7ff ffc1 	bl	3aae <nullprobekomma>
    3b2c:	f7ff ffaa 	bl	3a84 <Code_909>
    3b30:	3f04      	subs	r7, #4
    3b32:	603e      	str	r6, [r7, #0]
    3b34:	2602      	movs	r6, #2
    3b36:	f7ff fcbb 	bl	34b0 <Code_813>
    3b3a:	bd00      	pop	{pc}

00003b3c <branch_v>:
    3b3c:	b500      	push	{lr}
    3b3e:	f7ff ffa1 	bl	3a84 <Code_909>
    3b42:	3f04      	subs	r7, #4
    3b44:	603e      	str	r6, [r7, #0]
    3b46:	2602      	movs	r6, #2
    3b48:	f7ff fcb2 	bl	34b0 <Code_813>
    3b4c:	bd00      	pop	{pc}

00003b4e <v_branch>:
    3b4e:	b500      	push	{lr}
    3b50:	f7ff ff98 	bl	3a84 <Code_909>
    3b54:	f7ff ff7a 	bl	3a4c <Code_904>
    3b58:	bd00      	pop	{pc}

00003b5a <v_nullbranch>:
    3b5a:	b500      	push	{lr}
    3b5c:	f7ff ff92 	bl	3a84 <Code_909>
    3b60:	3f04      	subs	r7, #4
    3b62:	603e      	str	r6, [r7, #0]
    3b64:	4e9b      	ldr	r6, [pc, #620]	; (3dd4 <Code_981+0x40>)
    3b66:	f7ff ff44 	bl	39f2 <Code_900>
    3b6a:	bd00      	pop	{pc}

00003b6c <v_casebranch>:
    3b6c:	b500      	push	{lr}
    3b6e:	f7ff ff89 	bl	3a84 <Code_909>
    3b72:	3f04      	subs	r7, #4
    3b74:	603e      	str	r6, [r7, #0]
    3b76:	4e95      	ldr	r6, [pc, #596]	; (3dcc <Code_981+0x38>)
    3b78:	f7ff ff3b 	bl	39f2 <Code_900>
    3b7c:	bd00      	pop	{pc}

00003b7e <allocator_nullsprungprobe>:
    3b7e:	b500      	push	{lr}
    3b80:	f7fc fd28 	bl	5d4 <expect_one_element>
    3b84:	6901      	ldr	r1, [r0, #16]
    3b86:	6942      	ldr	r2, [r0, #20]
    3b88:	f7fc fd60 	bl	64c <eliminiere_tos>
    3b8c:	f7fc fdf6 	bl	77c <tidyup_register_allocator_3os>
    3b90:	f7fc fdf9 	bl	786 <tidyup_register_allocator_nos>
    3b94:	6903      	ldr	r3, [r0, #16]
    3b96:	2b28      	cmp	r3, #40	; 0x28
    3b98:	d102      	bne.n	3ba0 <allocator_nullsprungprobe+0x22>
    3b9a:	6943      	ldr	r3, [r0, #20]
    3b9c:	f7fc fcbf 	bl	51e <generiere_konstante>
    3ba0:	2928      	cmp	r1, #40	; 0x28
    3ba2:	d108      	bne.n	3bb6 <allocator_nullsprungprobe+0x38>
    3ba4:	3f04      	subs	r7, #4
    3ba6:	603e      	str	r6, [r7, #0]
    3ba8:	4e8b      	ldr	r6, [pc, #556]	; (3dd8 <Code_981+0x44>)
    3baa:	2a00      	cmp	r2, #0
    3bac:	d000      	beq.n	3bb0 <allocator_nullsprungprobe+0x32>
    3bae:	3601      	adds	r6, #1
    3bb0:	f7ff fc11 	bl	33d6 <Code_793>
    3bb4:	e006      	b.n	3bc4 <allocator_nullsprungprobe+0x46>
    3bb6:	3f04      	subs	r7, #4
    3bb8:	603e      	str	r6, [r7, #0]
    3bba:	4e88      	ldr	r6, [pc, #544]	; (3ddc <Code_981+0x48>)
    3bbc:	0209      	lsls	r1, r1, #8
    3bbe:	430e      	orrs	r6, r1
    3bc0:	f7ff fc09 	bl	33d6 <Code_793>
    3bc4:	f7fc fde4 	bl	790 <tidyup_register_allocator_tos>
    3bc8:	bd00      	pop	{pc}
    3bca:	46c0      	nop			; (mov r8, r8)

00003bcc <Dictionary_939>:
    3bcc:	00003c38 	andeq	r3, r0, r8, lsr ip
    3bd0:	69020630 	stmdbvs	r2, {r4, r5, r9, sl}
    3bd4:	b5000066 	strlt	r0, [r0, #-102]	; 0x66

00003bd6 <Code_939>:
    3bd6:	b500      	push	{lr}
    3bd8:	f7ff ffa5 	bl	3b26 <nullbranch_v>
    3bdc:	3f04      	subs	r7, #4
    3bde:	603e      	str	r6, [r7, #0]
    3be0:	4e7c      	ldr	r6, [pc, #496]	; (3dd4 <Code_981+0x40>)
    3be2:	3f04      	subs	r7, #4
    3be4:	603e      	str	r6, [r7, #0]
    3be6:	2602      	movs	r6, #2
    3be8:	bd00      	pop	{pc}

00003bea <struktur_if_allokator>:
    3bea:	b500      	push	{lr}
    3bec:	f7fd fdc5 	bl	177a <eliminiere_tos_wenn_bmi>
    3bf0:	6a81      	ldr	r1, [r0, #40]	; 0x28
    3bf2:	2900      	cmp	r1, #0
    3bf4:	d010      	beq.n	3c18 <struktur_if_allokator+0x2e>
    3bf6:	b402      	push	{r1}
    3bf8:	f7fc fdb8 	bl	76c <Code_60>
    3bfc:	f7ff ff42 	bl	3a84 <Code_909>
    3c00:	3f04      	subs	r7, #4
    3c02:	603e      	str	r6, [r7, #0]
    3c04:	2602      	movs	r6, #2
    3c06:	f7ff fc53 	bl	34b0 <Code_813>
    3c0a:	3f04      	subs	r7, #4
    3c0c:	603e      	str	r6, [r7, #0]
    3c0e:	bc40      	pop	{r6}
    3c10:	3f04      	subs	r7, #4
    3c12:	603e      	str	r6, [r7, #0]
    3c14:	2602      	movs	r6, #2
    3c16:	bd00      	pop	{pc}
    3c18:	f7ff ffb1 	bl	3b7e <allocator_nullsprungprobe>
    3c1c:	f7ff ff32 	bl	3a84 <Code_909>
    3c20:	3f04      	subs	r7, #4
    3c22:	603e      	str	r6, [r7, #0]
    3c24:	2602      	movs	r6, #2
    3c26:	f7ff fc43 	bl	34b0 <Code_813>
    3c2a:	3f04      	subs	r7, #4
    3c2c:	603e      	str	r6, [r7, #0]
    3c2e:	4e69      	ldr	r6, [pc, #420]	; (3dd4 <Code_981+0x40>)
    3c30:	3f04      	subs	r7, #4
    3c32:	603e      	str	r6, [r7, #0]
    3c34:	2602      	movs	r6, #2
    3c36:	bd00      	pop	{pc}

00003c38 <Dictionary_955>:
    3c38:	00003c6c 	andeq	r3, r0, ip, ror #24
    3c3c:	65040030 	strvs	r0, [r4, #-48]	; 0x30
    3c40:	0065736c 	rsbeq	r7, r5, ip, ror #6

00003c44 <Code_955>:
    3c44:	b500      	push	{lr}
    3c46:	2e02      	cmp	r6, #2
    3c48:	d126      	bne.n	3c98 <strukturen_passen_nicht>
    3c4a:	cf40      	ldmia	r7!, {r6}
    3c4c:	f7ff ff76 	bl	3b3c <branch_v>
    3c50:	f7fd fa56 	bl	1100 <Code_198>
    3c54:	f7ff ff16 	bl	3a84 <Code_909>
    3c58:	6839      	ldr	r1, [r7, #0]
    3c5a:	603e      	str	r6, [r7, #0]
    3c5c:	460e      	mov	r6, r1
    3c5e:	f7ff fec8 	bl	39f2 <Code_900>
    3c62:	3f04      	subs	r7, #4
    3c64:	603e      	str	r6, [r7, #0]
    3c66:	2605      	movs	r6, #5
    3c68:	bd00      	pop	{pc}
    3c6a:	46c0      	nop			; (mov r8, r8)

00003c6c <Dictionary_960>:
    3c6c:	00003cb8 			; <UNDEFINED> instruction: 0x00003cb8
    3c70:	74040030 	strvc	r0, [r4], #-48	; 0x30
    3c74:	006e6568 	rsbeq	r6, lr, r8, ror #10

00003c78 <Code_960>:
    3c78:	2e05      	cmp	r6, #5
    3c7a:	d101      	bne.n	3c80 <Code_960+0x8>
    3c7c:	cf40      	ldmia	r7!, {r6}
    3c7e:	e766      	b.n	3b4e <v_branch>
    3c80:	2e02      	cmp	r6, #2
    3c82:	d109      	bne.n	3c98 <strukturen_passen_nicht>
    3c84:	cf40      	ldmia	r7!, {r6}
    3c86:	b500      	push	{lr}
    3c88:	f7ff fefc 	bl	3a84 <Code_909>
    3c8c:	6839      	ldr	r1, [r7, #0]
    3c8e:	603e      	str	r6, [r7, #0]
    3c90:	460e      	mov	r6, r1
    3c92:	f7ff feae 	bl	39f2 <Code_900>
    3c96:	bd00      	pop	{pc}

00003c98 <strukturen_passen_nicht>:
    3c98:	f7fe feb4 	bl	2a04 <dotgaensefuesschen>
    3c9c:	72745317 	rsbsvc	r5, r4, #1543503872	; 0x5c000000
    3ca0:	75746375 	ldrbvc	r6, [r4, #-885]!	; 0x375
    3ca4:	20736572 	rsbscs	r6, r3, r2, ror r5
    3ca8:	276e6f64 	strbcs	r6, [lr, -r4, ror #30]!
    3cac:	616d2074 	smcvs	53764	; 0xd204
    3cb0:	0a686374 	beq	1a1ca88 <BIT24+0xa1ca88>
    3cb4:	f000 fd64 	bl	4780 <Code_1178>

00003cb8 <Dictionary_965>:
    3cb8:	00003ce8 	andeq	r3, r0, r8, ror #25
    3cbc:	72060030 	andvc	r0, r6, #48	; 0x30
    3cc0:	61657065 	cmnvs	r5, r5, rrx
    3cc4:	2e040074 	mcrcs	0, 0, r0, cr4, cr4, {3}

00003cc6 <Code_965>:
    3cc6:	2e04      	cmp	r6, #4
    3cc8:	d1e6      	bne.n	3c98 <strukturen_passen_nicht>
    3cca:	cf40      	ldmia	r7!, {r6}
    3ccc:	b500      	push	{lr}
    3cce:	f7fd f9fa 	bl	10c6 <Code_197>
    3cd2:	f7ff ff1f 	bl	3b14 <r_branch>
    3cd6:	f7ff fed5 	bl	3a84 <Code_909>
    3cda:	6839      	ldr	r1, [r7, #0]
    3cdc:	603e      	str	r6, [r7, #0]
    3cde:	460e      	mov	r6, r1
    3ce0:	f7ff fe87 	bl	39f2 <Code_900>
    3ce4:	bd00      	pop	{pc}
    3ce6:	46c0      	nop			; (mov r8, r8)

00003ce8 <Dictionary_968>:
    3ce8:	00003d14 	andeq	r3, r0, r4, lsl sp
    3cec:	77050630 	smladxvc	r5, r0, r6, r0
    3cf0:	656c6968 	strbvs	r6, [ip, #-2408]!	; 0x968

00003cf4 <Code_968>:
    3cf4:	2e01      	cmp	r6, #1
    3cf6:	d1cf      	bne.n	3c98 <strukturen_passen_nicht>
    3cf8:	cf40      	ldmia	r7!, {r6}
    3cfa:	b500      	push	{lr}
    3cfc:	f7ff ff6b 	bl	3bd6 <Code_939>
    3d00:	3602      	adds	r6, #2
    3d02:	bd00      	pop	{pc}
    3d04:	2e01      	cmp	r6, #1
    3d06:	d1c7      	bne.n	3c98 <strukturen_passen_nicht>
    3d08:	cf40      	ldmia	r7!, {r6}
    3d0a:	b500      	push	{lr}
    3d0c:	f7ff ff6d 	bl	3bea <struktur_if_allokator>
    3d10:	3602      	adds	r6, #2
    3d12:	bd00      	pop	{pc}

00003d14 <Dictionary_971>:
    3d14:	00003d74 	andeq	r3, r0, r4, ror sp
    3d18:	75050630 	strvc	r0, [r5, #-1584]	; 0x630
    3d1c:	6c69746e 	cfstrdvs	mvd7, [r9], #-440	; 0xfffffe48

00003d20 <Code_971>:
    3d20:	2e01      	cmp	r6, #1
    3d22:	d1b9      	bne.n	3c98 <strukturen_passen_nicht>
    3d24:	cf40      	ldmia	r7!, {r6}
    3d26:	e6e7      	b.n	3af8 <r_nullbranch>
    3d28:	4770      	bx	lr
    3d2a:	2e01      	cmp	r6, #1
    3d2c:	d1b4      	bne.n	3c98 <strukturen_passen_nicht>
    3d2e:	cf40      	ldmia	r7!, {r6}
    3d30:	b500      	push	{lr}
    3d32:	f7fd fd22 	bl	177a <eliminiere_tos_wenn_bmi>
    3d36:	6a81      	ldr	r1, [r0, #40]	; 0x28
    3d38:	2900      	cmp	r1, #0
    3d3a:	d00d      	beq.n	3d58 <Code_971+0x38>
    3d3c:	b402      	push	{r1}
    3d3e:	f7fc fd15 	bl	76c <Code_60>
    3d42:	f7ff fefb 	bl	3b3c <branch_v>
    3d46:	6839      	ldr	r1, [r7, #0]
    3d48:	603e      	str	r6, [r7, #0]
    3d4a:	460e      	mov	r6, r1
    3d4c:	3f04      	subs	r7, #4
    3d4e:	603e      	str	r6, [r7, #0]
    3d50:	bc40      	pop	{r6}
    3d52:	f7ff fe4e 	bl	39f2 <Code_900>
    3d56:	bd00      	pop	{pc}
    3d58:	f7ff ff11 	bl	3b7e <allocator_nullsprungprobe>
    3d5c:	f7ff feee 	bl	3b3c <branch_v>
    3d60:	6839      	ldr	r1, [r7, #0]
    3d62:	603e      	str	r6, [r7, #0]
    3d64:	460e      	mov	r6, r1
    3d66:	3f04      	subs	r7, #4
    3d68:	603e      	str	r6, [r7, #0]
    3d6a:	4e1a      	ldr	r6, [pc, #104]	; (3dd4 <Code_981+0x40>)
    3d6c:	f7ff fe41 	bl	39f2 <Code_900>
    3d70:	bd00      	pop	{pc}
    3d72:	46c0      	nop			; (mov r8, r8)

00003d74 <Dictionary_979>:
    3d74:	00003d88 	andeq	r3, r0, r8, lsl #27
    3d78:	61050030 	tstvs	r5, r0, lsr r0
    3d7c:	6e696167 	powvsez	f6, f1, f7

00003d80 <Code_979>:
    3d80:	2e01      	cmp	r6, #1
    3d82:	d189      	bne.n	3c98 <strukturen_passen_nicht>
    3d84:	cf40      	ldmia	r7!, {r6}
    3d86:	e6c5      	b.n	3b14 <r_branch>

00003d88 <Dictionary_981>:
    3d88:	00003de0 	andeq	r3, r0, r0, ror #27
    3d8c:	62050030 	andvs	r0, r5, #48	; 0x30
    3d90:	6e696765 	cdpvs	7, 6, cr6, cr9, cr5, {3}

00003d94 <Code_981>:
    3d94:	b500      	push	{lr}
    3d96:	f7ff fe96 	bl	3ac6 <branch_r>
    3d9a:	3f04      	subs	r7, #4
    3d9c:	603e      	str	r6, [r7, #0]
    3d9e:	2601      	movs	r6, #1
    3da0:	bd00      	pop	{pc}
    3da2:	ff010000 			; <UNDEFINED> instruction: 0xff010000
    3da6:	ff00ffff 			; <UNDEFINED> instruction: 0xff00ffff
    3daa:	f000ffff 			; <UNDEFINED> instruction: 0xf000ffff
    3dae:	f8011fff 			; <UNDEFINED> instruction: 0xf8011fff
    3db2:	f800ffff 			; <UNDEFINED> instruction: 0xf800ffff
    3db6:	07ffffff 			; <UNDEFINED> instruction: 0x07ffffff
    3dba:	e0000000 	and	r0, r0, r0
    3dbe:	f0240000 			; <UNDEFINED> instruction: 0xf0240000
    3dc2:	2e001fff 	mcrcs	15, 0, r1, cr0, cr15, {7}
    3dc6:	cf400000 	svcgt	0x00400000
    3dca:	d1000000 	mrsle	r0, (UNDEF: 0)
    3dce:	d7000000 	strle	r0, [r0, -r0]
    3dd2:	d0000000 	andle	r0, r0, r0
    3dd6:	22000000 	andcs	r0, r0, #0
    3dda:	28000000 	stmdacs	r0, {}	; <UNPREDICTABLE>
	...

00003de0 <Dictionary_984>:
    3de0:	00003df8 	strdeq	r3, [r0], -r8
    3de4:	6b010220 	blvs	4466c <BIT18+0x466c>

00003de8 <Code_984>:
    3de8:	3f04      	subs	r7, #4
    3dea:	603e      	str	r6, [r7, #0]
    3dec:	9e02      	ldr	r6, [sp, #8]
    3dee:	4770      	bx	lr
    3df0:	3f04      	subs	r7, #4
    3df2:	603e      	str	r6, [r7, #0]
    3df4:	4e8b      	ldr	r6, [pc, #556]	; (4024 <BIT14+0x24>)
    3df6:	e00a      	b.n	3e0e <loop_j_allocator>

00003df8 <Dictionary_988>:
    3df8:	00003e24 	andeq	r3, r0, r4, lsr #28
    3dfc:	6a010220 	bvs	44684 <BIT18+0x4684>

00003e00 <Code_988>:
    3e00:	3f04      	subs	r7, #4
    3e02:	603e      	str	r6, [r7, #0]
    3e04:	9e00      	ldr	r6, [sp, #0]
    3e06:	4770      	bx	lr

00003e08 <rfetch_allocator>:
    3e08:	3f04      	subs	r7, #4
    3e0a:	603e      	str	r6, [r7, #0]
    3e0c:	4e86      	ldr	r6, [pc, #536]	; (4028 <BIT14+0x28>)

00003e0e <loop_j_allocator>:
    3e0e:	b500      	push	{lr}
    3e10:	f7fc fb58 	bl	4c4 <befreie_tos>
    3e14:	f7fc fbba 	bl	58c <get_free_register>
    3e18:	6103      	str	r3, [r0, #16]
    3e1a:	021b      	lsls	r3, r3, #8
    3e1c:	431e      	orrs	r6, r3
    3e1e:	f7ff fada 	bl	33d6 <Code_793>
    3e22:	bd00      	pop	{pc}

00003e24 <Dictionary_992>:
    3e24:	00003e50 	andeq	r3, r0, r0, asr lr
    3e28:	69010220 	stmdbvs	r1, {r5, r9}

00003e2c <Code_992>:
    3e2c:	3f04      	subs	r7, #4
    3e2e:	603e      	str	r6, [r7, #0]
    3e30:	0026      	movs	r6, r4
    3e32:	4770      	bx	lr
    3e34:	b500      	push	{lr}
    3e36:	3f04      	subs	r7, #4
    3e38:	603e      	str	r6, [r7, #0]
    3e3a:	4e7c      	ldr	r6, [pc, #496]	; (402c <BIT14+0x2c>)
    3e3c:	f7fc fb42 	bl	4c4 <befreie_tos>
    3e40:	f7fc fba4 	bl	58c <get_free_register>
    3e44:	6103      	str	r3, [r0, #16]
    3e46:	431e      	orrs	r6, r3
    3e48:	f7ff fac5 	bl	33d6 <Code_793>
    3e4c:	bd00      	pop	{pc}
    3e4e:	46c0      	nop			; (mov r8, r8)

00003e50 <Dictionary_997>:
    3e50:	00003e90 	muleq	r0, r0, lr
    3e54:	6c050030 	stcvs	0, cr0, [r5], {48}	; 0x30
    3e58:	65766165 	ldrbvs	r6, [r6, #-357]!	; 0x165

00003e5c <Code_997>:
    3e5c:	b500      	push	{lr}
    3e5e:	4874      	ldr	r0, [pc, #464]	; (4030 <BIT14+0x30>)
    3e60:	6801      	ldr	r1, [r0, #0]
    3e62:	003b      	movs	r3, r7
    3e64:	3f04      	subs	r7, #4
    3e66:	681a      	ldr	r2, [r3, #0]
    3e68:	3b04      	subs	r3, #4
    3e6a:	601a      	str	r2, [r3, #0]
    3e6c:	3308      	adds	r3, #8
    3e6e:	428b      	cmp	r3, r1
    3e70:	d1f9      	bne.n	3e66 <Code_997+0xa>
    3e72:	b403      	push	{r0, r1}
    3e74:	f7ff fe62 	bl	3b3c <branch_v>
    3e78:	bc03      	pop	{r0, r1}
    3e7a:	0033      	movs	r3, r6
    3e7c:	cf40      	ldmia	r7!, {r6}
    3e7e:	3904      	subs	r1, #4
    3e80:	600b      	str	r3, [r1, #0]
    3e82:	6001      	str	r1, [r0, #0]
    3e84:	3904      	subs	r1, #4
    3e86:	680a      	ldr	r2, [r1, #0]
    3e88:	3201      	adds	r2, #1
    3e8a:	600a      	str	r2, [r1, #0]
    3e8c:	bd00      	pop	{pc}
    3e8e:	46c0      	nop			; (mov r8, r8)

00003e90 <Dictionary_999>:
    3e90:	00003ea4 	andeq	r3, r0, r4, lsr #29
    3e94:	75060020 	strvc	r0, [r6, #-32]
    3e98:	6f6f6c6e 	svcvs	0x006f6c6e
    3e9c:	bc300070 	ldclt	0, cr0, [r0], #-448	; 0xfffffe40

00003e9e <Code_999>:
    3e9e:	bc30      	pop	{r4, r5}
    3ea0:	4770      	bx	lr
    3ea2:	46c0      	nop			; (mov r8, r8)

00003ea4 <Dictionary_1000>:
    3ea4:	00003edc 	ldrdeq	r3, [r0], -ip
    3ea8:	2b050030 	blcs	143f70 <BIT20+0x43f70>
    3eac:	706f6f6c 	rsbvc	r6, pc, ip, ror #30

00003eb0 <Code_1000>:
    3eb0:	2e03      	cmp	r6, #3
    3eb2:	d000      	beq.n	3eb6 <Code_1000+0x6>
    3eb4:	e6f0      	b.n	3c98 <strukturen_passen_nicht>
    3eb6:	cf40      	ldmia	r7!, {r6}
    3eb8:	b500      	push	{lr}
    3eba:	3f04      	subs	r7, #4
    3ebc:	603e      	str	r6, [r7, #0]
    3ebe:	4e5d      	ldr	r6, [pc, #372]	; (4034 <BIT14+0x34>)
    3ec0:	f7ff f891 	bl	2fe6 <Code_717>
    3ec4:	f7ff fe0c 	bl	3ae0 <r_branch_jvc>
    3ec8:	e01a      	b.n	3f00 <loop_intern>

00003eca <struktur_plusloop>:
    3eca:	2080      	movs	r0, #128	; 0x80
    3ecc:	0600      	lsls	r0, r0, #24
    3ece:	1900      	adds	r0, r0, r4
    3ed0:	19a4      	adds	r4, r4, r6
    3ed2:	1b40      	subs	r0, r0, r5
    3ed4:	1980      	adds	r0, r0, r6
    3ed6:	cf40      	ldmia	r7!, {r6}
    3ed8:	4770      	bx	lr
    3eda:	46c0      	nop			; (mov r8, r8)

00003edc <Dictionary_1004>:
    3edc:	00003f20 	andeq	r3, r0, r0, lsr #30
    3ee0:	6c040030 	stcvs	0, cr0, [r4], {48}	; 0x30
    3ee4:	00706f6f 	rsbseq	r6, r0, pc, ror #30

00003ee8 <Code_1004>:
    3ee8:	2e03      	cmp	r6, #3
    3eea:	d000      	beq.n	3eee <Code_1004+0x6>
    3eec:	e6d4      	b.n	3c98 <strukturen_passen_nicht>
    3eee:	cf40      	ldmia	r7!, {r6}
    3ef0:	b500      	push	{lr}
    3ef2:	3f04      	subs	r7, #4
    3ef4:	603e      	str	r6, [r7, #0]
    3ef6:	4e50      	ldr	r6, [pc, #320]	; (4038 <BIT14+0x38>)
    3ef8:	f7ff f875 	bl	2fe6 <Code_717>
    3efc:	f7ff fde4 	bl	3ac8 <r_branch_jne>

00003f00 <loop_intern>:
    3f00:	f000 f946 	bl	4190 <spruenge_einpflegen>
    3f04:	484a      	ldr	r0, [pc, #296]	; (4030 <BIT14+0x30>)
    3f06:	0031      	movs	r1, r6
    3f08:	cf40      	ldmia	r7!, {r6}
    3f0a:	6001      	str	r1, [r0, #0]
    3f0c:	3f04      	subs	r7, #4
    3f0e:	603e      	str	r6, [r7, #0]
    3f10:	4e4a      	ldr	r6, [pc, #296]	; (403c <BIT14+0x3c>)
    3f12:	f7ff f868 	bl	2fe6 <Code_717>
    3f16:	bd00      	pop	{pc}

00003f18 <struktur_loop>:
    3f18:	3401      	adds	r4, #1
    3f1a:	42ac      	cmp	r4, r5
    3f1c:	4770      	bx	lr
    3f1e:	46c0      	nop			; (mov r8, r8)

00003f20 <Dictionary_1009>:
    3f20:	00003f68 	andeq	r3, r0, r8, ror #30
    3f24:	64020230 	strvs	r0, [r2], #-560	; 0x230
    3f28:	b500006f 	strlt	r0, [r0, #-111]	; 0x6f

00003f2a <Code_1009>:
    3f2a:	b500      	push	{lr}
    3f2c:	3f04      	subs	r7, #4
    3f2e:	603e      	str	r6, [r7, #0]
    3f30:	4e43      	ldr	r6, [pc, #268]	; (4040 <BIT14+0x40>)
    3f32:	f7ff f858 	bl	2fe6 <Code_717>

00003f36 <do_rest_der_schleifenstruktur>:
    3f36:	483e      	ldr	r0, [pc, #248]	; (4030 <BIT14+0x30>)
    3f38:	6801      	ldr	r1, [r0, #0]
    3f3a:	3f04      	subs	r7, #4
    3f3c:	603e      	str	r6, [r7, #0]
    3f3e:	000e      	movs	r6, r1
    3f40:	3f04      	subs	r7, #4
    3f42:	603e      	str	r6, [r7, #0]
    3f44:	2600      	movs	r6, #0
    3f46:	6007      	str	r7, [r0, #0]
    3f48:	f7ff fdbd 	bl	3ac6 <branch_r>
    3f4c:	3f04      	subs	r7, #4
    3f4e:	603e      	str	r6, [r7, #0]
    3f50:	2603      	movs	r6, #3
    3f52:	bd00      	pop	{pc}
    3f54:	b500      	push	{lr}
    3f56:	f000 f82e 	bl	3fb6 <gemeinsame_schleifenoptimierung>
    3f5a:	e7ec      	b.n	3f36 <do_rest_der_schleifenstruktur>

00003f5c <struktur_do>:
    3f5c:	b430      	push	{r4, r5}
    3f5e:	0034      	movs	r4, r6
    3f60:	cf40      	ldmia	r7!, {r6}
    3f62:	0035      	movs	r5, r6
    3f64:	cf40      	ldmia	r7!, {r6}
    3f66:	4770      	bx	lr

00003f68 <Dictionary_1019>:
    3f68:	00004054 	andeq	r4, r0, r4, asr r0
    3f6c:	3f030230 	svccc	0x00030230
    3f70:	b5006f64 	strlt	r6, [r0, #-3940]	; 0xf64

00003f72 <Code_1019>:
    3f72:	b500      	push	{lr}
    3f74:	3f04      	subs	r7, #4
    3f76:	603e      	str	r6, [r7, #0]
    3f78:	4e31      	ldr	r6, [pc, #196]	; (4040 <BIT14+0x40>)
    3f7a:	f7ff f834 	bl	2fe6 <Code_717>

00003f7e <qdo_rest_der_schleifenstruktur>:
    3f7e:	3f04      	subs	r7, #4
    3f80:	603e      	str	r6, [r7, #0]
    3f82:	4e30      	ldr	r6, [pc, #192]	; (4044 <BIT14+0x44>)
    3f84:	f7ff fa27 	bl	33d6 <Code_793>
    3f88:	4829      	ldr	r0, [pc, #164]	; (4030 <BIT14+0x30>)
    3f8a:	6801      	ldr	r1, [r0, #0]
    3f8c:	3f04      	subs	r7, #4
    3f8e:	603e      	str	r6, [r7, #0]
    3f90:	000e      	movs	r6, r1
    3f92:	f7ff fdd3 	bl	3b3c <branch_v>
    3f96:	3601      	adds	r6, #1
    3f98:	3f04      	subs	r7, #4
    3f9a:	603e      	str	r6, [r7, #0]
    3f9c:	2601      	movs	r6, #1
    3f9e:	4824      	ldr	r0, [pc, #144]	; (4030 <BIT14+0x30>)
    3fa0:	6007      	str	r7, [r0, #0]
    3fa2:	f7ff fd90 	bl	3ac6 <branch_r>
    3fa6:	3f04      	subs	r7, #4
    3fa8:	603e      	str	r6, [r7, #0]
    3faa:	2603      	movs	r6, #3
    3fac:	bd00      	pop	{pc}
    3fae:	b500      	push	{lr}
    3fb0:	f000 f801 	bl	3fb6 <gemeinsame_schleifenoptimierung>
    3fb4:	e7e3      	b.n	3f7e <qdo_rest_der_schleifenstruktur>

00003fb6 <gemeinsame_schleifenoptimierung>:
    3fb6:	b500      	push	{lr}
    3fb8:	f7fc fb15 	bl	5e6 <expect_two_elements>
    3fbc:	f7fc fbde 	bl	77c <tidyup_register_allocator_3os>
    3fc0:	3f04      	subs	r7, #4
    3fc2:	603e      	str	r6, [r7, #0]
    3fc4:	4e20      	ldr	r6, [pc, #128]	; (4048 <BIT14+0x48>)
    3fc6:	f7ff fa06 	bl	33d6 <Code_793>
    3fca:	6901      	ldr	r1, [r0, #16]
    3fcc:	2928      	cmp	r1, #40	; 0x28
    3fce:	d007      	beq.n	3fe0 <gemeinsame_schleifenoptimierung+0x2a>
    3fd0:	3f04      	subs	r7, #4
    3fd2:	603e      	str	r6, [r7, #0]
    3fd4:	4e1d      	ldr	r6, [pc, #116]	; (404c <BIT14+0x4c>)
    3fd6:	00c9      	lsls	r1, r1, #3
    3fd8:	430e      	orrs	r6, r1
    3fda:	f7ff f9fc 	bl	33d6 <Code_793>
    3fde:	e007      	b.n	3ff0 <gemeinsame_schleifenoptimierung+0x3a>
    3fe0:	3f04      	subs	r7, #4
    3fe2:	603e      	str	r6, [r7, #0]
    3fe4:	6946      	ldr	r6, [r0, #20]
    3fe6:	3f04      	subs	r7, #4
    3fe8:	603e      	str	r6, [r7, #0]
    3fea:	2604      	movs	r6, #4
    3fec:	f7fe fe5c 	bl	2ca8 <Code_649>
    3ff0:	6981      	ldr	r1, [r0, #24]
    3ff2:	2928      	cmp	r1, #40	; 0x28
    3ff4:	d007      	beq.n	4006 <BIT14+0x6>
    3ff6:	3f04      	subs	r7, #4
    3ff8:	603e      	str	r6, [r7, #0]
    3ffa:	4e15      	ldr	r6, [pc, #84]	; (4050 <BIT14+0x50>)
    3ffc:	00c9      	lsls	r1, r1, #3
    3ffe:	430e      	orrs	r6, r1
    4000:	f7ff f9e9 	bl	33d6 <Code_793>
    4004:	e007      	b.n	4016 <BIT14+0x16>
    4006:	3f04      	subs	r7, #4
    4008:	603e      	str	r6, [r7, #0]
    400a:	69c6      	ldr	r6, [r0, #28]
    400c:	3f04      	subs	r7, #4
    400e:	603e      	str	r6, [r7, #0]
    4010:	2605      	movs	r6, #5
    4012:	f7fe fe49 	bl	2ca8 <Code_649>
    4016:	f7fc fb19 	bl	64c <eliminiere_tos>
    401a:	f7fc fb17 	bl	64c <eliminiere_tos>
    401e:	f7fc fbb7 	bl	790 <tidyup_register_allocator_tos>
    4022:	bd00      	pop	{pc}
    4024:	00009802 	andeq	r9, r0, r2, lsl #16
    4028:	00009800 	andeq	r9, r0, r0, lsl #16
    402c:	00000020 	andeq	r0, r0, r0, lsr #32
    4030:	1ffff00c 	svcne	0x00fff00c
    4034:	00003eca 	andeq	r3, r0, sl, asr #29
    4038:	00003f18 	andeq	r3, r0, r8, lsl pc
    403c:	00003e9e 	muleq	r0, lr, lr
    4040:	00003f5c 	andeq	r3, r0, ip, asr pc
    4044:	000042ac 	andeq	r4, r0, ip, lsr #5
    4048:	0000b430 	andeq	fp, r0, r0, lsr r4
    404c:	00000004 	andeq	r0, r0, r4
    4050:	00000005 	andeq	r0, r0, r5

00004054 <Dictionary_1041>:
    4054:	00004070 	andeq	r4, r0, r0, ror r0
    4058:	63040030 	movwvs	r0, #16432	; 0x4030
    405c:	00657361 	rsbeq	r7, r5, r1, ror #6

00004060 <Code_1041>:
    4060:	3f04      	subs	r7, #4
    4062:	603e      	str	r6, [r7, #0]
    4064:	2600      	movs	r6, #0
    4066:	3f04      	subs	r7, #4
    4068:	603e      	str	r6, [r7, #0]
    406a:	2608      	movs	r6, #8
    406c:	4770      	bx	lr
    406e:	46c0      	nop			; (mov r8, r8)

00004070 <Dictionary_1046>:
    4070:	00004088 	andeq	r4, r0, r8, lsl #1
    4074:	3f030030 	svccc	0x00030030
    4078:	486a666f 	stmdami	sl!, {r0, r1, r2, r3, r5, r6, r9, sl, sp, lr}^

0000407a <Code_1046>:
    407a:	486a      	ldr	r0, [pc, #424]	; (4224 <Flag_allocator_Rechenlogik_unkommutativ+0x24>)
    407c:	e00a      	b.n	4094 <of_inneneinsprung>

0000407e <struktur_qof>:
    407e:	3e01      	subs	r6, #1
    4080:	41b6      	sbcs	r6, r6
    4082:	cf40      	ldmia	r7!, {r6}
    4084:	4770      	bx	lr
    4086:	46c0      	nop			; (mov r8, r8)

00004088 <Dictionary_1048>:
    4088:	00004130 	andeq	r4, r0, r0, lsr r1
    408c:	6f020230 	svcvs	0x00020230
    4090:	48650066 	stmdami	r5!, {r1, r2, r5, r6}^

00004092 <Code_1048>:
    4092:	4865      	ldr	r0, [pc, #404]	; (4228 <Flag_allocator_Rechenlogik_unkommutativ+0x28>)

00004094 <of_inneneinsprung>:
    4094:	2e08      	cmp	r6, #8
    4096:	d000      	beq.n	409a <of_inneneinsprung+0x6>
    4098:	e5fe      	b.n	3c98 <strukturen_passen_nicht>
    409a:	cf40      	ldmia	r7!, {r6}
    409c:	b500      	push	{lr}
    409e:	3f04      	subs	r7, #4
    40a0:	603e      	str	r6, [r7, #0]
    40a2:	0006      	movs	r6, r0
    40a4:	f7fe ff9f 	bl	2fe6 <Code_717>

000040a8 <of_opcodiereinsprung>:
    40a8:	f7ff fd48 	bl	3b3c <branch_v>
    40ac:	6839      	ldr	r1, [r7, #0]
    40ae:	603e      	str	r6, [r7, #0]
    40b0:	460e      	mov	r6, r1
    40b2:	3601      	adds	r6, #1
    40b4:	3f04      	subs	r7, #4
    40b6:	603e      	str	r6, [r7, #0]
    40b8:	2609      	movs	r6, #9
    40ba:	3f04      	subs	r7, #4
    40bc:	603e      	str	r6, [r7, #0]
    40be:	4e5b      	ldr	r6, [pc, #364]	; (422c <Flag_allocator_Rechenlogik_unkommutativ+0x2c>)
    40c0:	f7ff f989 	bl	33d6 <Code_793>
    40c4:	bd00      	pop	{pc}
    40c6:	2e08      	cmp	r6, #8
    40c8:	d000      	beq.n	40cc <of_opcodiereinsprung+0x24>
    40ca:	e5e5      	b.n	3c98 <strukturen_passen_nicht>
    40cc:	cf40      	ldmia	r7!, {r6}
    40ce:	b500      	push	{lr}
    40d0:	f7fc fa89 	bl	5e6 <expect_two_elements>
    40d4:	f7fc fb52 	bl	77c <tidyup_register_allocator_3os>
    40d8:	3f04      	subs	r7, #4
    40da:	603e      	str	r6, [r7, #0]
    40dc:	4e54      	ldr	r6, [pc, #336]	; (4230 <Flag_allocator_Rechenlogik_unkommutativ+0x30>)
    40de:	f7fc faac 	bl	63a <expect_nos_in_register>
    40e2:	430e      	orrs	r6, r1
    40e4:	6902      	ldr	r2, [r0, #16]
    40e6:	2a28      	cmp	r2, #40	; 0x28
    40e8:	d115      	bne.n	4116 <of_opcodiereinsprung+0x6e>
    40ea:	6942      	ldr	r2, [r0, #20]
    40ec:	2aff      	cmp	r2, #255	; 0xff
    40ee:	d807      	bhi.n	4100 <of_opcodiereinsprung+0x58>
    40f0:	cf40      	ldmia	r7!, {r6}
    40f2:	3f04      	subs	r7, #4
    40f4:	603e      	str	r6, [r7, #0]
    40f6:	4e4f      	ldr	r6, [pc, #316]	; (4234 <Flag_allocator_Rechenlogik_unkommutativ+0x34>)
    40f8:	4316      	orrs	r6, r2
    40fa:	0209      	lsls	r1, r1, #8
    40fc:	430e      	orrs	r6, r1
    40fe:	e00c      	b.n	411a <of_opcodiereinsprung+0x72>
    4100:	3f04      	subs	r7, #4
    4102:	603e      	str	r6, [r7, #0]
    4104:	0016      	movs	r6, r2
    4106:	f7fc fa41 	bl	58c <get_free_register>
    410a:	001a      	movs	r2, r3
    410c:	3f04      	subs	r7, #4
    410e:	603e      	str	r6, [r7, #0]
    4110:	001e      	movs	r6, r3
    4112:	f7fe fdc9 	bl	2ca8 <Code_649>
    4116:	00d2      	lsls	r2, r2, #3
    4118:	4316      	orrs	r6, r2
    411a:	f7ff f95c 	bl	33d6 <Code_793>
    411e:	f7fc fa95 	bl	64c <eliminiere_tos>
    4122:	f7fc fb35 	bl	790 <tidyup_register_allocator_tos>
    4126:	e7bf      	b.n	40a8 <of_opcodiereinsprung>

00004128 <struktur_of>:
    4128:	0030      	movs	r0, r6
    412a:	cf40      	ldmia	r7!, {r6}
    412c:	42b0      	cmp	r0, r6
    412e:	4770      	bx	lr

00004130 <Dictionary_1068>:
    4130:	00004168 	andeq	r4, r0, r8, ror #2
    4134:	65050030 	strvs	r0, [r5, #-48]	; 0x30
    4138:	666f646e 	strbtvs	r6, [pc], -lr, ror #8

0000413c <Code_1068>:
    413c:	2e09      	cmp	r6, #9
    413e:	d000      	beq.n	4142 <Code_1068+0x6>
    4140:	e5aa      	b.n	3c98 <strukturen_passen_nicht>
    4142:	cf40      	ldmia	r7!, {r6}
    4144:	b500      	push	{lr}
    4146:	b440      	push	{r6}
    4148:	cf40      	ldmia	r7!, {r6}
    414a:	f7ff fcf7 	bl	3b3c <branch_v>
    414e:	6839      	ldr	r1, [r7, #0]
    4150:	603e      	str	r6, [r7, #0]
    4152:	460e      	mov	r6, r1
    4154:	f7ff fd0a 	bl	3b6c <v_casebranch>
    4158:	3f04      	subs	r7, #4
    415a:	603e      	str	r6, [r7, #0]
    415c:	bc40      	pop	{r6}
    415e:	3f04      	subs	r7, #4
    4160:	603e      	str	r6, [r7, #0]
    4162:	2608      	movs	r6, #8
    4164:	bd00      	pop	{pc}
    4166:	46c0      	nop			; (mov r8, r8)

00004168 <Dictionary_1076>:
    4168:	000041b8 			; <UNDEFINED> instruction: 0x000041b8
    416c:	65070030 	strvs	r0, [r7, #-48]	; 0x30
    4170:	6163646e 	cmnvs	r3, lr, ror #8
    4174:	2e086573 	cfrshl64cs	mvdx8, mvdx3, r6

00004176 <Code_1076>:
    4176:	2e08      	cmp	r6, #8
    4178:	d000      	beq.n	417c <Code_1076+0x6>
    417a:	e58d      	b.n	3c98 <strukturen_passen_nicht>
    417c:	cf40      	ldmia	r7!, {r6}
    417e:	b500      	push	{lr}
    4180:	3f04      	subs	r7, #4
    4182:	603e      	str	r6, [r7, #0]
    4184:	4e29      	ldr	r6, [pc, #164]	; (422c <Flag_allocator_Rechenlogik_unkommutativ+0x2c>)
    4186:	f7ff f926 	bl	33d6 <Code_793>
    418a:	f000 f801 	bl	4190 <spruenge_einpflegen>
    418e:	bd00      	pop	{pc}

00004190 <spruenge_einpflegen>:
    4190:	b500      	push	{lr}
    4192:	0030      	movs	r0, r6
    4194:	cf40      	ldmia	r7!, {r6}
    4196:	2800      	cmp	r0, #0
    4198:	d00d      	beq.n	41b6 <spruenge_einpflegen+0x26>
    419a:	b403      	push	{r0, r1}
    419c:	2101      	movs	r1, #1
    419e:	4031      	ands	r1, r6
    41a0:	2900      	cmp	r1, #0
    41a2:	d003      	beq.n	41ac <spruenge_einpflegen+0x1c>
    41a4:	3e01      	subs	r6, #1
    41a6:	f7ff fcd8 	bl	3b5a <v_nullbranch>
    41aa:	e001      	b.n	41b0 <spruenge_einpflegen+0x20>
    41ac:	f7ff fccf 	bl	3b4e <v_branch>
    41b0:	bc03      	pop	{r0, r1}
    41b2:	3801      	subs	r0, #1
    41b4:	e7ef      	b.n	4196 <spruenge_einpflegen+0x6>
    41b6:	bd00      	pop	{pc}

000041b8 <Dictionary_1081>:
    41b8:	000041cc 	andeq	r4, r0, ip, asr #3
    41bc:	74050000 	strvc	r0, [r5], #-0
    41c0:	6e656b6f 	vnmulvs.f64	d22, d5, d31

000041c4 <Code_1081>:
    41c4:	3f04      	subs	r7, #4
    41c6:	603e      	str	r6, [r7, #0]
    41c8:	2620      	movs	r6, #32
    41ca:	e005      	b.n	41d8 <Code_1083>

000041cc <Dictionary_1083>:
    41cc:	0000423c 	andeq	r4, r0, ip, lsr r2
    41d0:	70050000 	andvc	r0, r5, r0
    41d4:	65737261 	ldrbvs	r7, [r3, #-609]!	; 0x261

000041d8 <Code_1083>:
    41d8:	b510      	push	{r4, lr}
    41da:	f7fe fb5a 	bl	2892 <Code_557>
    41de:	0031      	movs	r1, r6
    41e0:	cf40      	ldmia	r7!, {r6}
    41e2:	0030      	movs	r0, r6
    41e4:	cf40      	ldmia	r7!, {r6}
    41e6:	4a14      	ldr	r2, [pc, #80]	; (4238 <Flag_allocator_Rechenlogik_unkommutativ+0x38>)
    41e8:	6812      	ldr	r2, [r2, #0]
    41ea:	1884      	adds	r4, r0, r2
    41ec:	2e20      	cmp	r6, #32
    41ee:	d107      	bne.n	4200 <Flag_allocator_Rechenlogik_unkommutativ>
    41f0:	4291      	cmp	r1, r2
    41f2:	d00f      	beq.n	4214 <Flag_allocator_Rechenlogik_unkommutativ+0x14>
    41f4:	5c83      	ldrb	r3, [r0, r2]
    41f6:	42b3      	cmp	r3, r6
    41f8:	d102      	bne.n	4200 <Flag_allocator_Rechenlogik_unkommutativ>
    41fa:	3201      	adds	r2, #1
    41fc:	1884      	adds	r4, r0, r2
    41fe:	e7f7      	b.n	41f0 <Code_1083+0x18>
    4200:	4291      	cmp	r1, r2
    4202:	d007      	beq.n	4214 <Flag_allocator_Rechenlogik_unkommutativ+0x14>
    4204:	5c83      	ldrb	r3, [r0, r2]
    4206:	3201      	adds	r2, #1
    4208:	42b3      	cmp	r3, r6
    420a:	d1f9      	bne.n	4200 <Flag_allocator_Rechenlogik_unkommutativ>
    420c:	1886      	adds	r6, r0, r2
    420e:	1b36      	subs	r6, r6, r4
    4210:	3e01      	subs	r6, #1
    4212:	e001      	b.n	4218 <Flag_allocator_Rechenlogik_unkommutativ+0x18>
    4214:	1886      	adds	r6, r0, r2
    4216:	1b36      	subs	r6, r6, r4
    4218:	3f04      	subs	r7, #4
    421a:	603c      	str	r4, [r7, #0]
    421c:	4806      	ldr	r0, [pc, #24]	; (4238 <Flag_allocator_Rechenlogik_unkommutativ+0x38>)
    421e:	6002      	str	r2, [r0, #0]
    4220:	bd10      	pop	{r4, pc}
    4222:	407e0000 	rsbsmi	r0, lr, r0
    4226:	41280000 	teqmi	r8, r0
    422a:	cf400000 	svcgt	0x00400000
    422e:	42800000 	addmi	r0, r0, #0
    4232:	28000000 	stmdacs	r0, {}	; <UNPREDICTABLE>
    4236:	2fe40000 	svccs	0x00e40000
    423a:	427c2000 	rsbsmi	r2, ip, #0

0000423c <Dictionary_1086>:
    423c:	0000427c 	andeq	r4, r0, ip, ror r2
    4240:	64050000 	strvs	r0, [r5], #-0
    4244:	74696769 	strbtvc	r6, [r9], #-1897	; 0x769

00004248 <Code_1086>:
    4248:	4bd4      	ldr	r3, [pc, #848]	; (459c <Code_1149+0x8>)
    424a:	681b      	ldr	r3, [r3, #0]

0000424c <digit_base_r3>:
    424c:	3e30      	subs	r6, #48	; 0x30
    424e:	d30b      	bcc.n	4268 <digit_base_r3+0x1c>
    4250:	2e0a      	cmp	r6, #10
    4252:	d30b      	bcc.n	426c <digit_base_r3+0x20>
    4254:	3e07      	subs	r6, #7
    4256:	2e0a      	cmp	r6, #10
    4258:	d306      	bcc.n	4268 <digit_base_r3+0x1c>
    425a:	2e24      	cmp	r6, #36	; 0x24
    425c:	d306      	bcc.n	426c <digit_base_r3+0x20>
    425e:	3e20      	subs	r6, #32
    4260:	2e0a      	cmp	r6, #10
    4262:	d301      	bcc.n	4268 <digit_base_r3+0x1c>
    4264:	2e24      	cmp	r6, #36	; 0x24
    4266:	d301      	bcc.n	426c <digit_base_r3+0x20>
    4268:	2600      	movs	r6, #0
    426a:	4770      	bx	lr
    426c:	429e      	cmp	r6, r3
    426e:	d2fb      	bcs.n	4268 <digit_base_r3+0x1c>
    4270:	3f04      	subs	r7, #4
    4272:	603e      	str	r6, [r7, #0]
    4274:	2600      	movs	r6, #0
    4276:	43f6      	mvns	r6, r6
    4278:	4770      	bx	lr
    427a:	46c0      	nop			; (mov r8, r8)

0000427c <Dictionary_1088>:
    427c:	00004388 	andeq	r4, r0, r8, lsl #7
    4280:	6e060000 	cdpvs	0, 0, cr0, cr6, cr0, {0}
    4284:	65626d75 	strbvs	r6, [r2, #-3445]!	; 0xd75
    4288:	b53f0072 	ldrlt	r0, [pc, #-114]!	; 421e <Flag_allocator_Rechenlogik_unkommutativ+0x1e>

0000428a <Code_1088>:
    428a:	b53f      	push	{r0, r1, r2, r3, r4, r5, lr}
    428c:	0031      	movs	r1, r6
    428e:	cf40      	ldmia	r7!, {r6}
    4290:	1e70      	subs	r0, r6, #1
    4292:	2601      	movs	r6, #1
    4294:	2201      	movs	r2, #1
    4296:	b404      	push	{r2}
    4298:	4bc0      	ldr	r3, [pc, #768]	; (459c <Code_1149+0x8>)
    429a:	681b      	ldr	r3, [r3, #0]
    429c:	2400      	movs	r4, #0
    429e:	2500      	movs	r5, #0
    42a0:	2900      	cmp	r1, #0
    42a2:	d03c      	beq.n	431e <Code_1088+0x94>
    42a4:	3001      	adds	r0, #1
    42a6:	3901      	subs	r1, #1
    42a8:	7802      	ldrb	r2, [r0, #0]
    42aa:	2a2d      	cmp	r2, #45	; 0x2d
    42ac:	d104      	bne.n	42b8 <Code_1088+0x2e>
    42ae:	b001      	add	sp, #4
    42b0:	2200      	movs	r2, #0
    42b2:	43d2      	mvns	r2, r2
    42b4:	b404      	push	{r2}
    42b6:	e7f3      	b.n	42a0 <Code_1088+0x16>
    42b8:	2a23      	cmp	r2, #35	; 0x23
    42ba:	d101      	bne.n	42c0 <Code_1088+0x36>
    42bc:	230a      	movs	r3, #10
    42be:	e7ef      	b.n	42a0 <Code_1088+0x16>
    42c0:	2a24      	cmp	r2, #36	; 0x24
    42c2:	d101      	bne.n	42c8 <Code_1088+0x3e>
    42c4:	2310      	movs	r3, #16
    42c6:	e7eb      	b.n	42a0 <Code_1088+0x16>
    42c8:	2a25      	cmp	r2, #37	; 0x25
    42ca:	d101      	bne.n	42d0 <Code_1088+0x46>
    42cc:	2302      	movs	r3, #2
    42ce:	e7e7      	b.n	42a0 <Code_1088+0x16>
    42d0:	2a2e      	cmp	r2, #46	; 0x2e
    42d2:	d101      	bne.n	42d8 <Code_1088+0x4e>
    42d4:	2602      	movs	r6, #2
    42d6:	e7e3      	b.n	42a0 <Code_1088+0x16>
    42d8:	2a2c      	cmp	r2, #44	; 0x2c
    42da:	d036      	beq.n	434a <number_nachkommastellen>
    42dc:	3f04      	subs	r7, #4
    42de:	603e      	str	r6, [r7, #0]
    42e0:	0016      	movs	r6, r2
    42e2:	f7ff ffb3 	bl	424c <digit_base_r3>
    42e6:	2e00      	cmp	r6, #0
    42e8:	cf40      	ldmia	r7!, {r6}
    42ea:	d02b      	beq.n	4344 <Code_1088+0xba>
    42ec:	3f04      	subs	r7, #4
    42ee:	603e      	str	r6, [r7, #0]
    42f0:	0026      	movs	r6, r4
    42f2:	3f04      	subs	r7, #4
    42f4:	603e      	str	r6, [r7, #0]
    42f6:	002e      	movs	r6, r5
    42f8:	3f04      	subs	r7, #4
    42fa:	603e      	str	r6, [r7, #0]
    42fc:	001e      	movs	r6, r3
    42fe:	3f04      	subs	r7, #4
    4300:	603e      	str	r6, [r7, #0]
    4302:	2600      	movs	r6, #0
    4304:	b40f      	push	{r0, r1, r2, r3}
    4306:	f7fc fc1c 	bl	b42 <Code_110>
    430a:	bc0f      	pop	{r0, r1, r2, r3}
    430c:	0035      	movs	r5, r6
    430e:	cf40      	ldmia	r7!, {r6}
    4310:	0034      	movs	r4, r6
    4312:	cf40      	ldmia	r7!, {r6}
    4314:	2200      	movs	r2, #0
    4316:	19a4      	adds	r4, r4, r6
    4318:	4155      	adcs	r5, r2
    431a:	cf40      	ldmia	r7!, {r6}
    431c:	e7c0      	b.n	42a0 <Code_1088+0x16>
    431e:	bc04      	pop	{r2}
    4320:	2a00      	cmp	r2, #0
    4322:	d504      	bpl.n	432e <Code_1088+0xa4>
    4324:	2200      	movs	r2, #0
    4326:	43e4      	mvns	r4, r4
    4328:	43ed      	mvns	r5, r5
    432a:	3401      	adds	r4, #1
    432c:	4155      	adcs	r5, r2
    432e:	0033      	movs	r3, r6
    4330:	0026      	movs	r6, r4
    4332:	2b01      	cmp	r3, #1
    4334:	d002      	beq.n	433c <Code_1088+0xb2>
    4336:	3f04      	subs	r7, #4
    4338:	603e      	str	r6, [r7, #0]
    433a:	002e      	movs	r6, r5
    433c:	3f04      	subs	r7, #4
    433e:	603e      	str	r6, [r7, #0]
    4340:	001e      	movs	r6, r3
    4342:	bd3f      	pop	{r0, r1, r2, r3, r4, r5, pc}
    4344:	b001      	add	sp, #4
    4346:	2600      	movs	r6, #0
    4348:	bd3f      	pop	{r0, r1, r2, r3, r4, r5, pc}

0000434a <number_nachkommastellen>:
    434a:	0025      	movs	r5, r4
    434c:	2400      	movs	r4, #0
    434e:	2602      	movs	r6, #2
    4350:	2900      	cmp	r1, #0
    4352:	d0e4      	beq.n	431e <Code_1088+0x94>
    4354:	5c42      	ldrb	r2, [r0, r1]
    4356:	3901      	subs	r1, #1
    4358:	2a2e      	cmp	r2, #46	; 0x2e
    435a:	d0f9      	beq.n	4350 <number_nachkommastellen+0x6>
    435c:	3f04      	subs	r7, #4
    435e:	603e      	str	r6, [r7, #0]
    4360:	0016      	movs	r6, r2
    4362:	f7ff ff73 	bl	424c <digit_base_r3>
    4366:	2e00      	cmp	r6, #0
    4368:	cf40      	ldmia	r7!, {r6}
    436a:	d0eb      	beq.n	4344 <Code_1088+0xba>
    436c:	3f04      	subs	r7, #4
    436e:	603c      	str	r4, [r7, #0]
    4370:	3f04      	subs	r7, #4
    4372:	603e      	str	r6, [r7, #0]
    4374:	001e      	movs	r6, r3
    4376:	b40f      	push	{r0, r1, r2, r3}
    4378:	f7fc fc97 	bl	caa <Code_146>
    437c:	bc0f      	pop	{r0, r1, r2, r3}
    437e:	0034      	movs	r4, r6
    4380:	cf40      	ldmia	r7!, {r6}
    4382:	cf40      	ldmia	r7!, {r6}
    4384:	e7e4      	b.n	4350 <number_nachkommastellen+0x6>
    4386:	46c0      	nop			; (mov r8, r8)

00004388 <Dictionary_1115>:
    4388:	000043ac 	andeq	r4, r0, ip, lsr #7
    438c:	2e060000 	cdpcs	0, 0, cr0, cr6, cr0, {0}
    4390:	69676964 	stmdbvs	r7!, {r2, r5, r6, r8, fp, sp, lr}^
    4394:	2e0a0074 	mcrcs	0, 0, r0, cr10, cr4, {3}

00004396 <Code_1115>:
    4396:	2e0a      	cmp	r6, #10
    4398:	d201      	bcs.n	439e <Code_1115+0x8>
    439a:	3630      	adds	r6, #48	; 0x30
    439c:	e004      	b.n	43a8 <Code_1115+0x12>
    439e:	2e24      	cmp	r6, #36	; 0x24
    43a0:	d201      	bcs.n	43a6 <Code_1115+0x10>
    43a2:	3637      	adds	r6, #55	; 0x37
    43a4:	e000      	b.n	43a8 <Code_1115+0x12>
    43a6:	2623      	movs	r6, #35	; 0x23
    43a8:	4770      	bx	lr
    43aa:	46c0      	nop			; (mov r8, r8)

000043ac <Dictionary_1116>:
    43ac:	000043e4 	andeq	r4, r0, r4, ror #7
    43b0:	68040000 	stmdavs	r4, {}	; <UNPREDICTABLE>
    43b4:	00646c6f 	rsbeq	r6, r4, pc, ror #24

000043b8 <Code_1116>:
    43b8:	0033      	movs	r3, r6
    43ba:	cf40      	ldmia	r7!, {r6}
    43bc:	4878      	ldr	r0, [pc, #480]	; (45a0 <Code_1149+0xc>)
    43be:	7801      	ldrb	r1, [r0, #0]
    43c0:	293f      	cmp	r1, #63	; 0x3f
    43c2:	d20d      	bcs.n	43e0 <Code_1116+0x28>
    43c4:	3101      	adds	r1, #1
    43c6:	7001      	strb	r1, [r0, #0]
    43c8:	1840      	adds	r0, r0, r1
    43ca:	2901      	cmp	r1, #1
    43cc:	d007      	beq.n	43de <Code_1116+0x26>
    43ce:	3801      	subs	r0, #1
    43d0:	7802      	ldrb	r2, [r0, #0]
    43d2:	3001      	adds	r0, #1
    43d4:	7002      	strb	r2, [r0, #0]
    43d6:	3801      	subs	r0, #1
    43d8:	3901      	subs	r1, #1
    43da:	2901      	cmp	r1, #1
    43dc:	d1f7      	bne.n	43ce <Code_1116+0x16>
    43de:	7003      	strb	r3, [r0, #0]
    43e0:	4770      	bx	lr
    43e2:	46c0      	nop			; (mov r8, r8)

000043e4 <Dictionary_1118>:
    43e4:	00004404 	andeq	r4, r0, r4, lsl #8
    43e8:	68050000 	stmdavs	r5, {}	; <UNPREDICTABLE>
    43ec:	3c646c6f 	stclcc	12, cr6, [r4], #-444	; 0xfffffe44

000043f0 <Code_1118>:
    43f0:	0033      	movs	r3, r6
    43f2:	cf40      	ldmia	r7!, {r6}
    43f4:	486a      	ldr	r0, [pc, #424]	; (45a0 <Code_1149+0xc>)
    43f6:	7801      	ldrb	r1, [r0, #0]
    43f8:	293f      	cmp	r1, #63	; 0x3f
    43fa:	d202      	bcs.n	4402 <Code_1118+0x12>
    43fc:	3101      	adds	r1, #1
    43fe:	7001      	strb	r1, [r0, #0]
    4400:	5443      	strb	r3, [r0, r1]
    4402:	4770      	bx	lr

00004404 <Dictionary_1120>:
    4404:	0000441c 	andeq	r4, r0, ip, lsl r4
    4408:	73040000 	movwvc	r0, #16384	; 0x4000
    440c:	006e6769 	rsbeq	r6, lr, r9, ror #14

00004410 <Code_1120>:
    4410:	2e00      	cmp	r6, #0
    4412:	d401      	bmi.n	4418 <Code_1120+0x8>
    4414:	cf40      	ldmia	r7!, {r6}
    4416:	4770      	bx	lr
    4418:	262d      	movs	r6, #45	; 0x2d
    441a:	e7cd      	b.n	43b8 <Code_1116>

0000441c <Dictionary_1122>:
    441c:	00004430 	andeq	r4, r0, r0, lsr r4
    4420:	23020000 	movwcs	r0, #8192	; 0x2000
    4424:	485e003e 	ldmdami	lr, {r1, r2, r3, r4, r5}^

00004426 <Code_1122>:
    4426:	485e      	ldr	r0, [pc, #376]	; (45a0 <Code_1149+0xc>)
    4428:	7806      	ldrb	r6, [r0, #0]
    442a:	3001      	adds	r0, #1
    442c:	6038      	str	r0, [r7, #0]
    442e:	4770      	bx	lr

00004430 <Dictionary_1123>:
    4430:	00004448 	andeq	r4, r0, r8, asr #8
    4434:	66030000 	strvs	r0, [r3], -r0
    4438:	b5105323 	ldrlt	r5, [r0, #-803]	; 0x323

0000443a <Code_1123>:
    443a:	b510      	push	{r4, lr}
    443c:	2420      	movs	r4, #32
    443e:	f000 f808 	bl	4452 <Code_1124>
    4442:	3c01      	subs	r4, #1
    4444:	d1fb      	bne.n	443e <Code_1123+0x4>
    4446:	bd10      	pop	{r4, pc}

00004448 <Dictionary_1124>:
    4448:	0000446c 	andeq	r4, r0, ip, ror #8
    444c:	66020000 	strvs	r0, [r2], -r0
    4450:	b5000023 	strlt	r0, [r0, #-35]	; 0x23

00004452 <Code_1124>:
    4452:	b500      	push	{lr}
    4454:	3f04      	subs	r7, #4
    4456:	603e      	str	r6, [r7, #0]
    4458:	4e50      	ldr	r6, [pc, #320]	; (459c <Code_1149+0x8>)
    445a:	6836      	ldr	r6, [r6, #0]
    445c:	f7fc fb43 	bl	ae6 <Code_108>
    4460:	f7ff ff99 	bl	4396 <Code_1115>
    4464:	f7ff ffc4 	bl	43f0 <Code_1118>
    4468:	bd00      	pop	{pc}
    446a:	46c0      	nop			; (mov r8, r8)

0000446c <Dictionary_1126>:
    446c:	00004488 	andeq	r4, r0, r8, lsl #9
    4470:	23020000 	movwcs	r0, #8192	; 0x2000
    4474:	b5000053 	strlt	r0, [r0, #-83]	; 0x53

00004476 <Code_1126>:
    4476:	b500      	push	{lr}
    4478:	f000 f80a 	bl	4490 <Code_1127>
    447c:	2e00      	cmp	r6, #0
    447e:	d1fb      	bne.n	4478 <Code_1126+0x2>
    4480:	6838      	ldr	r0, [r7, #0]
    4482:	2800      	cmp	r0, #0
    4484:	d1f8      	bne.n	4478 <Code_1126+0x2>
    4486:	bd00      	pop	{pc}

00004488 <Dictionary_1127>:
    4488:	000044b4 			; <UNDEFINED> instruction: 0x000044b4
    448c:	23010000 	movwcs	r0, #4096	; 0x1000

00004490 <Code_1127>:
    4490:	b500      	push	{lr}
    4492:	3f04      	subs	r7, #4
    4494:	603e      	str	r6, [r7, #0]
    4496:	4e41      	ldr	r6, [pc, #260]	; (459c <Code_1149+0x8>)
    4498:	6836      	ldr	r6, [r6, #0]
    449a:	3f04      	subs	r7, #4
    449c:	603e      	str	r6, [r7, #0]
    449e:	2600      	movs	r6, #0
    44a0:	f7fc fc23 	bl	cea <Code_155>
    44a4:	f7fc fa00 	bl	8a8 <Code_78>
    44a8:	cf40      	ldmia	r7!, {r6}
    44aa:	f7ff ff74 	bl	4396 <Code_1115>
    44ae:	f7ff ff83 	bl	43b8 <Code_1116>
    44b2:	bd00      	pop	{pc}

000044b4 <Dictionary_1132>:
    44b4:	000044c8 	andeq	r4, r0, r8, asr #9
    44b8:	3c020000 	stccc	0, cr0, [r2], {-0}
    44bc:	48380023 	ldmdami	r8!, {r0, r1, r5}

000044be <Code_1132>:
    44be:	4838      	ldr	r0, [pc, #224]	; (45a0 <Code_1149+0xc>)
    44c0:	2100      	movs	r1, #0
    44c2:	7001      	strb	r1, [r0, #0]
    44c4:	4770      	bx	lr
    44c6:	46c0      	nop			; (mov r8, r8)

000044c8 <Dictionary_1133>:
    44c8:	000044dc 	ldrdeq	r4, [r0], -ip
    44cc:	66020000 	strvs	r0, [r2], -r0
    44d0:	3f04002e 	svccc	0x0004002e

000044d2 <Code_1133>:
    44d2:	3f04      	subs	r7, #4
    44d4:	603e      	str	r6, [r7, #0]
    44d6:	2620      	movs	r6, #32
    44d8:	e005      	b.n	44e6 <Code_1136>
    44da:	46c0      	nop			; (mov r8, r8)

000044dc <Dictionary_1136>:
    44dc:	0000452c 	andeq	r4, r0, ip, lsr #10
    44e0:	66030000 	strvs	r0, [r3], -r0
    44e4:	b5006e2e 	strlt	r6, [r0, #-3630]	; 0xe2e

000044e6 <Code_1136>:
    44e6:	b500      	push	{lr}
    44e8:	b410      	push	{r4}
    44ea:	0034      	movs	r4, r6
    44ec:	cf40      	ldmia	r7!, {r6}
    44ee:	f7fc fdd5 	bl	109c <Code_196>
    44f2:	f7fc fab7 	bl	a64 <Code_102>
    44f6:	3f04      	subs	r7, #4
    44f8:	603e      	str	r6, [r7, #0]
    44fa:	2600      	movs	r6, #0
    44fc:	f7ff ffdf 	bl	44be <Code_1132>
    4500:	f7ff ffb9 	bl	4476 <Code_1126>
    4504:	cf40      	ldmia	r7!, {r6}
    4506:	262c      	movs	r6, #44	; 0x2c
    4508:	f7ff ff72 	bl	43f0 <Code_1118>
    450c:	2c00      	cmp	r4, #0
    450e:	d003      	beq.n	4518 <Code_1136+0x32>
    4510:	f7ff ff9f 	bl	4452 <Code_1124>
    4514:	3c01      	subs	r4, #1
    4516:	d1fb      	bne.n	4510 <Code_1136+0x2a>
    4518:	bc10      	pop	{r4}
    451a:	cf40      	ldmia	r7!, {r6}
    451c:	f7ff ff78 	bl	4410 <Code_1120>
    4520:	3f04      	subs	r7, #4
    4522:	603e      	str	r6, [r7, #0]
    4524:	3f04      	subs	r7, #4
    4526:	603e      	str	r6, [r7, #0]
    4528:	e01e      	b.n	4568 <abschluss_zahlenausgabe>
    452a:	46c0      	nop			; (mov r8, r8)

0000452c <Dictionary_1144>:
    452c:	00004544 	andeq	r4, r0, r4, asr #10
    4530:	75030000 	strvc	r0, [r3, #-0]
    4534:	b5002e64 	strlt	r2, [r0, #-3684]	; 0xe64

00004536 <Code_1144>:
    4536:	b500      	push	{lr}
    4538:	f7ff ffc1 	bl	44be <Code_1132>
    453c:	f7ff ff9b 	bl	4476 <Code_1126>
    4540:	e012      	b.n	4568 <abschluss_zahlenausgabe>
    4542:	46c0      	nop			; (mov r8, r8)

00004544 <Dictionary_1145>:
    4544:	00004578 	andeq	r4, r0, r8, ror r5
    4548:	64020000 	strvs	r0, [r2], #-0
    454c:	b500002e 	strlt	r0, [r0, #-46]	; 0x2e

0000454e <Code_1145>:
    454e:	b500      	push	{lr}
    4550:	f7fc fda4 	bl	109c <Code_196>
    4554:	f7fc fa86 	bl	a64 <Code_102>
    4558:	f7ff ffb1 	bl	44be <Code_1132>
    455c:	f7ff ff8b 	bl	4476 <Code_1126>
    4560:	f7fc fdb1 	bl	10c6 <Code_197>
    4564:	f7ff ff54 	bl	4410 <Code_1120>

00004568 <abschluss_zahlenausgabe>:
    4568:	f7ff ff5d 	bl	4426 <Code_1122>
    456c:	f7fe faaa 	bl	2ac4 <Code_609>
    4570:	f7fe f9f6 	bl	2960 <Code_574>
    4574:	bd00      	pop	{pc}
    4576:	46c0      	nop			; (mov r8, r8)

00004578 <Dictionary_1146>:
    4578:	0000458c 	andeq	r4, r0, ip, lsl #11
    457c:	75020000 	strvc	r0, [r2, #-0]
    4580:	3f04002e 	svccc	0x0004002e

00004582 <Code_1146>:
    4582:	3f04      	subs	r7, #4
    4584:	603e      	str	r6, [r7, #0]
    4586:	2600      	movs	r6, #0
    4588:	e7d5      	b.n	4536 <Code_1144>
    458a:	46c0      	nop			; (mov r8, r8)

0000458c <Dictionary_1149>:
    458c:	000045a4 	andeq	r4, r0, r4, lsr #11
    4590:	2e010000 	cdpcs	0, 0, cr0, cr1, cr0, {0}

00004594 <Code_1149>:
    4594:	3f04      	subs	r7, #4
    4596:	603e      	str	r6, [r7, #0]
    4598:	17f6      	asrs	r6, r6, #31
    459a:	e7d8      	b.n	454e <Code_1145>
    459c:	20002ffc 	strdcs	r2, [r0], -ip
    45a0:	1ffff054 	svcne	0x00fff054

000045a4 <Dictionary_1151>:
    45a4:	000045ec 	andeq	r4, r0, ip, ror #11
    45a8:	65080000 	strvs	r0, [r8, #-0]
    45ac:	756c6176 	strbvc	r6, [ip, #-374]!	; 0x176
    45b0:	00657461 	rsbeq	r7, r5, r1, ror #8

000045b4 <Code_1151>:
    45b4:	b500      	push	{lr}
    45b6:	f7fe f96c 	bl	2892 <Code_557>
    45ba:	cf01      	ldmia	r7!, {r0}
    45bc:	b401      	push	{r0}
    45be:	b440      	push	{r6}
    45c0:	cf40      	ldmia	r7!, {r6}
    45c2:	4880      	ldr	r0, [pc, #512]	; (47c4 <quit_innenschleife+0x14>)
    45c4:	6801      	ldr	r1, [r0, #0]
    45c6:	b402      	push	{r1}
    45c8:	2100      	movs	r1, #0
    45ca:	6001      	str	r1, [r0, #0]
    45cc:	f7fe f954 	bl	2878 <Code_555>
    45d0:	f000 f814 	bl	45fc <Code_1153>
    45d4:	487b      	ldr	r0, [pc, #492]	; (47c4 <quit_innenschleife+0x14>)
    45d6:	bc02      	pop	{r1}
    45d8:	6001      	str	r1, [r0, #0]
    45da:	3f04      	subs	r7, #4
    45dc:	603e      	str	r6, [r7, #0]
    45de:	bc40      	pop	{r6}
    45e0:	bc01      	pop	{r0}
    45e2:	3f04      	subs	r7, #4
    45e4:	6038      	str	r0, [r7, #0]
    45e6:	f7fe f947 	bl	2878 <Code_555>
    45ea:	bd00      	pop	{pc}

000045ec <Dictionary_1153>:
    45ec:	00004758 	andeq	r4, r0, r8, asr r7
    45f0:	69090000 	stmdbvs	r9, {}	; <UNPREDICTABLE>
    45f4:	7265746e 	rsbvc	r7, r5, #1845493760	; 0x6e000000
    45f8:	74657270 	strbtvc	r7, [r5], #-624	; 0x270

000045fc <Code_1153>:
    45fc:	b530      	push	{r4, r5, lr}
    45fe:	4872      	ldr	r0, [pc, #456]	; (47c8 <quit_innenschleife+0x18>)
    4600:	4287      	cmp	r7, r0
    4602:	d90b      	bls.n	461c <Code_1153+0x20>
    4604:	f7fe f9fe 	bl	2a04 <dotgaensefuesschen>
    4608:	61745310 	cmnvs	r4, r0, lsl r3
    460c:	75206b63 	strvc	r6, [r0, #-2915]!	; 0xb63
    4610:	7265646e 	rsbvc	r6, r5, #1845493760	; 0x6e000000
    4614:	776f6c66 	strbvc	r6, [pc, -r6, ror #24]!
    4618:	e0b1000a 	adcs	r0, r1, sl
    461c:	486b      	ldr	r0, [pc, #428]	; (47cc <quit_innenschleife+0x1c>)
    461e:	4287      	cmp	r7, r0
    4620:	d20a      	bcs.n	4638 <Code_1153+0x3c>
    4622:	f7fe f9ef 	bl	2a04 <dotgaensefuesschen>
    4626:	6174530f 	cmnvs	r4, pc, lsl #6
    462a:	6f206b63 	svcvs	0x00206b63
    462e:	66726576 			; <UNDEFINED> instruction: 0x66726576
    4632:	0a776f6c 	beq	1de03ea <BIT24+0xde03ea>
    4636:	e0a3      	b.n	4780 <Code_1178>
    4638:	4c65      	ldr	r4, [pc, #404]	; (47d0 <quit_innenschleife+0x20>)
    463a:	6825      	ldr	r5, [r4, #0]
    463c:	2d00      	cmp	r5, #0
    463e:	d101      	bne.n	4644 <Code_1153+0x48>
    4640:	003d      	movs	r5, r7
    4642:	6025      	str	r5, [r4, #0]
    4644:	f7ff fdbe 	bl	41c4 <Code_1081>
    4648:	2e00      	cmp	r6, #0
    464a:	d102      	bne.n	4652 <Code_1153+0x56>
    464c:	3704      	adds	r7, #4
    464e:	cf40      	ldmia	r7!, {r6}
    4650:	bd30      	pop	{r4, r5, pc}
    4652:	6838      	ldr	r0, [r7, #0]
    4654:	3f04      	subs	r7, #4
    4656:	603e      	str	r6, [r7, #0]
    4658:	3f04      	subs	r7, #4
    465a:	6038      	str	r0, [r7, #0]
    465c:	f7ff f97e 	bl	395c <Code_887>
    4660:	0031      	movs	r1, r6
    4662:	cf40      	ldmia	r7!, {r6}
    4664:	0032      	movs	r2, r6
    4666:	cf40      	ldmia	r7!, {r6}
    4668:	2a00      	cmp	r2, #0
    466a:	d115      	bne.n	4698 <not_found_addr_r0_len_r1+0x18>
    466c:	6838      	ldr	r0, [r7, #0]
    466e:	0031      	movs	r1, r6
    4670:	f7fd f841 	bl	16f6 <sprungschreiber_flaggenerator>
    4674:	f7ff fe09 	bl	428a <Code_1088>
    4678:	0032      	movs	r2, r6
    467a:	cf40      	ldmia	r7!, {r6}
    467c:	2a00      	cmp	r2, #0
    467e:	d1be      	bne.n	45fe <Code_1153+0x2>

00004680 <not_found_addr_r0_len_r1>:
    4680:	f7fe fa24 	bl	2acc <stype_addr_r0_len_r1>
    4684:	f7fe f9be 	bl	2a04 <dotgaensefuesschen>
    4688:	6f6e200c 	svcvs	0x006e200c
    468c:	6f662074 	svcvs	0x00662074
    4690:	2e646e75 	mcrcs	14, 3, r6, cr4, cr5, {3}
    4694:	e073000a 	rsbs	r0, r3, sl
    4698:	4b4e      	ldr	r3, [pc, #312]	; (47d4 <quit_innenschleife+0x24>)
    469a:	681b      	ldr	r3, [r3, #0]
    469c:	2b00      	cmp	r3, #0
    469e:	d11d      	bne.n	46dc <.ausfuehren+0x12>
    46a0:	2500      	movs	r5, #0
    46a2:	6025      	str	r5, [r4, #0]
    46a4:	2330      	movs	r3, #48	; 0x30
    46a6:	400b      	ands	r3, r1
    46a8:	2b30      	cmp	r3, #48	; 0x30
    46aa:	d10e      	bne.n	46ca <.ausfuehren>
    46ac:	f7fe fa0a 	bl	2ac4 <Code_609>
    46b0:	f7fe f9a8 	bl	2a04 <dotgaensefuesschen>
    46b4:	73692012 	cmnvc	r9, #18
    46b8:	6d6f6320 	stclvs	3, cr6, [pc, #-128]!	; 4640 <Code_1153+0x44>
    46bc:	656c6970 	strbvs	r6, [ip, #-2416]!	; 0x970
    46c0:	6c6e6f2d 	stclvs	15, cr6, [lr], #-180	; 0xffffff4c
    46c4:	000a2e79 	andeq	r2, sl, r9, ror lr
    46c8:	e05a      	b.n	4780 <Code_1178>

000046ca <.ausfuehren>:
    46ca:	3704      	adds	r7, #4
    46cc:	cf40      	ldmia	r7!, {r6}
    46ce:	3f04      	subs	r7, #4
    46d0:	603e      	str	r6, [r7, #0]
    46d2:	0016      	movs	r6, r2
    46d4:	f7fe fd21 	bl	311a <Code_739>
    46d8:	f7ff ff91 	bl	45fe <Code_1153+0x2>
    46dc:	3704      	adds	r7, #4
    46de:	cf40      	ldmia	r7!, {r6}
    46e0:	483d      	ldr	r0, [pc, #244]	; (47d8 <quit_innenschleife+0x28>)
    46e2:	4008      	ands	r0, r1
    46e4:	d101      	bne.n	46ea <.interpret_entsprungen>
    46e6:	f7fd f806 	bl	16f6 <sprungschreiber_flaggenerator>

000046ea <.interpret_entsprungen>:
    46ea:	2080      	movs	r0, #128	; 0x80
    46ec:	4008      	ands	r0, r1
    46ee:	d108      	bne.n	4702 <.interpret_faltoptimierung>
    46f0:	1beb      	subs	r3, r5, r7
    46f2:	089b      	lsrs	r3, r3, #2
    46f4:	2040      	movs	r0, #64	; 0x40
    46f6:	4008      	ands	r0, r1
    46f8:	d009      	beq.n	470e <.interpret_allocator>

000046fa <.interpret_genugkonstanten>:
    46fa:	200f      	movs	r0, #15
    46fc:	4008      	ands	r0, r1
    46fe:	4283      	cmp	r3, r0
    4700:	d305      	bcc.n	470e <.interpret_allocator>

00004702 <.interpret_faltoptimierung>:
    4702:	3f04      	subs	r7, #4
    4704:	603e      	str	r6, [r7, #0]
    4706:	0016      	movs	r6, r2
    4708:	f7fe fd07 	bl	311a <Code_739>
    470c:	e777      	b.n	45fe <Code_1153+0x2>

0000470e <.interpret_allocator>:
    470e:	4833      	ldr	r0, [pc, #204]	; (47dc <quit_innenschleife+0x2c>)
    4710:	4008      	ands	r0, r1
    4712:	d008      	beq.n	4726 <.interpret_allocator_finished>
    4714:	f7fb fe8f 	bl	436 <Code_28>
    4718:	f7fb ffd4 	bl	6c4 <Code_54>
    471c:	0038      	movs	r0, r7
    471e:	6020      	str	r0, [r4, #0]
    4720:	f7fb fe98 	bl	454 <nfaltkonstanten_aufschwimmen>
    4724:	e76b      	b.n	45fe <Code_1153+0x2>

00004726 <.interpret_allocator_finished>:
    4726:	f7fb fe86 	bl	436 <Code_28>
    472a:	f7fc f81f 	bl	76c <Code_60>
    472e:	2500      	movs	r5, #0
    4730:	6025      	str	r5, [r4, #0]
    4732:	3f04      	subs	r7, #4
    4734:	603e      	str	r6, [r7, #0]
    4736:	0016      	movs	r6, r2
    4738:	2210      	movs	r2, #16
    473a:	400a      	ands	r2, r1
    473c:	d002      	beq.n	4744 <.interpret_allocator_finished+0x1e>
    473e:	f7fe fcec 	bl	311a <Code_739>
    4742:	e75c      	b.n	45fe <Code_1153+0x2>
    4744:	2220      	movs	r2, #32
    4746:	400a      	ands	r2, r1
    4748:	d002      	beq.n	4750 <.interpret_allocator_finished+0x2a>
    474a:	f7fe fc4c 	bl	2fe6 <Code_717>
    474e:	e756      	b.n	45fe <Code_1153+0x2>
    4750:	f7fe fb32 	bl	2db8 <Code_674>
    4754:	e753      	b.n	45fe <Code_1153+0x2>
    4756:	46c0      	nop			; (mov r8, r8)

00004758 <Dictionary_1175>:
    4758:	00004774 	andeq	r4, r0, r4, ror r7
    475c:	68090081 	stmdavs	r9, {r0, r7}
    4760:	2d6b6f6f 	stclcs	15, cr6, [fp, #-444]!	; 0xfffffe44
    4764:	74697571 	strbtvc	r7, [r9], #-1393	; 0x571

00004768 <Code_1175>:
    4768:	3f04      	subs	r7, #4
    476a:	603e      	str	r6, [r7, #0]
    476c:	4e1c      	ldr	r6, [pc, #112]	; (47e0 <quit_innenschleife+0x30>)
    476e:	4770      	bx	lr
    4770:	000047b0 			; <UNDEFINED> instruction: 0x000047b0

00004774 <Dictionary_1178>:
    4774:	000047f4 	strdeq	r4, [r0], -r4	; <UNPREDICTABLE>
    4778:	71040000 	mrsvc	r0, (UNDEF: 4)
    477c:	00746975 	rsbseq	r6, r4, r5, ror r9

00004780 <Code_1178>:
    4780:	4818      	ldr	r0, [pc, #96]	; (47e4 <quit_innenschleife+0x34>)
    4782:	4685      	mov	sp, r0
    4784:	4f10      	ldr	r7, [pc, #64]	; (47c8 <quit_innenschleife+0x18>)
    4786:	f7fd fc65 	bl	2054 <sammeltabelleleeren>
    478a:	4817      	ldr	r0, [pc, #92]	; (47e8 <quit_innenschleife+0x38>)
    478c:	210a      	movs	r1, #10
    478e:	6001      	str	r1, [r0, #0]
    4790:	4810      	ldr	r0, [pc, #64]	; (47d4 <quit_innenschleife+0x24>)
    4792:	2100      	movs	r1, #0
    4794:	6001      	str	r1, [r0, #0]
    4796:	480e      	ldr	r0, [pc, #56]	; (47d0 <quit_innenschleife+0x20>)
    4798:	6001      	str	r1, [r0, #0]
    479a:	f7fc f845 	bl	828 <Code_73>
    479e:	4809      	ldr	r0, [pc, #36]	; (47c4 <quit_innenschleife+0x14>)
    47a0:	6001      	str	r1, [r0, #0]
    47a2:	4812      	ldr	r0, [pc, #72]	; (47ec <quit_innenschleife+0x3c>)
    47a4:	6001      	str	r1, [r0, #0]
    47a6:	4912      	ldr	r1, [pc, #72]	; (47f0 <quit_innenschleife+0x40>)
    47a8:	6041      	str	r1, [r0, #4]

000047aa <quit_intern>:
    47aa:	480d      	ldr	r0, [pc, #52]	; (47e0 <quit_innenschleife+0x30>)
    47ac:	6800      	ldr	r0, [r0, #0]
    47ae:	4687      	mov	pc, r0

000047b0 <quit_innenschleife>:
    47b0:	f7fe f87e 	bl	28b0 <Code_559>
    47b4:	f7ff ff22 	bl	45fc <Code_1153>
    47b8:	f7fe f924 	bl	2a04 <dotgaensefuesschen>
    47bc:	6b6f2005 	blvs	1bcc7d8 <BIT24+0xbcc7d8>
    47c0:	e7f50a2e 	ldrb	r0, [r5, lr, lsr #20]!
    47c4:	20002fe4 	andcs	r2, r0, r4, ror #31
    47c8:	1ffff25c 	svcne	0x00fff25c
    47cc:	1ffff15c 	svcne	0x00fff15c
    47d0:	1ffff008 	svcne	0x00fff008
    47d4:	20002fd8 	ldrdcs	r2, [r0], -r8
    47d8:	00000400 	andeq	r0, r0, r0, lsl #8
    47dc:	00000200 	andeq	r0, r0, r0, lsl #4
    47e0:	20002fd4 	ldrdcs	r2, [r0], -r4
    47e4:	1ffff35c 	svcne	0x00fff35c
    47e8:	20002ffc 	strdcs	r2, [r0], -ip
    47ec:	20002fdc 	ldrdcs	r2, [r0], -ip
    47f0:	1ffff094 	svcne	0x00fff094

000047f4 <Dictionary_1180>:
    47f4:	00004810 	andeq	r4, r0, r0, lsl r8
    47f8:	65050000 	strvs	r0, [r5, #-0]
    47fc:	3f746e69 	svccc	0x00746e69

00004800 <Code_1180>:
    4800:	3f04      	subs	r7, #4
    4802:	603e      	str	r6, [r7, #0]
    4804:	f3ef 8610 	mrs	r6, PRIMASK
    4808:	3e01      	subs	r6, #1
    480a:	41b6      	sbcs	r6, r6
    480c:	4770      	bx	lr
    480e:	46c0      	nop			; (mov r8, r8)

00004810 <Dictionary_1182>:
    4810:	00004820 	andeq	r4, r0, r0, lsr #16
    4814:	65040020 	strvs	r0, [r4, #-32]
    4818:	00746e69 	rsbseq	r6, r4, r9, ror #28

0000481c <Code_1182>:
    481c:	b662      	cpsie	i
    481e:	4770      	bx	lr

00004820 <Dictionary_1183>:
    4820:	00004830 	andeq	r4, r0, r0, lsr r8
    4824:	64040020 	strvs	r0, [r4], #-32
    4828:	00746e69 	rsbseq	r6, r4, r9, ror #28

0000482c <Code_1183>:
    482c:	b672      	cpsid	i
    482e:	4770      	bx	lr

00004830 <Dictionary_1184>:
    4830:	00004848 	andeq	r4, r0, r8, asr #16
    4834:	69040020 	stmdbvs	r4, {r5}
    4838:	00727370 	rsbseq	r7, r2, r0, ror r3

0000483c <Code_1184>:
    483c:	3f04      	subs	r7, #4
    483e:	603e      	str	r6, [r7, #0]
    4840:	f3ef 8605 	mrs	r6, IPSR
    4844:	4770      	bx	lr
    4846:	46c0      	nop			; (mov r8, r8)

00004848 <Dictionary_1186>:
    4848:	00004854 	andeq	r4, r0, r4, asr r8
    484c:	6e030000 	cdpvs	0, 0, cr0, cr3, cr0, {0}
    4850:	4770706f 	ldrbmi	r7, [r0, -pc, rrx]!

00004852 <Code_1186>:
    4852:	4770      	bx	lr

00004854 <Dictionary_1187>:
    4854:	00004898 	muleq	r0, r8, r8
    4858:	75090000 	strvc	r0, [r9, #-0]
    485c:	6e61686e 	cdpvs	8, 6, cr6, cr1, cr14, {3}
    4860:	64656c64 	strbtvs	r6, [r5], #-3172	; 0xc64

00004864 <Code_1187>:
    4864:	b500      	push	{lr}
    4866:	f7fe f8cd 	bl	2a04 <dotgaensefuesschen>
    486a:	686e5514 	stmdavs	lr!, {r2, r4, r8, sl, ip, lr}^
    486e:	6c646e61 	stclvs	14, cr6, [r4], #-388	; 0xfffffe7c
    4872:	49206465 	stmdbmi	r0!, {r0, r2, r5, r6, sl, sp, lr}
    4876:	7265746e 	rsbvc	r7, r5, #1845493760	; 0x6e000000
    487a:	74707572 	ldrbtvc	r7, [r0], #-1394	; 0x572
    487e:	3f040020 	svccc	0x00040020
    4882:	603e      	str	r6, [r7, #0]
    4884:	f3ef 8605 	mrs	r6, IPSR
    4888:	f7fe f934 	bl	2af4 <Code_613>
    488c:	f7fe f8ba 	bl	2a04 <dotgaensefuesschen>
    4890:	000a2102 	andeq	r2, sl, r2, lsl #2
    4894:	bd00      	pop	{pc}
    4896:	46c0      	nop			; (mov r8, r8)

00004898 <Dictionary_1191>:
    4898:	000048ac 	andeq	r4, r0, ip, lsr #17
    489c:	72050000 	andvc	r0, r5, #0
    48a0:	74657365 	strbtvc	r7, [r5], #-869	; 0x365

000048a4 <Code_1191>:
    48a4:	4899      	ldr	r0, [pc, #612]	; (4b0c <init_name+0x4>)
    48a6:	499a      	ldr	r1, [pc, #616]	; (4b10 <init_name+0x8>)
    48a8:	6001      	str	r1, [r0, #0]
    48aa:	46c0      	nop			; (mov r8, r8)

000048ac <Dictionary_1193>:
    48ac:	000048d0 	ldrdeq	r4, [r0], -r0
    48b0:	690b0081 	stmdbvs	fp, {r0, r7}
    48b4:	732d7172 	teqvc	sp, #-2147483620	; 0x8000001c
    48b8:	69747379 	ldmdbvs	r4!, {r0, r3, r4, r5, r6, r8, r9, ip, sp, lr}^
    48bc:	3f046b63 	svccc	0x00046b63

000048be <Code_1193>:
    48be:	3f04      	subs	r7, #4
    48c0:	603e      	str	r6, [r7, #0]
    48c2:	4e94      	ldr	r6, [pc, #592]	; (4b14 <init_name+0xc>)
    48c4:	4770      	bx	lr
    48c6:	00004864 	andeq	r4, r0, r4, ror #16

000048ca <irq_vektor_systick>:
    48ca:	4892      	ldr	r0, [pc, #584]	; (4b14 <init_name+0xc>)
    48cc:	6800      	ldr	r0, [r0, #0]
    48ce:	4687      	mov	pc, r0

000048d0 <Dictionary_1197>:
    48d0:	000048f4 	strdeq	r4, [r0], -r4	; <UNPREDICTABLE>
    48d4:	69090081 	stmdbvs	r9, {r0, r7}
    48d8:	662d7172 			; <UNDEFINED> instruction: 0x662d7172
    48dc:	746c7561 	strbtvc	r7, [ip], #-1377	; 0x561

000048e0 <Code_1197>:
    48e0:	3f04      	subs	r7, #4
    48e2:	603e      	str	r6, [r7, #0]
    48e4:	4e8c      	ldr	r6, [pc, #560]	; (4b18 <init_name+0x10>)
    48e6:	4770      	bx	lr
    48e8:	00004864 	andeq	r4, r0, r4, ror #16

000048ec <faulthandler>:
    48ec:	488a      	ldr	r0, [pc, #552]	; (4b18 <init_name+0x10>)
    48ee:	6800      	ldr	r0, [r0, #0]
    48f0:	4687      	mov	pc, r0
    48f2:	46c0      	nop			; (mov r8, r8)

000048f4 <Dictionary_1201>:
    48f4:	0000491c 	andeq	r4, r0, ip, lsl r9
    48f8:	690e0081 	stmdbvs	lr, {r0, r7}
    48fc:	632d7172 	teqvs	sp, #-2147483620	; 0x8000001c
    4900:	656c6c6f 	strbvs	r6, [ip, #-3183]!	; 0xc6f
    4904:	6f697463 	svcvs	0x00697463
    4908:	3f04006e 	svccc	0x0004006e

0000490a <Code_1201>:
    490a:	3f04      	subs	r7, #4
    490c:	603e      	str	r6, [r7, #0]
    490e:	4e83      	ldr	r6, [pc, #524]	; (4b1c <init_name+0x14>)
    4910:	4770      	bx	lr
    4912:	00004864 	andeq	r4, r0, r4, ror #16

00004916 <nullhandler>:
    4916:	4881      	ldr	r0, [pc, #516]	; (4b1c <init_name+0x14>)
    4918:	6800      	ldr	r0, [r0, #0]
    491a:	4687      	mov	pc, r0

0000491c <Dictionary_1205>:
    491c:	0000493c 	andeq	r4, r0, ip, lsr r9
    4920:	69070081 	stmdbvs	r7, {r0, r7}
    4924:	612d7172 	teqvs	sp, r2, ror r1
    4928:	3f046364 	svccc	0x00046364

0000492a <Code_1205>:
    492a:	3f04      	subs	r7, #4
    492c:	603e      	str	r6, [r7, #0]
    492e:	4e7c      	ldr	r6, [pc, #496]	; (4b20 <init_name+0x18>)
    4930:	4770      	bx	lr
    4932:	00004864 	andeq	r4, r0, r4, ror #16

00004936 <irq_vektor_adc>:
    4936:	487a      	ldr	r0, [pc, #488]	; (4b20 <init_name+0x18>)
    4938:	6800      	ldr	r0, [r0, #0]
    493a:	4687      	mov	pc, r0

0000493c <Dictionary_1209>:
    493c:	0000495c 	andeq	r4, r0, ip, asr r9
    4940:	69070081 	stmdbvs	r7, {r0, r7}
    4944:	632d7172 	teqvs	sp, #-2147483620	; 0x8000001c
    4948:	3f04706d 	svccc	0x0004706d

0000494a <Code_1209>:
    494a:	3f04      	subs	r7, #4
    494c:	603e      	str	r6, [r7, #0]
    494e:	4e75      	ldr	r6, [pc, #468]	; (4b24 <init_name+0x1c>)
    4950:	4770      	bx	lr
    4952:	00004864 	andeq	r4, r0, r4, ror #16

00004956 <irq_vektor_cmp>:
    4956:	4873      	ldr	r0, [pc, #460]	; (4b24 <init_name+0x1c>)
    4958:	6800      	ldr	r0, [r0, #0]
    495a:	4687      	mov	pc, r0

0000495c <Dictionary_1213>:
    495c:	0000497c 	andeq	r4, r0, ip, ror r9
    4960:	69070081 	stmdbvs	r7, {r0, r7}
    4964:	642d7172 	strtvs	r7, [sp], #-370	; 0x172
    4968:	3f046361 	svccc	0x00046361

0000496a <Code_1213>:
    496a:	3f04      	subs	r7, #4
    496c:	603e      	str	r6, [r7, #0]
    496e:	4e6e      	ldr	r6, [pc, #440]	; (4b28 <init_name+0x20>)
    4970:	4770      	bx	lr
    4972:	00004864 	andeq	r4, r0, r4, ror #16

00004976 <irq_vektor_dac>:
    4976:	486c      	ldr	r0, [pc, #432]	; (4b28 <init_name+0x20>)
    4978:	6800      	ldr	r0, [r0, #0]
    497a:	4687      	mov	pc, r0

0000497c <Dictionary_1217>:
    497c:	000049a0 	andeq	r4, r0, r0, lsr #19
    4980:	69090081 	stmdbvs	r9, {r0, r7}
    4984:	702d7172 	eorvc	r7, sp, r2, ror r1
    4988:	6174726f 	cmnvs	r4, pc, ror #4

0000498c <Code_1217>:
    498c:	3f04      	subs	r7, #4
    498e:	603e      	str	r6, [r7, #0]
    4990:	4e66      	ldr	r6, [pc, #408]	; (4b2c <init_name+0x24>)
    4992:	4770      	bx	lr
    4994:	00004864 	andeq	r4, r0, r4, ror #16

00004998 <irq_vektor_porta>:
    4998:	4864      	ldr	r0, [pc, #400]	; (4b2c <init_name+0x24>)
    499a:	6800      	ldr	r0, [r0, #0]
    499c:	4687      	mov	pc, r0
    499e:	46c0      	nop			; (mov r8, r8)

000049a0 <Dictionary_1221>:
    49a0:	000049c4 	andeq	r4, r0, r4, asr #19
    49a4:	69090081 	stmdbvs	r9, {r0, r7}
    49a8:	702d7172 	eorvc	r7, sp, r2, ror r1
    49ac:	6474726f 	ldrbtvs	r7, [r4], #-623	; 0x26f

000049b0 <Code_1221>:
    49b0:	3f04      	subs	r7, #4
    49b2:	603e      	str	r6, [r7, #0]
    49b4:	4e5e      	ldr	r6, [pc, #376]	; (4b30 <init_name+0x28>)
    49b6:	4770      	bx	lr
    49b8:	00004864 	andeq	r4, r0, r4, ror #16

000049bc <irq_vektor_portd>:
    49bc:	485c      	ldr	r0, [pc, #368]	; (4b30 <init_name+0x28>)
    49be:	6800      	ldr	r0, [r0, #0]
    49c0:	4687      	mov	pc, r0
    49c2:	46c0      	nop			; (mov r8, r8)

000049c4 <Dictionary_1224>:
    49c4:	00006000 	andeq	r6, r0, r0
    49c8:	2d18ffff 	ldccs	15, cr15, [r8, #-1020]	; 0xfffffc04
    49cc:	46202d2d 	strtmi	r2, [r0], -sp, lsr #26
    49d0:	6873616c 	ldmdavs	r3!, {r2, r3, r5, r6, r8, sp, lr}^
    49d4:	63694420 	cmnvs	r9, #536870912	; 0x20000000
    49d8:	6e6f6974 	mcrvs	9, 3, r6, cr15, cr4, {3}
    49dc:	20797261 	rsbscs	r7, r9, r1, ror #4
    49e0:	002d2d2d 	eoreq	r2, sp, sp, lsr #26

000049e4 <Code_1224>:
    49e4:	2100      	movs	r1, #0
    49e6:	4853      	ldr	r0, [pc, #332]	; (4b34 <init_name+0x2c>)
    49e8:	6001      	str	r1, [r0, #0]
    49ea:	f7fd fd95 	bl	2518 <uart_init>
    49ee:	4852      	ldr	r0, [pc, #328]	; (4b38 <init_name+0x30>)
    49f0:	4685      	mov	sp, r0
    49f2:	4f52      	ldr	r7, [pc, #328]	; (4b3c <init_name+0x34>)
    49f4:	262a      	movs	r6, #42	; 0x2a
    49f6:	4852      	ldr	r0, [pc, #328]	; (4b40 <init_name+0x38>)
    49f8:	4952      	ldr	r1, [pc, #328]	; (4b44 <init_name+0x3c>)
    49fa:	6001      	str	r1, [r0, #0]
    49fc:	4852      	ldr	r0, [pc, #328]	; (4b48 <init_name+0x40>)
    49fe:	4953      	ldr	r1, [pc, #332]	; (4b4c <init_name+0x44>)
    4a00:	6001      	str	r1, [r0, #0]
    4a02:	3f04      	subs	r7, #4
    4a04:	603e      	str	r6, [r7, #0]
    4a06:	4e51      	ldr	r6, [pc, #324]	; (4b4c <init_name+0x44>)
    4a08:	4d51      	ldr	r5, [pc, #324]	; (4b50 <init_name+0x48>)

00004a0a <SucheFlashPointer_Hangelschleife>:
    4a0a:	88b1      	ldrh	r1, [r6, #4]
    4a0c:	4b51      	ldr	r3, [pc, #324]	; (4b54 <init_name+0x4c>)
    4a0e:	4299      	cmp	r1, r3
    4a10:	d024      	beq.n	4a5c <Sucheflashpointer_Speicherbelegung_fertig>
    4a12:	4b51      	ldr	r3, [pc, #324]	; (4b58 <init_name+0x50>)
    4a14:	400b      	ands	r3, r1
    4a16:	d00a      	beq.n	4a2e <SucheFlashPointer_Hangelschleife+0x24>
    4a18:	1db0      	adds	r0, r6, #6
    4a1a:	f7fe ff8f 	bl	393c <skipstring>
    4a1e:	f7fe faf6 	bl	300e <suchedefinitionsende>
    4a22:	8803      	ldrh	r3, [r0, #0]
    4a24:	8840      	ldrh	r0, [r0, #2]
    4a26:	0400      	lsls	r0, r0, #16
    4a28:	4303      	orrs	r3, r0
    4a2a:	1aed      	subs	r5, r5, r3
    4a2c:	e016      	b.n	4a5c <Sucheflashpointer_Speicherbelegung_fertig>
    4a2e:	2380      	movs	r3, #128	; 0x80
    4a30:	400b      	ands	r3, r1
    4a32:	d013      	beq.n	4a5c <Sucheflashpointer_Speicherbelegung_fertig>
    4a34:	230f      	movs	r3, #15
    4a36:	4019      	ands	r1, r3
    4a38:	0089      	lsls	r1, r1, #2
    4a3a:	1a6d      	subs	r5, r5, r1
    4a3c:	1db0      	adds	r0, r6, #6
    4a3e:	f7fe ff7d 	bl	393c <skipstring>
    4a42:	f7fe fae4 	bl	300e <suchedefinitionsende>
    4a46:	3f04      	subs	r7, #4
    4a48:	603e      	str	r6, [r7, #0]
    4a4a:	0006      	movs	r6, r0
    4a4c:	3f04      	subs	r7, #4
    4a4e:	603e      	str	r6, [r7, #0]
    4a50:	002e      	movs	r6, r5
    4a52:	3f04      	subs	r7, #4
    4a54:	603e      	str	r6, [r7, #0]
    4a56:	000e      	movs	r6, r1
    4a58:	f7fc fed6 	bl	1808 <Code_337>

00004a5c <Sucheflashpointer_Speicherbelegung_fertig>:
    4a5c:	f7fe ff4b 	bl	38f6 <Code_882>
    4a60:	0030      	movs	r0, r6
    4a62:	cf40      	ldmia	r7!, {r6}
    4a64:	d0d1      	beq.n	4a0a <SucheFlashPointer_Hangelschleife>
    4a66:	483d      	ldr	r0, [pc, #244]	; (4b5c <init_name+0x54>)
    4a68:	6006      	str	r6, [r0, #0]
    4a6a:	cf40      	ldmia	r7!, {r6}
    4a6c:	483c      	ldr	r0, [pc, #240]	; (4b60 <init_name+0x58>)
    4a6e:	6005      	str	r5, [r0, #0]
    4a70:	483c      	ldr	r0, [pc, #240]	; (4b64 <init_name+0x5c>)
    4a72:	493d      	ldr	r1, [pc, #244]	; (4b68 <init_name+0x60>)
    4a74:	4a37      	ldr	r2, [pc, #220]	; (4b54 <init_name+0x4c>)
    4a76:	4288      	cmp	r0, r1
    4a78:	d004      	beq.n	4a84 <Sucheflashpointer_Speicherbelegung_fertig+0x28>
    4a7a:	3802      	subs	r0, #2
    4a7c:	8803      	ldrh	r3, [r0, #0]
    4a7e:	4293      	cmp	r3, r2
    4a80:	d0f9      	beq.n	4a76 <Sucheflashpointer_Speicherbelegung_fertig+0x1a>
    4a82:	3002      	adds	r0, #2
    4a84:	4939      	ldr	r1, [pc, #228]	; (4b6c <init_name+0x64>)
    4a86:	6008      	str	r0, [r1, #0]
    4a88:	f7fd fae4 	bl	2054 <sammeltabelleleeren>
    4a8c:	f7fd ffba 	bl	2a04 <dotgaensefuesschen>
    4a90:	63654d51 	cmnvs	r5, #5184	; 0x1440
    4a94:	70736972 	rsbsvc	r6, r3, r2, ror r9
    4a98:	6574532d 	ldrbvs	r5, [r4, #-813]!	; 0x32d
    4a9c:	72616c6c 	rsbvc	r6, r1, #27648	; 0x6c00
    4aa0:	52207369 	eorpl	r7, r0, #-1543503871	; 0xa4000001
    4aa4:	2e302041 	cdpcs	0, 3, cr2, cr0, cr1, {2}
    4aa8:	78652035 	stmdavc	r5!, {r0, r2, r4, r5, sp}^
    4aac:	69726570 	ldmdbvs	r2!, {r4, r5, r6, r8, sl, sp, lr}^
    4ab0:	746e656d 	strbtvc	r6, [lr], #-1389	; 0x56d
    4ab4:	77206c61 	strvc	r6, [r0, -r1, ror #24]!
    4ab8:	20687469 	rsbcs	r7, r8, r9, ror #8
    4abc:	6320304d 	teqvs	r0, #77	; 0x4d
    4ac0:	2065726f 	rsbcs	r7, r5, pc, ror #4
    4ac4:	20726f66 	rsbscs	r6, r2, r6, ror #30
    4ac8:	35324c4b 	ldrcc	r4, [r2, #-3147]!	; 0xc4b
    4acc:	3832315a 	ldmdacc	r2!, {r1, r3, r4, r6, r8, ip, sp}
    4ad0:	20796220 	rsbscs	r6, r9, r0, lsr #4
    4ad4:	7474614d 	ldrbtvc	r6, [r4], #-333	; 0x14d
    4ad8:	73616968 	cmnvc	r1, #1703936	; 0x1a0000
    4adc:	636f4b20 	cmnvs	pc, #32768	; 0x8000
    4ae0:	48230a68 	stmdami	r3!, {r3, r5, r6, r9, fp}
    4ae4:	2100      	movs	r1, #0
    4ae6:	6001      	str	r1, [r0, #0]
    4ae8:	3f04      	subs	r7, #4
    4aea:	603e      	str	r6, [r7, #0]
    4aec:	4e21      	ldr	r6, [pc, #132]	; (4b74 <init_name+0x6c>)
    4aee:	3f04      	subs	r7, #4
    4af0:	603e      	str	r6, [r7, #0]
    4af2:	2604      	movs	r6, #4
    4af4:	f7fe ff32 	bl	395c <Code_887>
    4af8:	cf40      	ldmia	r7!, {r6}
    4afa:	2e00      	cmp	r6, #0
    4afc:	d002      	beq.n	4b04 <Sucheflashpointer_Speicherbelegung_fertig+0xa8>
    4afe:	f7fe fb0c 	bl	311a <Code_739>
    4b02:	e652      	b.n	47aa <quit_intern>
    4b04:	cf40      	ldmia	r7!, {r6}
    4b06:	e63b      	b.n	4780 <Code_1178>

00004b08 <init_name>:
    4b08:	74696e69 	strbtvc	r6, [r9], #-3689	; 0xe69
    4b0c:	e000ed0c 	and	lr, r0, ip, lsl #26
    4b10:	05fa0004 	ldrbeq	r0, [sl, #4]!
    4b14:	20002fd0 	ldrdcs	r2, [r0], -r0
    4b18:	20002fcc 	andcs	r2, r0, ip, asr #31
    4b1c:	20002fc8 	andcs	r2, r0, r8, asr #31
    4b20:	20002fc4 	andcs	r2, r0, r4, asr #31
    4b24:	20002fc0 	andcs	r2, r0, r0, asr #31
    4b28:	20002fbc 			; <UNDEFINED> instruction: 0x20002fbc
    4b2c:	20002fb8 			; <UNDEFINED> instruction: 0x20002fb8
    4b30:	20002fb4 			; <UNDEFINED> instruction: 0x20002fb4
    4b34:	40048100 	andmi	r8, r4, r0, lsl #2
    4b38:	1ffff35c 	svcne	0x00fff35c
    4b3c:	1ffff25c 	svcne	0x00fff25c
    4b40:	1ffff000 	svcne	0x00fff000
    4b44:	1ffff41c 	svcne	0x00fff41c
    4b48:	1ffff004 	svcne	0x00fff004
    4b4c:	00000410 	andeq	r0, r0, r0, lsl r4
    4b50:	20003000 	andcs	r3, r0, r0
    4b54:	0000ffff 	strdeq	pc, [r0], -pc	; <UNPREDICTABLE>
    4b58:	00000100 	andeq	r0, r0, r0, lsl #2
    4b5c:	1ffff01c 	svcne	0x00fff01c
    4b60:	1ffff024 	svcne	0x00fff024
    4b64:	00020000 	andeq	r0, r2, r0
    4b68:	00006000 	andeq	r6, r0, r0
    4b6c:	1ffff018 	svcne	0x00fff018
    4b70:	1ffff008 	svcne	0x00fff008
    4b74:	00004b08 	andeq	r4, r0, r8, lsl #22

Disassembly of section .ARM.attributes:

00000000 <.ARM.attributes>:
   0:	00002041 	andeq	r2, r0, r1, asr #32
   4:	61656100 	cmnvs	r5, r0, lsl #2
   8:	01006962 	tsteq	r0, r2, ror #18
   c:	00000016 	andeq	r0, r0, r6, lsl r0
  10:	726f4305 	rsbvc	r4, pc, #335544320	; 0x14000000
  14:	2d786574 	cfldr64cs	mvdx6, [r8, #-464]!	; 0xfffffe30
  18:	0600304d 	streq	r3, [r0], -sp, asr #32
  1c:	094d070c 	stmdbeq	sp, {r2, r3, r8, r9, sl}^
  20:	Address 0x00000020 is out of bounds.

